
Cart RFID.elf:     file format elf32-littlearm

Sections:
Idx Name          Size      VMA       LMA       File off  Algn
  0 .isr_vector   0000010c  08000000  08000000  00010000  2**0
                  CONTENTS, ALLOC, LOAD, READONLY, DATA
  1 .text         000044a0  0800010c  0800010c  0001010c  2**2
                  CONTENTS, ALLOC, LOAD, READONLY, CODE
  2 .rodata       000000d0  080045ac  080045ac  000145ac  2**2
                  CONTENTS, ALLOC, LOAD, READONLY, DATA
  3 .ARM.extab    00000000  0800467c  0800467c  00020070  2**0
                  CONTENTS
  4 .ARM          00000000  0800467c  0800467c  00020070  2**0
                  CONTENTS
  5 .preinit_array 00000000  0800467c  0800467c  00020070  2**0
                  CONTENTS, ALLOC, LOAD, DATA
  6 .init_array   00000004  0800467c  0800467c  0001467c  2**2
                  CONTENTS, ALLOC, LOAD, DATA
  7 .fini_array   00000004  08004680  08004680  00014680  2**2
                  CONTENTS, ALLOC, LOAD, DATA
  8 .data         00000070  20000000  08004684  00020000  2**2
                  CONTENTS, ALLOC, LOAD, DATA
  9 .bss          0000017c  20000070  080046f4  00020070  2**2
                  ALLOC
 10 ._user_heap_stack 00000604  200001ec  080046f4  000201ec  2**0
                  ALLOC
 11 .ARM.attributes 00000029  00000000  00000000  00020070  2**0
                  CONTENTS, READONLY
 12 .debug_info   0000fb49  00000000  00000000  00020099  2**0
                  CONTENTS, READONLY, DEBUGGING, OCTETS
 13 .debug_abbrev 000026e5  00000000  00000000  0002fbe2  2**0
                  CONTENTS, READONLY, DEBUGGING, OCTETS
 14 .debug_aranges 00000f28  00000000  00000000  000322c8  2**3
                  CONTENTS, READONLY, DEBUGGING, OCTETS
 15 .debug_ranges 00000e20  00000000  00000000  000331f0  2**3
                  CONTENTS, READONLY, DEBUGGING, OCTETS
 16 .debug_macro  00019623  00000000  00000000  00034010  2**0
                  CONTENTS, READONLY, DEBUGGING, OCTETS
 17 .debug_line   00010147  00000000  00000000  0004d633  2**0
                  CONTENTS, READONLY, DEBUGGING, OCTETS
 18 .debug_str    0008e16e  00000000  00000000  0005d77a  2**0
                  CONTENTS, READONLY, DEBUGGING, OCTETS
 19 .comment      00000053  00000000  00000000  000eb8e8  2**0
                  CONTENTS, READONLY
 20 .debug_frame  000047c8  00000000  00000000  000eb93c  2**2
                  CONTENTS, READONLY, DEBUGGING, OCTETS

Disassembly of section .text:

0800010c <__do_global_dtors_aux>:
 800010c:	b510      	push	{r4, lr}
 800010e:	4c05      	ldr	r4, [pc, #20]	; (8000124 <__do_global_dtors_aux+0x18>)
 8000110:	7823      	ldrb	r3, [r4, #0]
 8000112:	b933      	cbnz	r3, 8000122 <__do_global_dtors_aux+0x16>
 8000114:	4b04      	ldr	r3, [pc, #16]	; (8000128 <__do_global_dtors_aux+0x1c>)
 8000116:	b113      	cbz	r3, 800011e <__do_global_dtors_aux+0x12>
 8000118:	4804      	ldr	r0, [pc, #16]	; (800012c <__do_global_dtors_aux+0x20>)
 800011a:	f3af 8000 	nop.w
 800011e:	2301      	movs	r3, #1
 8000120:	7023      	strb	r3, [r4, #0]
 8000122:	bd10      	pop	{r4, pc}
 8000124:	20000070 	.word	0x20000070
 8000128:	00000000 	.word	0x00000000
 800012c:	08004594 	.word	0x08004594

08000130 <frame_dummy>:
 8000130:	b508      	push	{r3, lr}
 8000132:	4b03      	ldr	r3, [pc, #12]	; (8000140 <frame_dummy+0x10>)
 8000134:	b11b      	cbz	r3, 800013e <frame_dummy+0xe>
 8000136:	4903      	ldr	r1, [pc, #12]	; (8000144 <frame_dummy+0x14>)
 8000138:	4803      	ldr	r0, [pc, #12]	; (8000148 <frame_dummy+0x18>)
 800013a:	f3af 8000 	nop.w
 800013e:	bd08      	pop	{r3, pc}
 8000140:	00000000 	.word	0x00000000
 8000144:	20000074 	.word	0x20000074
 8000148:	08004594 	.word	0x08004594

0800014c <MX_GPIO_Init>:
        * Output
        * EVENT_OUT
        * EXTI
*/
void MX_GPIO_Init(void)
{
 800014c:	b580      	push	{r7, lr}
 800014e:	b088      	sub	sp, #32
 8000150:	af00      	add	r7, sp, #0

  GPIO_InitTypeDef GPIO_InitStruct = {0};
 8000152:	f107 0310 	add.w	r3, r7, #16
 8000156:	2200      	movs	r2, #0
 8000158:	601a      	str	r2, [r3, #0]
 800015a:	605a      	str	r2, [r3, #4]
 800015c:	609a      	str	r2, [r3, #8]
 800015e:	60da      	str	r2, [r3, #12]

  /* GPIO Ports Clock Enable */
  __HAL_RCC_GPIOD_CLK_ENABLE();
 8000160:	4b1d      	ldr	r3, [pc, #116]	; (80001d8 <MX_GPIO_Init+0x8c>)
 8000162:	699b      	ldr	r3, [r3, #24]
 8000164:	4a1c      	ldr	r2, [pc, #112]	; (80001d8 <MX_GPIO_Init+0x8c>)
 8000166:	f043 0320 	orr.w	r3, r3, #32
 800016a:	6193      	str	r3, [r2, #24]
 800016c:	4b1a      	ldr	r3, [pc, #104]	; (80001d8 <MX_GPIO_Init+0x8c>)
 800016e:	699b      	ldr	r3, [r3, #24]
 8000170:	f003 0320 	and.w	r3, r3, #32
 8000174:	60fb      	str	r3, [r7, #12]
 8000176:	68fb      	ldr	r3, [r7, #12]
  __HAL_RCC_GPIOA_CLK_ENABLE();
 8000178:	4b17      	ldr	r3, [pc, #92]	; (80001d8 <MX_GPIO_Init+0x8c>)
 800017a:	699b      	ldr	r3, [r3, #24]
 800017c:	4a16      	ldr	r2, [pc, #88]	; (80001d8 <MX_GPIO_Init+0x8c>)
 800017e:	f043 0304 	orr.w	r3, r3, #4
 8000182:	6193      	str	r3, [r2, #24]
 8000184:	4b14      	ldr	r3, [pc, #80]	; (80001d8 <MX_GPIO_Init+0x8c>)
 8000186:	699b      	ldr	r3, [r3, #24]
 8000188:	f003 0304 	and.w	r3, r3, #4
 800018c:	60bb      	str	r3, [r7, #8]
 800018e:	68bb      	ldr	r3, [r7, #8]
  __HAL_RCC_GPIOB_CLK_ENABLE();
 8000190:	4b11      	ldr	r3, [pc, #68]	; (80001d8 <MX_GPIO_Init+0x8c>)
 8000192:	699b      	ldr	r3, [r3, #24]
 8000194:	4a10      	ldr	r2, [pc, #64]	; (80001d8 <MX_GPIO_Init+0x8c>)
 8000196:	f043 0308 	orr.w	r3, r3, #8
 800019a:	6193      	str	r3, [r2, #24]
 800019c:	4b0e      	ldr	r3, [pc, #56]	; (80001d8 <MX_GPIO_Init+0x8c>)
 800019e:	699b      	ldr	r3, [r3, #24]
 80001a0:	f003 0308 	and.w	r3, r3, #8
 80001a4:	607b      	str	r3, [r7, #4]
 80001a6:	687b      	ldr	r3, [r7, #4]

  /*Configure GPIO pin Output Level */
  HAL_GPIO_WritePin(GPIOA, GPIO_PIN_4, GPIO_PIN_RESET);
 80001a8:	2200      	movs	r2, #0
 80001aa:	2110      	movs	r1, #16
 80001ac:	480b      	ldr	r0, [pc, #44]	; (80001dc <MX_GPIO_Init+0x90>)
 80001ae:	f001 f987 	bl	80014c0 <HAL_GPIO_WritePin>

  /*Configure GPIO pin : PA4 */
  GPIO_InitStruct.Pin = GPIO_PIN_4;
 80001b2:	2310      	movs	r3, #16
 80001b4:	613b      	str	r3, [r7, #16]
  GPIO_InitStruct.Mode = GPIO_MODE_OUTPUT_PP;
 80001b6:	2301      	movs	r3, #1
 80001b8:	617b      	str	r3, [r7, #20]
  GPIO_InitStruct.Pull = GPIO_NOPULL;
 80001ba:	2300      	movs	r3, #0
 80001bc:	61bb      	str	r3, [r7, #24]
  GPIO_InitStruct.Speed = GPIO_SPEED_FREQ_LOW;
 80001be:	2302      	movs	r3, #2
 80001c0:	61fb      	str	r3, [r7, #28]
  HAL_GPIO_Init(GPIOA, &GPIO_InitStruct);
 80001c2:	f107 0310 	add.w	r3, r7, #16
 80001c6:	4619      	mov	r1, r3
 80001c8:	4804      	ldr	r0, [pc, #16]	; (80001dc <MX_GPIO_Init+0x90>)
 80001ca:	f000 fff5 	bl	80011b8 <HAL_GPIO_Init>

}
 80001ce:	bf00      	nop
 80001d0:	3720      	adds	r7, #32
 80001d2:	46bd      	mov	sp, r7
 80001d4:	bd80      	pop	{r7, pc}
 80001d6:	bf00      	nop
 80001d8:	40021000 	.word	0x40021000
 80001dc:	40010800 	.word	0x40010800

080001e0 <__io_putchar>:
/* USER CODE END PD */

/* Private macro -------------------------------------------------------------*/
/* USER CODE BEGIN PM */
int __io_putchar(int ch)
{
 80001e0:	b580      	push	{r7, lr}
 80001e2:	b082      	sub	sp, #8
 80001e4:	af00      	add	r7, sp, #0
 80001e6:	6078      	str	r0, [r7, #4]
     while(HAL_OK!=HAL_UART_Transmit(&huart1,(uint8_t *)&ch, 1, 30000))
 80001e8:	bf00      	nop
 80001ea:	1d39      	adds	r1, r7, #4
 80001ec:	f247 5330 	movw	r3, #30000	; 0x7530
 80001f0:	2201      	movs	r2, #1
 80001f2:	4805      	ldr	r0, [pc, #20]	; (8000208 <__io_putchar+0x28>)
 80001f4:	f002 feff 	bl	8002ff6 <HAL_UART_Transmit>
 80001f8:	4603      	mov	r3, r0
 80001fa:	2b00      	cmp	r3, #0
 80001fc:	d1f5      	bne.n	80001ea <__io_putchar+0xa>
     {}
     return ch;
 80001fe:	687b      	ldr	r3, [r7, #4]
}
 8000200:	4618      	mov	r0, r3
 8000202:	3708      	adds	r7, #8
 8000204:	46bd      	mov	sp, r7
 8000206:	bd80      	pop	{r7, pc}
 8000208:	20000194 	.word	0x20000194

0800020c <main>:
/**
  * @brief  The application entry point.
  * @retval int
  */
int main(void)
{
 800020c:	b580      	push	{r7, lr}
 800020e:	b082      	sub	sp, #8
 8000210:	af02      	add	r7, sp, #8
  /* USER CODE END 1 */

  /* MCU Configuration--------------------------------------------------------*/

  /* Reset of all peripherals, Initializes the Flash interface and the Systick. */
  HAL_Init();
 8000212:	f000 fe3d 	bl	8000e90 <HAL_Init>
  /* USER CODE BEGIN Init */

  /* USER CODE END Init */

  /* Configure the system clock */
  SystemClock_Config();
 8000216:	f000 f857 	bl	80002c8 <SystemClock_Config>
  /* USER CODE BEGIN SysInit */

  /* USER CODE END SysInit */

  /* Initialize all configured peripherals */
  MX_GPIO_Init();
 800021a:	f7ff ff97 	bl	800014c <MX_GPIO_Init>
  MX_SPI1_Init();
 800021e:	f000 fb35 	bl	800088c <MX_SPI1_Init>
  MX_USART1_UART_Init();
 8000222:	f000 fd99 	bl	8000d58 <MX_USART1_UART_Init>
  MX_TIM4_Init();
 8000226:	f000 fcbb 	bl	8000ba0 <MX_TIM4_Init>
  /* USER CODE BEGIN 2 */
  MFRC522_Init();
 800022a:	f000 fad3 	bl	80007d4 <MFRC522_Init>
	  //MFRC522_Init();
	  size = sprintf(buff, "\033[H\033[2J\r\n");
	  printf("%s", buff);
	  */

	  HAL_Delay(20);
 800022e:	2014      	movs	r0, #20
 8000230:	f000 fe90 	bl	8000f54 <HAL_Delay>

	  status = MI_ERR;
 8000234:	4b1d      	ldr	r3, [pc, #116]	; (80002ac <main+0xa0>)
 8000236:	2202      	movs	r2, #2
 8000238:	701a      	strb	r2, [r3, #0]

	  // Look for the card, return type
	  status = MFRC522_Request(PICC_REQIDL, str);
 800023a:	491d      	ldr	r1, [pc, #116]	; (80002b0 <main+0xa4>)
 800023c:	2026      	movs	r0, #38	; 0x26
 800023e:	f000 f94f 	bl	80004e0 <MFRC522_Request>
 8000242:	4603      	mov	r3, r0
 8000244:	461a      	mov	r2, r3
 8000246:	4b19      	ldr	r3, [pc, #100]	; (80002ac <main+0xa0>)
 8000248:	701a      	strb	r2, [r3, #0]
		  //printf("%s", buff);
	  }
	  */

	  // Anti-collision, return the card's 4-byte serial number
	  status = MFRC522_Anticoll(sn);
 800024a:	481a      	ldr	r0, [pc, #104]	; (80002b4 <main+0xa8>)
 800024c:	f000 fa3c 	bl	80006c8 <MFRC522_Anticoll>
 8000250:	4603      	mov	r3, r0
 8000252:	461a      	mov	r2, r3
 8000254:	4b15      	ldr	r3, [pc, #84]	; (80002ac <main+0xa0>)
 8000256:	701a      	strb	r2, [r3, #0]
	  if (status == MI_OK) {
 8000258:	4b14      	ldr	r3, [pc, #80]	; (80002ac <main+0xa0>)
 800025a:	781b      	ldrb	r3, [r3, #0]
 800025c:	2b00      	cmp	r3, #0
 800025e:	d11e      	bne.n	800029e <main+0x92>
		  size = sprintf(buff, "%x%x%x%x\r\n", sn[0],sn[1],sn[2],sn[3]);
 8000260:	4b14      	ldr	r3, [pc, #80]	; (80002b4 <main+0xa8>)
 8000262:	781b      	ldrb	r3, [r3, #0]
 8000264:	4619      	mov	r1, r3
 8000266:	4b13      	ldr	r3, [pc, #76]	; (80002b4 <main+0xa8>)
 8000268:	785b      	ldrb	r3, [r3, #1]
 800026a:	4618      	mov	r0, r3
 800026c:	4b11      	ldr	r3, [pc, #68]	; (80002b4 <main+0xa8>)
 800026e:	789b      	ldrb	r3, [r3, #2]
 8000270:	461a      	mov	r2, r3
 8000272:	4b10      	ldr	r3, [pc, #64]	; (80002b4 <main+0xa8>)
 8000274:	78db      	ldrb	r3, [r3, #3]
 8000276:	9301      	str	r3, [sp, #4]
 8000278:	9200      	str	r2, [sp, #0]
 800027a:	4603      	mov	r3, r0
 800027c:	460a      	mov	r2, r1
 800027e:	490e      	ldr	r1, [pc, #56]	; (80002b8 <main+0xac>)
 8000280:	480e      	ldr	r0, [pc, #56]	; (80002bc <main+0xb0>)
 8000282:	f003 f86d 	bl	8003360 <siprintf>
 8000286:	4603      	mov	r3, r0
 8000288:	b2da      	uxtb	r2, r3
 800028a:	4b0d      	ldr	r3, [pc, #52]	; (80002c0 <main+0xb4>)
 800028c:	701a      	strb	r2, [r3, #0]
		  printf("%s", buff);
 800028e:	490b      	ldr	r1, [pc, #44]	; (80002bc <main+0xb0>)
 8000290:	480c      	ldr	r0, [pc, #48]	; (80002c4 <main+0xb8>)
 8000292:	f003 f84d 	bl	8003330 <iprintf>
		  HAL_Delay(1000);
 8000296:	f44f 707a 	mov.w	r0, #1000	; 0x3e8
 800029a:	f000 fe5b 	bl	8000f54 <HAL_Delay>
		  //printf("%s", buff);
	  }
	  */
	  // HAL_Delay(2);

	  MFRC522_Halt();
 800029e:	f000 fada 	bl	8000856 <MFRC522_Halt>
	  HAL_Delay(200);
 80002a2:	20c8      	movs	r0, #200	; 0xc8
 80002a4:	f000 fe56 	bl	8000f54 <HAL_Delay>
	  HAL_Delay(20);
 80002a8:	e7c1      	b.n	800022e <main+0x22>
 80002aa:	bf00      	nop
 80002ac:	200000f0 	.word	0x200000f0
 80002b0:	200000e0 	.word	0x200000e0
 80002b4:	20000098 	.word	0x20000098
 80002b8:	080045ac 	.word	0x080045ac
 80002bc:	2000009c 	.word	0x2000009c
 80002c0:	200000df 	.word	0x200000df
 80002c4:	080045b8 	.word	0x080045b8

080002c8 <SystemClock_Config>:
/**
  * @brief System Clock Configuration
  * @retval None
  */
void SystemClock_Config(void)
{
 80002c8:	b580      	push	{r7, lr}
 80002ca:	b090      	sub	sp, #64	; 0x40
 80002cc:	af00      	add	r7, sp, #0
  RCC_OscInitTypeDef RCC_OscInitStruct = {0};
 80002ce:	f107 0318 	add.w	r3, r7, #24
 80002d2:	2228      	movs	r2, #40	; 0x28
 80002d4:	2100      	movs	r1, #0
 80002d6:	4618      	mov	r0, r3
 80002d8:	f003 f822 	bl	8003320 <memset>
  RCC_ClkInitTypeDef RCC_ClkInitStruct = {0};
 80002dc:	1d3b      	adds	r3, r7, #4
 80002de:	2200      	movs	r2, #0
 80002e0:	601a      	str	r2, [r3, #0]
 80002e2:	605a      	str	r2, [r3, #4]
 80002e4:	609a      	str	r2, [r3, #8]
 80002e6:	60da      	str	r2, [r3, #12]
 80002e8:	611a      	str	r2, [r3, #16]

  /** Initializes the RCC Oscillators according to the specified parameters
  * in the RCC_OscInitTypeDef structure.
  */
  RCC_OscInitStruct.OscillatorType = RCC_OSCILLATORTYPE_HSE;
 80002ea:	2301      	movs	r3, #1
 80002ec:	61bb      	str	r3, [r7, #24]
  RCC_OscInitStruct.HSEState = RCC_HSE_ON;
 80002ee:	f44f 3380 	mov.w	r3, #65536	; 0x10000
 80002f2:	61fb      	str	r3, [r7, #28]
  RCC_OscInitStruct.HSEPredivValue = RCC_HSE_PREDIV_DIV1;
 80002f4:	2300      	movs	r3, #0
 80002f6:	623b      	str	r3, [r7, #32]
  RCC_OscInitStruct.HSIState = RCC_HSI_ON;
 80002f8:	2301      	movs	r3, #1
 80002fa:	62bb      	str	r3, [r7, #40]	; 0x28
  RCC_OscInitStruct.PLL.PLLState = RCC_PLL_ON;
 80002fc:	2302      	movs	r3, #2
 80002fe:	637b      	str	r3, [r7, #52]	; 0x34
  RCC_OscInitStruct.PLL.PLLSource = RCC_PLLSOURCE_HSE;
 8000300:	f44f 3380 	mov.w	r3, #65536	; 0x10000
 8000304:	63bb      	str	r3, [r7, #56]	; 0x38
  RCC_OscInitStruct.PLL.PLLMUL = RCC_PLL_MUL9;
 8000306:	f44f 13e0 	mov.w	r3, #1835008	; 0x1c0000
 800030a:	63fb      	str	r3, [r7, #60]	; 0x3c
  if (HAL_RCC_OscConfig(&RCC_OscInitStruct) != HAL_OK)
 800030c:	f107 0318 	add.w	r3, r7, #24
 8000310:	4618      	mov	r0, r3
 8000312:	f001 f8ed 	bl	80014f0 <HAL_RCC_OscConfig>
 8000316:	4603      	mov	r3, r0
 8000318:	2b00      	cmp	r3, #0
 800031a:	d001      	beq.n	8000320 <SystemClock_Config+0x58>
  {
    Error_Handler();
 800031c:	f000 f819 	bl	8000352 <Error_Handler>
  }
  /** Initializes the CPU, AHB and APB buses clocks
  */
  RCC_ClkInitStruct.ClockType = RCC_CLOCKTYPE_HCLK|RCC_CLOCKTYPE_SYSCLK
 8000320:	230f      	movs	r3, #15
 8000322:	607b      	str	r3, [r7, #4]
                              |RCC_CLOCKTYPE_PCLK1|RCC_CLOCKTYPE_PCLK2;
  RCC_ClkInitStruct.SYSCLKSource = RCC_SYSCLKSOURCE_PLLCLK;
 8000324:	2302      	movs	r3, #2
 8000326:	60bb      	str	r3, [r7, #8]
  RCC_ClkInitStruct.AHBCLKDivider = RCC_SYSCLK_DIV1;
 8000328:	2300      	movs	r3, #0
 800032a:	60fb      	str	r3, [r7, #12]
  RCC_ClkInitStruct.APB1CLKDivider = RCC_HCLK_DIV2;
 800032c:	f44f 6380 	mov.w	r3, #1024	; 0x400
 8000330:	613b      	str	r3, [r7, #16]
  RCC_ClkInitStruct.APB2CLKDivider = RCC_HCLK_DIV1;
 8000332:	2300      	movs	r3, #0
 8000334:	617b      	str	r3, [r7, #20]

  if (HAL_RCC_ClockConfig(&RCC_ClkInitStruct, FLASH_LATENCY_2) != HAL_OK)
 8000336:	1d3b      	adds	r3, r7, #4
 8000338:	2102      	movs	r1, #2
 800033a:	4618      	mov	r0, r3
 800033c:	f001 fb58 	bl	80019f0 <HAL_RCC_ClockConfig>
 8000340:	4603      	mov	r3, r0
 8000342:	2b00      	cmp	r3, #0
 8000344:	d001      	beq.n	800034a <SystemClock_Config+0x82>
  {
    Error_Handler();
 8000346:	f000 f804 	bl	8000352 <Error_Handler>
  }
}
 800034a:	bf00      	nop
 800034c:	3740      	adds	r7, #64	; 0x40
 800034e:	46bd      	mov	sp, r7
 8000350:	bd80      	pop	{r7, pc}

08000352 <Error_Handler>:
/**
  * @brief  This function is executed in case of error occurrence.
  * @retval None
  */
void Error_Handler(void)
{
 8000352:	b480      	push	{r7}
 8000354:	af00      	add	r7, sp, #0
  \details Disables IRQ interrupts by setting the I-bit in the CPSR.
           Can only be executed in Privileged modes.
 */
__STATIC_FORCEINLINE void __disable_irq(void)
{
  __ASM volatile ("cpsid i" : : : "memory");
 8000356:	b672      	cpsid	i
}
 8000358:	bf00      	nop
  /* USER CODE BEGIN Error_Handler_Debug */
  /* User can add his own implementation to report the HAL error return state */
  __disable_irq();
  while (1)
 800035a:	e7fe      	b.n	800035a <Error_Handler+0x8>

0800035c <SPI1SendByte>:
extern void MFRC522_Reset(void);
extern void MFRC522_AntennaOn(void);
extern void MFRC522_AntennaOff(void);
extern void MFRC522_Halt(void);

uint8_t SPI1SendByte(uint8_t data) {
 800035c:	b580      	push	{r7, lr}
 800035e:	b086      	sub	sp, #24
 8000360:	af02      	add	r7, sp, #8
 8000362:	4603      	mov	r3, r0
 8000364:	71fb      	strb	r3, [r7, #7]
	unsigned char writeCommand[1];
	unsigned char readValue[1];
	writeCommand[0] = data;
 8000366:	79fb      	ldrb	r3, [r7, #7]
 8000368:	733b      	strb	r3, [r7, #12]
	HAL_SPI_TransmitReceive(&hspi1, (uint8_t*)&writeCommand, (uint8_t*)&readValue, 1, 10);
 800036a:	f107 0208 	add.w	r2, r7, #8
 800036e:	f107 010c 	add.w	r1, r7, #12
 8000372:	230a      	movs	r3, #10
 8000374:	9300      	str	r3, [sp, #0]
 8000376:	2301      	movs	r3, #1
 8000378:	4803      	ldr	r0, [pc, #12]	; (8000388 <SPI1SendByte+0x2c>)
 800037a:	f001 fd57 	bl	8001e2c <HAL_SPI_TransmitReceive>
	return readValue[0];
 800037e:	7a3b      	ldrb	r3, [r7, #8]
}
 8000380:	4618      	mov	r0, r3
 8000382:	3710      	adds	r7, #16
 8000384:	46bd      	mov	sp, r7
 8000386:	bd80      	pop	{r7, pc}
 8000388:	200000f4 	.word	0x200000f4

0800038c <SPI1_WriteReg>:

void SPI1_WriteReg(uint8_t address, uint8_t value) {
 800038c:	b580      	push	{r7, lr}
 800038e:	b082      	sub	sp, #8
 8000390:	af00      	add	r7, sp, #0
 8000392:	4603      	mov	r3, r0
 8000394:	460a      	mov	r2, r1
 8000396:	71fb      	strb	r3, [r7, #7]
 8000398:	4613      	mov	r3, r2
 800039a:	71bb      	strb	r3, [r7, #6]
	cs_reset();
 800039c:	2200      	movs	r2, #0
 800039e:	2110      	movs	r1, #16
 80003a0:	4809      	ldr	r0, [pc, #36]	; (80003c8 <SPI1_WriteReg+0x3c>)
 80003a2:	f001 f88d 	bl	80014c0 <HAL_GPIO_WritePin>
	SPI1SendByte(address);
 80003a6:	79fb      	ldrb	r3, [r7, #7]
 80003a8:	4618      	mov	r0, r3
 80003aa:	f7ff ffd7 	bl	800035c <SPI1SendByte>
	SPI1SendByte(value);
 80003ae:	79bb      	ldrb	r3, [r7, #6]
 80003b0:	4618      	mov	r0, r3
 80003b2:	f7ff ffd3 	bl	800035c <SPI1SendByte>
	cs_set();
 80003b6:	2201      	movs	r2, #1
 80003b8:	2110      	movs	r1, #16
 80003ba:	4803      	ldr	r0, [pc, #12]	; (80003c8 <SPI1_WriteReg+0x3c>)
 80003bc:	f001 f880 	bl	80014c0 <HAL_GPIO_WritePin>
}
 80003c0:	bf00      	nop
 80003c2:	3708      	adds	r7, #8
 80003c4:	46bd      	mov	sp, r7
 80003c6:	bd80      	pop	{r7, pc}
 80003c8:	40010800 	.word	0x40010800

080003cc <SPI1_ReadReg>:

uint8_t SPI1_ReadReg(uint8_t address) {
 80003cc:	b580      	push	{r7, lr}
 80003ce:	b084      	sub	sp, #16
 80003d0:	af00      	add	r7, sp, #0
 80003d2:	4603      	mov	r3, r0
 80003d4:	71fb      	strb	r3, [r7, #7]
	uint8_t	val;

	cs_reset();
 80003d6:	2200      	movs	r2, #0
 80003d8:	2110      	movs	r1, #16
 80003da:	480b      	ldr	r0, [pc, #44]	; (8000408 <SPI1_ReadReg+0x3c>)
 80003dc:	f001 f870 	bl	80014c0 <HAL_GPIO_WritePin>
	SPI1SendByte(address);
 80003e0:	79fb      	ldrb	r3, [r7, #7]
 80003e2:	4618      	mov	r0, r3
 80003e4:	f7ff ffba 	bl	800035c <SPI1SendByte>
	val = SPI1SendByte(0x00);
 80003e8:	2000      	movs	r0, #0
 80003ea:	f7ff ffb7 	bl	800035c <SPI1SendByte>
 80003ee:	4603      	mov	r3, r0
 80003f0:	73fb      	strb	r3, [r7, #15]
	cs_set();
 80003f2:	2201      	movs	r2, #1
 80003f4:	2110      	movs	r1, #16
 80003f6:	4804      	ldr	r0, [pc, #16]	; (8000408 <SPI1_ReadReg+0x3c>)
 80003f8:	f001 f862 	bl	80014c0 <HAL_GPIO_WritePin>
	return val;
 80003fc:	7bfb      	ldrb	r3, [r7, #15]
}
 80003fe:	4618      	mov	r0, r3
 8000400:	3710      	adds	r7, #16
 8000402:	46bd      	mov	sp, r7
 8000404:	bd80      	pop	{r7, pc}
 8000406:	bf00      	nop
 8000408:	40010800 	.word	0x40010800

0800040c <MFRC522_WriteRegister>:

void MFRC522_WriteRegister(uint8_t addr, uint8_t val) {
 800040c:	b580      	push	{r7, lr}
 800040e:	b082      	sub	sp, #8
 8000410:	af00      	add	r7, sp, #0
 8000412:	4603      	mov	r3, r0
 8000414:	460a      	mov	r2, r1
 8000416:	71fb      	strb	r3, [r7, #7]
 8000418:	4613      	mov	r3, r2
 800041a:	71bb      	strb	r3, [r7, #6]
	addr = (addr << 1) & 0x7E;															// Address format: 0XXXXXX0
 800041c:	79fb      	ldrb	r3, [r7, #7]
 800041e:	005b      	lsls	r3, r3, #1
 8000420:	b2db      	uxtb	r3, r3
 8000422:	f003 037e 	and.w	r3, r3, #126	; 0x7e
 8000426:	71fb      	strb	r3, [r7, #7]
  SPI1_WriteReg(addr, val);
 8000428:	79ba      	ldrb	r2, [r7, #6]
 800042a:	79fb      	ldrb	r3, [r7, #7]
 800042c:	4611      	mov	r1, r2
 800042e:	4618      	mov	r0, r3
 8000430:	f7ff ffac 	bl	800038c <SPI1_WriteReg>
}
 8000434:	bf00      	nop
 8000436:	3708      	adds	r7, #8
 8000438:	46bd      	mov	sp, r7
 800043a:	bd80      	pop	{r7, pc}

0800043c <MFRC522_ReadRegister>:

uint8_t MFRC522_ReadRegister(uint8_t addr) {
 800043c:	b580      	push	{r7, lr}
 800043e:	b084      	sub	sp, #16
 8000440:	af00      	add	r7, sp, #0
 8000442:	4603      	mov	r3, r0
 8000444:	71fb      	strb	r3, [r7, #7]
	uint8_t val;

	addr = ((addr << 1) & 0x7E) | 0x80;
 8000446:	79fb      	ldrb	r3, [r7, #7]
 8000448:	005b      	lsls	r3, r3, #1
 800044a:	b25b      	sxtb	r3, r3
 800044c:	f003 037e 	and.w	r3, r3, #126	; 0x7e
 8000450:	b25b      	sxtb	r3, r3
 8000452:	f063 037f 	orn	r3, r3, #127	; 0x7f
 8000456:	b25b      	sxtb	r3, r3
 8000458:	71fb      	strb	r3, [r7, #7]
	val = SPI1_ReadReg(addr);
 800045a:	79fb      	ldrb	r3, [r7, #7]
 800045c:	4618      	mov	r0, r3
 800045e:	f7ff ffb5 	bl	80003cc <SPI1_ReadReg>
 8000462:	4603      	mov	r3, r0
 8000464:	73fb      	strb	r3, [r7, #15]
	return val;
 8000466:	7bfb      	ldrb	r3, [r7, #15]
}
 8000468:	4618      	mov	r0, r3
 800046a:	3710      	adds	r7, #16
 800046c:	46bd      	mov	sp, r7
 800046e:	bd80      	pop	{r7, pc}

08000470 <MFRC522_SetBitMask>:
		if (CardID[i] != CompareID[i]) return MI_ERR;
	}
	return MI_OK;
}

void MFRC522_SetBitMask(uint8_t reg, uint8_t mask) {
 8000470:	b580      	push	{r7, lr}
 8000472:	b082      	sub	sp, #8
 8000474:	af00      	add	r7, sp, #0
 8000476:	4603      	mov	r3, r0
 8000478:	460a      	mov	r2, r1
 800047a:	71fb      	strb	r3, [r7, #7]
 800047c:	4613      	mov	r3, r2
 800047e:	71bb      	strb	r3, [r7, #6]
	MFRC522_WriteRegister(reg, MFRC522_ReadRegister(reg) | mask);
 8000480:	79fb      	ldrb	r3, [r7, #7]
 8000482:	4618      	mov	r0, r3
 8000484:	f7ff ffda 	bl	800043c <MFRC522_ReadRegister>
 8000488:	4603      	mov	r3, r0
 800048a:	461a      	mov	r2, r3
 800048c:	79bb      	ldrb	r3, [r7, #6]
 800048e:	4313      	orrs	r3, r2
 8000490:	b2da      	uxtb	r2, r3
 8000492:	79fb      	ldrb	r3, [r7, #7]
 8000494:	4611      	mov	r1, r2
 8000496:	4618      	mov	r0, r3
 8000498:	f7ff ffb8 	bl	800040c <MFRC522_WriteRegister>
}
 800049c:	bf00      	nop
 800049e:	3708      	adds	r7, #8
 80004a0:	46bd      	mov	sp, r7
 80004a2:	bd80      	pop	{r7, pc}

080004a4 <MFRC522_ClearBitMask>:

void MFRC522_ClearBitMask(uint8_t reg, uint8_t mask){
 80004a4:	b580      	push	{r7, lr}
 80004a6:	b082      	sub	sp, #8
 80004a8:	af00      	add	r7, sp, #0
 80004aa:	4603      	mov	r3, r0
 80004ac:	460a      	mov	r2, r1
 80004ae:	71fb      	strb	r3, [r7, #7]
 80004b0:	4613      	mov	r3, r2
 80004b2:	71bb      	strb	r3, [r7, #6]
	MFRC522_WriteRegister(reg, MFRC522_ReadRegister(reg) & (~mask));
 80004b4:	79fb      	ldrb	r3, [r7, #7]
 80004b6:	4618      	mov	r0, r3
 80004b8:	f7ff ffc0 	bl	800043c <MFRC522_ReadRegister>
 80004bc:	4603      	mov	r3, r0
 80004be:	b25a      	sxtb	r2, r3
 80004c0:	f997 3006 	ldrsb.w	r3, [r7, #6]
 80004c4:	43db      	mvns	r3, r3
 80004c6:	b25b      	sxtb	r3, r3
 80004c8:	4013      	ands	r3, r2
 80004ca:	b25b      	sxtb	r3, r3
 80004cc:	b2da      	uxtb	r2, r3
 80004ce:	79fb      	ldrb	r3, [r7, #7]
 80004d0:	4611      	mov	r1, r2
 80004d2:	4618      	mov	r0, r3
 80004d4:	f7ff ff9a 	bl	800040c <MFRC522_WriteRegister>
}
 80004d8:	bf00      	nop
 80004da:	3708      	adds	r7, #8
 80004dc:	46bd      	mov	sp, r7
 80004de:	bd80      	pop	{r7, pc}

080004e0 <MFRC522_Request>:

uint8_t MFRC522_Request(uint8_t reqMode, uint8_t* TagType) {
 80004e0:	b580      	push	{r7, lr}
 80004e2:	b086      	sub	sp, #24
 80004e4:	af02      	add	r7, sp, #8
 80004e6:	4603      	mov	r3, r0
 80004e8:	6039      	str	r1, [r7, #0]
 80004ea:	71fb      	strb	r3, [r7, #7]
	uint8_t status;
	uint16_t backBits;																			// The received data bits

	MFRC522_WriteRegister(MFRC522_REG_BIT_FRAMING, 0x07);		// TxLastBists = BitFramingReg[2..0]
 80004ec:	2107      	movs	r1, #7
 80004ee:	200d      	movs	r0, #13
 80004f0:	f7ff ff8c 	bl	800040c <MFRC522_WriteRegister>
	TagType[0] = reqMode;
 80004f4:	683b      	ldr	r3, [r7, #0]
 80004f6:	79fa      	ldrb	r2, [r7, #7]
 80004f8:	701a      	strb	r2, [r3, #0]
	status = MFRC522_ToCard(PCD_TRANSCEIVE, TagType, 1, TagType, &backBits);
 80004fa:	f107 030c 	add.w	r3, r7, #12
 80004fe:	9300      	str	r3, [sp, #0]
 8000500:	683b      	ldr	r3, [r7, #0]
 8000502:	2201      	movs	r2, #1
 8000504:	6839      	ldr	r1, [r7, #0]
 8000506:	200c      	movs	r0, #12
 8000508:	f000 f80f 	bl	800052a <MFRC522_ToCard>
 800050c:	4603      	mov	r3, r0
 800050e:	73fb      	strb	r3, [r7, #15]
	if ((status != MI_OK) || (backBits != 0x10)) status = MI_ERR;
 8000510:	7bfb      	ldrb	r3, [r7, #15]
 8000512:	2b00      	cmp	r3, #0
 8000514:	d102      	bne.n	800051c <MFRC522_Request+0x3c>
 8000516:	89bb      	ldrh	r3, [r7, #12]
 8000518:	2b10      	cmp	r3, #16
 800051a:	d001      	beq.n	8000520 <MFRC522_Request+0x40>
 800051c:	2302      	movs	r3, #2
 800051e:	73fb      	strb	r3, [r7, #15]
	return status;
 8000520:	7bfb      	ldrb	r3, [r7, #15]
}
 8000522:	4618      	mov	r0, r3
 8000524:	3710      	adds	r7, #16
 8000526:	46bd      	mov	sp, r7
 8000528:	bd80      	pop	{r7, pc}

0800052a <MFRC522_ToCard>:

uint8_t MFRC522_ToCard(uint8_t command, uint8_t* sendData, uint8_t sendLen, uint8_t* backData, uint16_t* backLen) {
 800052a:	b590      	push	{r4, r7, lr}
 800052c:	b087      	sub	sp, #28
 800052e:	af00      	add	r7, sp, #0
 8000530:	60b9      	str	r1, [r7, #8]
 8000532:	607b      	str	r3, [r7, #4]
 8000534:	4603      	mov	r3, r0
 8000536:	73fb      	strb	r3, [r7, #15]
 8000538:	4613      	mov	r3, r2
 800053a:	73bb      	strb	r3, [r7, #14]
	uint8_t status = MI_ERR;
 800053c:	2302      	movs	r3, #2
 800053e:	75fb      	strb	r3, [r7, #23]
	uint8_t irqEn = 0x00;
 8000540:	2300      	movs	r3, #0
 8000542:	75bb      	strb	r3, [r7, #22]
	uint8_t waitIRq = 0x00;
 8000544:	2300      	movs	r3, #0
 8000546:	757b      	strb	r3, [r7, #21]
	uint8_t lastBits;
	uint8_t n;
	uint16_t i;

	switch (command) {
 8000548:	7bfb      	ldrb	r3, [r7, #15]
 800054a:	2b0c      	cmp	r3, #12
 800054c:	d006      	beq.n	800055c <MFRC522_ToCard+0x32>
 800054e:	2b0e      	cmp	r3, #14
 8000550:	d109      	bne.n	8000566 <MFRC522_ToCard+0x3c>
		case PCD_AUTHENT: {
			irqEn = 0x12;
 8000552:	2312      	movs	r3, #18
 8000554:	75bb      	strb	r3, [r7, #22]
			waitIRq = 0x10;
 8000556:	2310      	movs	r3, #16
 8000558:	757b      	strb	r3, [r7, #21]
			break;
 800055a:	e005      	b.n	8000568 <MFRC522_ToCard+0x3e>
		}
		case PCD_TRANSCEIVE: {
			irqEn = 0x77;
 800055c:	2377      	movs	r3, #119	; 0x77
 800055e:	75bb      	strb	r3, [r7, #22]
			waitIRq = 0x30;
 8000560:	2330      	movs	r3, #48	; 0x30
 8000562:	757b      	strb	r3, [r7, #21]
			break;
 8000564:	e000      	b.n	8000568 <MFRC522_ToCard+0x3e>
		}
		default:
		break;
 8000566:	bf00      	nop
	}

	MFRC522_WriteRegister(MFRC522_REG_COMM_IE_N, irqEn | 0x80);
 8000568:	7dbb      	ldrb	r3, [r7, #22]
 800056a:	f063 037f 	orn	r3, r3, #127	; 0x7f
 800056e:	b2db      	uxtb	r3, r3
 8000570:	4619      	mov	r1, r3
 8000572:	2002      	movs	r0, #2
 8000574:	f7ff ff4a 	bl	800040c <MFRC522_WriteRegister>
	MFRC522_ClearBitMask(MFRC522_REG_COMM_IRQ, 0x80);
 8000578:	2180      	movs	r1, #128	; 0x80
 800057a:	2004      	movs	r0, #4
 800057c:	f7ff ff92 	bl	80004a4 <MFRC522_ClearBitMask>
	MFRC522_SetBitMask(MFRC522_REG_FIFO_LEVEL, 0x80);
 8000580:	2180      	movs	r1, #128	; 0x80
 8000582:	200a      	movs	r0, #10
 8000584:	f7ff ff74 	bl	8000470 <MFRC522_SetBitMask>
	MFRC522_WriteRegister(MFRC522_REG_COMMAND, PCD_IDLE);
 8000588:	2100      	movs	r1, #0
 800058a:	2001      	movs	r0, #1
 800058c:	f7ff ff3e 	bl	800040c <MFRC522_WriteRegister>

	// Writing data to the FIFO
	for (i = 0; i < sendLen; i++) MFRC522_WriteRegister(MFRC522_REG_FIFO_DATA, sendData[i]);
 8000590:	2300      	movs	r3, #0
 8000592:	827b      	strh	r3, [r7, #18]
 8000594:	e00a      	b.n	80005ac <MFRC522_ToCard+0x82>
 8000596:	8a7b      	ldrh	r3, [r7, #18]
 8000598:	68ba      	ldr	r2, [r7, #8]
 800059a:	4413      	add	r3, r2
 800059c:	781b      	ldrb	r3, [r3, #0]
 800059e:	4619      	mov	r1, r3
 80005a0:	2009      	movs	r0, #9
 80005a2:	f7ff ff33 	bl	800040c <MFRC522_WriteRegister>
 80005a6:	8a7b      	ldrh	r3, [r7, #18]
 80005a8:	3301      	adds	r3, #1
 80005aa:	827b      	strh	r3, [r7, #18]
 80005ac:	7bbb      	ldrb	r3, [r7, #14]
 80005ae:	b29b      	uxth	r3, r3
 80005b0:	8a7a      	ldrh	r2, [r7, #18]
 80005b2:	429a      	cmp	r2, r3
 80005b4:	d3ef      	bcc.n	8000596 <MFRC522_ToCard+0x6c>

	// Execute the command
	MFRC522_WriteRegister(MFRC522_REG_COMMAND, command);
 80005b6:	7bfb      	ldrb	r3, [r7, #15]
 80005b8:	4619      	mov	r1, r3
 80005ba:	2001      	movs	r0, #1
 80005bc:	f7ff ff26 	bl	800040c <MFRC522_WriteRegister>
	if (command == PCD_TRANSCEIVE) MFRC522_SetBitMask(MFRC522_REG_BIT_FRAMING, 0x80);		// StartSend=1,transmission of data starts
 80005c0:	7bfb      	ldrb	r3, [r7, #15]
 80005c2:	2b0c      	cmp	r3, #12
 80005c4:	d103      	bne.n	80005ce <MFRC522_ToCard+0xa4>
 80005c6:	2180      	movs	r1, #128	; 0x80
 80005c8:	200d      	movs	r0, #13
 80005ca:	f7ff ff51 	bl	8000470 <MFRC522_SetBitMask>

	// Waiting to receive data to complete
	i = 2000;	// i according to the clock frequency adjustment, the operator M1 card maximum waiting time 25ms
 80005ce:	f44f 63fa 	mov.w	r3, #2000	; 0x7d0
 80005d2:	827b      	strh	r3, [r7, #18]
	do {
		// CommIrqReg[7..0]
		// Set1 TxIRq RxIRq IdleIRq HiAlerIRq LoAlertIRq ErrIRq TimerIRq
		n = MFRC522_ReadRegister(MFRC522_REG_COMM_IRQ);
 80005d4:	2004      	movs	r0, #4
 80005d6:	f7ff ff31 	bl	800043c <MFRC522_ReadRegister>
 80005da:	4603      	mov	r3, r0
 80005dc:	753b      	strb	r3, [r7, #20]
		i--;
 80005de:	8a7b      	ldrh	r3, [r7, #18]
 80005e0:	3b01      	subs	r3, #1
 80005e2:	827b      	strh	r3, [r7, #18]
	} while ((i!=0) && !(n&0x01) && !(n&waitIRq));
 80005e4:	8a7b      	ldrh	r3, [r7, #18]
 80005e6:	2b00      	cmp	r3, #0
 80005e8:	d00a      	beq.n	8000600 <MFRC522_ToCard+0xd6>
 80005ea:	7d3b      	ldrb	r3, [r7, #20]
 80005ec:	f003 0301 	and.w	r3, r3, #1
 80005f0:	2b00      	cmp	r3, #0
 80005f2:	d105      	bne.n	8000600 <MFRC522_ToCard+0xd6>
 80005f4:	7d3a      	ldrb	r2, [r7, #20]
 80005f6:	7d7b      	ldrb	r3, [r7, #21]
 80005f8:	4013      	ands	r3, r2
 80005fa:	b2db      	uxtb	r3, r3
 80005fc:	2b00      	cmp	r3, #0
 80005fe:	d0e9      	beq.n	80005d4 <MFRC522_ToCard+0xaa>

	MFRC522_ClearBitMask(MFRC522_REG_BIT_FRAMING, 0x80);																// StartSend=0
 8000600:	2180      	movs	r1, #128	; 0x80
 8000602:	200d      	movs	r0, #13
 8000604:	f7ff ff4e 	bl	80004a4 <MFRC522_ClearBitMask>

	if (i != 0)  {
 8000608:	8a7b      	ldrh	r3, [r7, #18]
 800060a:	2b00      	cmp	r3, #0
 800060c:	d057      	beq.n	80006be <MFRC522_ToCard+0x194>
		if (!(MFRC522_ReadRegister(MFRC522_REG_ERROR) & 0x1B)) {
 800060e:	2006      	movs	r0, #6
 8000610:	f7ff ff14 	bl	800043c <MFRC522_ReadRegister>
 8000614:	4603      	mov	r3, r0
 8000616:	f003 031b 	and.w	r3, r3, #27
 800061a:	2b00      	cmp	r3, #0
 800061c:	d14d      	bne.n	80006ba <MFRC522_ToCard+0x190>
			status = MI_OK;
 800061e:	2300      	movs	r3, #0
 8000620:	75fb      	strb	r3, [r7, #23]
			if (n & irqEn & 0x01) status = MI_NOTAGERR;
 8000622:	7d3a      	ldrb	r2, [r7, #20]
 8000624:	7dbb      	ldrb	r3, [r7, #22]
 8000626:	4013      	ands	r3, r2
 8000628:	b2db      	uxtb	r3, r3
 800062a:	f003 0301 	and.w	r3, r3, #1
 800062e:	2b00      	cmp	r3, #0
 8000630:	d001      	beq.n	8000636 <MFRC522_ToCard+0x10c>
 8000632:	2301      	movs	r3, #1
 8000634:	75fb      	strb	r3, [r7, #23]
			if (command == PCD_TRANSCEIVE) {
 8000636:	7bfb      	ldrb	r3, [r7, #15]
 8000638:	2b0c      	cmp	r3, #12
 800063a:	d140      	bne.n	80006be <MFRC522_ToCard+0x194>
				n = MFRC522_ReadRegister(MFRC522_REG_FIFO_LEVEL);
 800063c:	200a      	movs	r0, #10
 800063e:	f7ff fefd 	bl	800043c <MFRC522_ReadRegister>
 8000642:	4603      	mov	r3, r0
 8000644:	753b      	strb	r3, [r7, #20]
				lastBits = MFRC522_ReadRegister(MFRC522_REG_CONTROL) & 0x07;
 8000646:	200c      	movs	r0, #12
 8000648:	f7ff fef8 	bl	800043c <MFRC522_ReadRegister>
 800064c:	4603      	mov	r3, r0
 800064e:	f003 0307 	and.w	r3, r3, #7
 8000652:	747b      	strb	r3, [r7, #17]
				if (lastBits) *backLen = (n-1)*8+lastBits; else *backLen = n*8;
 8000654:	7c7b      	ldrb	r3, [r7, #17]
 8000656:	2b00      	cmp	r3, #0
 8000658:	d00b      	beq.n	8000672 <MFRC522_ToCard+0x148>
 800065a:	7d3b      	ldrb	r3, [r7, #20]
 800065c:	3b01      	subs	r3, #1
 800065e:	b29b      	uxth	r3, r3
 8000660:	00db      	lsls	r3, r3, #3
 8000662:	b29a      	uxth	r2, r3
 8000664:	7c7b      	ldrb	r3, [r7, #17]
 8000666:	b29b      	uxth	r3, r3
 8000668:	4413      	add	r3, r2
 800066a:	b29a      	uxth	r2, r3
 800066c:	6abb      	ldr	r3, [r7, #40]	; 0x28
 800066e:	801a      	strh	r2, [r3, #0]
 8000670:	e005      	b.n	800067e <MFRC522_ToCard+0x154>
 8000672:	7d3b      	ldrb	r3, [r7, #20]
 8000674:	b29b      	uxth	r3, r3
 8000676:	00db      	lsls	r3, r3, #3
 8000678:	b29a      	uxth	r2, r3
 800067a:	6abb      	ldr	r3, [r7, #40]	; 0x28
 800067c:	801a      	strh	r2, [r3, #0]
				if (n == 0) n = 1;
 800067e:	7d3b      	ldrb	r3, [r7, #20]
 8000680:	2b00      	cmp	r3, #0
 8000682:	d101      	bne.n	8000688 <MFRC522_ToCard+0x15e>
 8000684:	2301      	movs	r3, #1
 8000686:	753b      	strb	r3, [r7, #20]
				if (n > MFRC522_MAX_LEN) n = MFRC522_MAX_LEN;
 8000688:	7d3b      	ldrb	r3, [r7, #20]
 800068a:	2b10      	cmp	r3, #16
 800068c:	d901      	bls.n	8000692 <MFRC522_ToCard+0x168>
 800068e:	2310      	movs	r3, #16
 8000690:	753b      	strb	r3, [r7, #20]
				for (i = 0; i < n; i++) backData[i] = MFRC522_ReadRegister(MFRC522_REG_FIFO_DATA);		// Reading the received data in FIFO
 8000692:	2300      	movs	r3, #0
 8000694:	827b      	strh	r3, [r7, #18]
 8000696:	e00a      	b.n	80006ae <MFRC522_ToCard+0x184>
 8000698:	8a7b      	ldrh	r3, [r7, #18]
 800069a:	687a      	ldr	r2, [r7, #4]
 800069c:	18d4      	adds	r4, r2, r3
 800069e:	2009      	movs	r0, #9
 80006a0:	f7ff fecc 	bl	800043c <MFRC522_ReadRegister>
 80006a4:	4603      	mov	r3, r0
 80006a6:	7023      	strb	r3, [r4, #0]
 80006a8:	8a7b      	ldrh	r3, [r7, #18]
 80006aa:	3301      	adds	r3, #1
 80006ac:	827b      	strh	r3, [r7, #18]
 80006ae:	7d3b      	ldrb	r3, [r7, #20]
 80006b0:	b29b      	uxth	r3, r3
 80006b2:	8a7a      	ldrh	r2, [r7, #18]
 80006b4:	429a      	cmp	r2, r3
 80006b6:	d3ef      	bcc.n	8000698 <MFRC522_ToCard+0x16e>
 80006b8:	e001      	b.n	80006be <MFRC522_ToCard+0x194>
			}
		} else status = MI_ERR;
 80006ba:	2302      	movs	r3, #2
 80006bc:	75fb      	strb	r3, [r7, #23]
	}
	return status;
 80006be:	7dfb      	ldrb	r3, [r7, #23]
}
 80006c0:	4618      	mov	r0, r3
 80006c2:	371c      	adds	r7, #28
 80006c4:	46bd      	mov	sp, r7
 80006c6:	bd90      	pop	{r4, r7, pc}

080006c8 <MFRC522_Anticoll>:

uint8_t MFRC522_Anticoll(uint8_t* serNum) {
 80006c8:	b580      	push	{r7, lr}
 80006ca:	b086      	sub	sp, #24
 80006cc:	af02      	add	r7, sp, #8
 80006ce:	6078      	str	r0, [r7, #4]
	uint8_t status;
	uint8_t i;
	uint8_t serNumCheck = 0;
 80006d0:	2300      	movs	r3, #0
 80006d2:	737b      	strb	r3, [r7, #13]
	uint16_t unLen;

	MFRC522_WriteRegister(MFRC522_REG_BIT_FRAMING, 0x00);												// TxLastBists = BitFramingReg[2..0]
 80006d4:	2100      	movs	r1, #0
 80006d6:	200d      	movs	r0, #13
 80006d8:	f7ff fe98 	bl	800040c <MFRC522_WriteRegister>
	serNum[0] = PICC_ANTICOLL;
 80006dc:	687b      	ldr	r3, [r7, #4]
 80006de:	2293      	movs	r2, #147	; 0x93
 80006e0:	701a      	strb	r2, [r3, #0]
	serNum[1] = 0x20;
 80006e2:	687b      	ldr	r3, [r7, #4]
 80006e4:	3301      	adds	r3, #1
 80006e6:	2220      	movs	r2, #32
 80006e8:	701a      	strb	r2, [r3, #0]
	status = MFRC522_ToCard(PCD_TRANSCEIVE, serNum, 2, serNum, &unLen);
 80006ea:	f107 030a 	add.w	r3, r7, #10
 80006ee:	9300      	str	r3, [sp, #0]
 80006f0:	687b      	ldr	r3, [r7, #4]
 80006f2:	2202      	movs	r2, #2
 80006f4:	6879      	ldr	r1, [r7, #4]
 80006f6:	200c      	movs	r0, #12
 80006f8:	f7ff ff17 	bl	800052a <MFRC522_ToCard>
 80006fc:	4603      	mov	r3, r0
 80006fe:	73fb      	strb	r3, [r7, #15]
	if (status == MI_OK) {
 8000700:	7bfb      	ldrb	r3, [r7, #15]
 8000702:	2b00      	cmp	r3, #0
 8000704:	d118      	bne.n	8000738 <MFRC522_Anticoll+0x70>
		// Check card serial number
		for (i = 0; i < 4; i++) serNumCheck ^= serNum[i];
 8000706:	2300      	movs	r3, #0
 8000708:	73bb      	strb	r3, [r7, #14]
 800070a:	e009      	b.n	8000720 <MFRC522_Anticoll+0x58>
 800070c:	7bbb      	ldrb	r3, [r7, #14]
 800070e:	687a      	ldr	r2, [r7, #4]
 8000710:	4413      	add	r3, r2
 8000712:	781a      	ldrb	r2, [r3, #0]
 8000714:	7b7b      	ldrb	r3, [r7, #13]
 8000716:	4053      	eors	r3, r2
 8000718:	737b      	strb	r3, [r7, #13]
 800071a:	7bbb      	ldrb	r3, [r7, #14]
 800071c:	3301      	adds	r3, #1
 800071e:	73bb      	strb	r3, [r7, #14]
 8000720:	7bbb      	ldrb	r3, [r7, #14]
 8000722:	2b03      	cmp	r3, #3
 8000724:	d9f2      	bls.n	800070c <MFRC522_Anticoll+0x44>
		if (serNumCheck != serNum[i]) status = MI_ERR;
 8000726:	7bbb      	ldrb	r3, [r7, #14]
 8000728:	687a      	ldr	r2, [r7, #4]
 800072a:	4413      	add	r3, r2
 800072c:	781b      	ldrb	r3, [r3, #0]
 800072e:	7b7a      	ldrb	r2, [r7, #13]
 8000730:	429a      	cmp	r2, r3
 8000732:	d001      	beq.n	8000738 <MFRC522_Anticoll+0x70>
 8000734:	2302      	movs	r3, #2
 8000736:	73fb      	strb	r3, [r7, #15]
	}
	return status;
 8000738:	7bfb      	ldrb	r3, [r7, #15]
}
 800073a:	4618      	mov	r0, r3
 800073c:	3710      	adds	r7, #16
 800073e:	46bd      	mov	sp, r7
 8000740:	bd80      	pop	{r7, pc}

08000742 <MFRC522_CalculateCRC>:

void MFRC522_CalculateCRC(uint8_t*  pIndata, uint8_t len, uint8_t* pOutData) {
 8000742:	b590      	push	{r4, r7, lr}
 8000744:	b087      	sub	sp, #28
 8000746:	af00      	add	r7, sp, #0
 8000748:	60f8      	str	r0, [r7, #12]
 800074a:	460b      	mov	r3, r1
 800074c:	607a      	str	r2, [r7, #4]
 800074e:	72fb      	strb	r3, [r7, #11]
	uint8_t i, n;

	MFRC522_ClearBitMask(MFRC522_REG_DIV_IRQ, 0x04);													// CRCIrq = 0
 8000750:	2104      	movs	r1, #4
 8000752:	2005      	movs	r0, #5
 8000754:	f7ff fea6 	bl	80004a4 <MFRC522_ClearBitMask>
	MFRC522_SetBitMask(MFRC522_REG_FIFO_LEVEL, 0x80);													// Clear the FIFO pointer
 8000758:	2180      	movs	r1, #128	; 0x80
 800075a:	200a      	movs	r0, #10
 800075c:	f7ff fe88 	bl	8000470 <MFRC522_SetBitMask>
	// Write_MFRC522(CommandReg, PCD_IDLE);

	// Writing data to the FIFO
	for (i = 0; i < len; i++) MFRC522_WriteRegister(MFRC522_REG_FIFO_DATA, *(pIndata+i));
 8000760:	2300      	movs	r3, #0
 8000762:	75fb      	strb	r3, [r7, #23]
 8000764:	e00a      	b.n	800077c <MFRC522_CalculateCRC+0x3a>
 8000766:	7dfb      	ldrb	r3, [r7, #23]
 8000768:	68fa      	ldr	r2, [r7, #12]
 800076a:	4413      	add	r3, r2
 800076c:	781b      	ldrb	r3, [r3, #0]
 800076e:	4619      	mov	r1, r3
 8000770:	2009      	movs	r0, #9
 8000772:	f7ff fe4b 	bl	800040c <MFRC522_WriteRegister>
 8000776:	7dfb      	ldrb	r3, [r7, #23]
 8000778:	3301      	adds	r3, #1
 800077a:	75fb      	strb	r3, [r7, #23]
 800077c:	7dfa      	ldrb	r2, [r7, #23]
 800077e:	7afb      	ldrb	r3, [r7, #11]
 8000780:	429a      	cmp	r2, r3
 8000782:	d3f0      	bcc.n	8000766 <MFRC522_CalculateCRC+0x24>
	MFRC522_WriteRegister(MFRC522_REG_COMMAND, PCD_CALCCRC);
 8000784:	2103      	movs	r1, #3
 8000786:	2001      	movs	r0, #1
 8000788:	f7ff fe40 	bl	800040c <MFRC522_WriteRegister>

	// Wait CRC calculation is complete
	i = 0xFF;
 800078c:	23ff      	movs	r3, #255	; 0xff
 800078e:	75fb      	strb	r3, [r7, #23]
	do {
		n = MFRC522_ReadRegister(MFRC522_REG_DIV_IRQ);
 8000790:	2005      	movs	r0, #5
 8000792:	f7ff fe53 	bl	800043c <MFRC522_ReadRegister>
 8000796:	4603      	mov	r3, r0
 8000798:	75bb      	strb	r3, [r7, #22]
		i--;
 800079a:	7dfb      	ldrb	r3, [r7, #23]
 800079c:	3b01      	subs	r3, #1
 800079e:	75fb      	strb	r3, [r7, #23]
	} while ((i!=0) && !(n&0x04));																						// CRCIrq = 1
 80007a0:	7dfb      	ldrb	r3, [r7, #23]
 80007a2:	2b00      	cmp	r3, #0
 80007a4:	d004      	beq.n	80007b0 <MFRC522_CalculateCRC+0x6e>
 80007a6:	7dbb      	ldrb	r3, [r7, #22]
 80007a8:	f003 0304 	and.w	r3, r3, #4
 80007ac:	2b00      	cmp	r3, #0
 80007ae:	d0ef      	beq.n	8000790 <MFRC522_CalculateCRC+0x4e>

	// Read CRC calculation result
	pOutData[0] = MFRC522_ReadRegister(MFRC522_REG_CRC_RESULT_L);
 80007b0:	2022      	movs	r0, #34	; 0x22
 80007b2:	f7ff fe43 	bl	800043c <MFRC522_ReadRegister>
 80007b6:	4603      	mov	r3, r0
 80007b8:	461a      	mov	r2, r3
 80007ba:	687b      	ldr	r3, [r7, #4]
 80007bc:	701a      	strb	r2, [r3, #0]
	pOutData[1] = MFRC522_ReadRegister(MFRC522_REG_CRC_RESULT_M);
 80007be:	687b      	ldr	r3, [r7, #4]
 80007c0:	1c5c      	adds	r4, r3, #1
 80007c2:	2021      	movs	r0, #33	; 0x21
 80007c4:	f7ff fe3a 	bl	800043c <MFRC522_ReadRegister>
 80007c8:	4603      	mov	r3, r0
 80007ca:	7023      	strb	r3, [r4, #0]
}
 80007cc:	bf00      	nop
 80007ce:	371c      	adds	r7, #28
 80007d0:	46bd      	mov	sp, r7
 80007d2:	bd90      	pop	{r4, r7, pc}

080007d4 <MFRC522_Init>:
		if ((status != MI_OK) || (recvBits != 4) || ((buff[0] & 0x0F) != 0x0A)) status = MI_ERR;
	}
	return status;
}

void MFRC522_Init(void) {
 80007d4:	b580      	push	{r7, lr}
 80007d6:	af00      	add	r7, sp, #0
	MFRC522_Reset();
 80007d8:	f000 f820 	bl	800081c <MFRC522_Reset>
	MFRC522_WriteRegister(MFRC522_REG_T_MODE, 0x8D);
 80007dc:	218d      	movs	r1, #141	; 0x8d
 80007de:	202a      	movs	r0, #42	; 0x2a
 80007e0:	f7ff fe14 	bl	800040c <MFRC522_WriteRegister>
	MFRC522_WriteRegister(MFRC522_REG_T_PRESCALER, 0x3E);
 80007e4:	213e      	movs	r1, #62	; 0x3e
 80007e6:	202b      	movs	r0, #43	; 0x2b
 80007e8:	f7ff fe10 	bl	800040c <MFRC522_WriteRegister>
	MFRC522_WriteRegister(MFRC522_REG_T_RELOAD_L, 30);
 80007ec:	211e      	movs	r1, #30
 80007ee:	202d      	movs	r0, #45	; 0x2d
 80007f0:	f7ff fe0c 	bl	800040c <MFRC522_WriteRegister>
	MFRC522_WriteRegister(MFRC522_REG_T_RELOAD_H, 0);
 80007f4:	2100      	movs	r1, #0
 80007f6:	202c      	movs	r0, #44	; 0x2c
 80007f8:	f7ff fe08 	bl	800040c <MFRC522_WriteRegister>
	MFRC522_WriteRegister(MFRC522_REG_RF_CFG, 0x70);				// 48dB gain
 80007fc:	2170      	movs	r1, #112	; 0x70
 80007fe:	2026      	movs	r0, #38	; 0x26
 8000800:	f7ff fe04 	bl	800040c <MFRC522_WriteRegister>
	MFRC522_WriteRegister(MFRC522_REG_TX_AUTO, 0x40);
 8000804:	2140      	movs	r1, #64	; 0x40
 8000806:	2015      	movs	r0, #21
 8000808:	f7ff fe00 	bl	800040c <MFRC522_WriteRegister>
	MFRC522_WriteRegister(MFRC522_REG_MODE, 0x3D);
 800080c:	213d      	movs	r1, #61	; 0x3d
 800080e:	2011      	movs	r0, #17
 8000810:	f7ff fdfc 	bl	800040c <MFRC522_WriteRegister>
	MFRC522_AntennaOn();																		// Open the antenna
 8000814:	f000 f80a 	bl	800082c <MFRC522_AntennaOn>
}
 8000818:	bf00      	nop
 800081a:	bd80      	pop	{r7, pc}

0800081c <MFRC522_Reset>:

void MFRC522_Reset(void) {
 800081c:	b580      	push	{r7, lr}
 800081e:	af00      	add	r7, sp, #0
	MFRC522_WriteRegister(MFRC522_REG_COMMAND, PCD_RESETPHASE);
 8000820:	210f      	movs	r1, #15
 8000822:	2001      	movs	r0, #1
 8000824:	f7ff fdf2 	bl	800040c <MFRC522_WriteRegister>
}
 8000828:	bf00      	nop
 800082a:	bd80      	pop	{r7, pc}

0800082c <MFRC522_AntennaOn>:

void MFRC522_AntennaOn(void) {
 800082c:	b580      	push	{r7, lr}
 800082e:	b082      	sub	sp, #8
 8000830:	af00      	add	r7, sp, #0
	uint8_t temp;

	temp = MFRC522_ReadRegister(MFRC522_REG_TX_CONTROL);
 8000832:	2014      	movs	r0, #20
 8000834:	f7ff fe02 	bl	800043c <MFRC522_ReadRegister>
 8000838:	4603      	mov	r3, r0
 800083a:	71fb      	strb	r3, [r7, #7]
	if (!(temp & 0x03)) MFRC522_SetBitMask(MFRC522_REG_TX_CONTROL, 0x03);
 800083c:	79fb      	ldrb	r3, [r7, #7]
 800083e:	f003 0303 	and.w	r3, r3, #3
 8000842:	2b00      	cmp	r3, #0
 8000844:	d103      	bne.n	800084e <MFRC522_AntennaOn+0x22>
 8000846:	2103      	movs	r1, #3
 8000848:	2014      	movs	r0, #20
 800084a:	f7ff fe11 	bl	8000470 <MFRC522_SetBitMask>
}
 800084e:	bf00      	nop
 8000850:	3708      	adds	r7, #8
 8000852:	46bd      	mov	sp, r7
 8000854:	bd80      	pop	{r7, pc}

08000856 <MFRC522_Halt>:

void MFRC522_AntennaOff(void) {
	MFRC522_ClearBitMask(MFRC522_REG_TX_CONTROL, 0x03);
}

void MFRC522_Halt(void) {
 8000856:	b580      	push	{r7, lr}
 8000858:	b084      	sub	sp, #16
 800085a:	af02      	add	r7, sp, #8
	uint16_t unLen;
	uint8_t buff[4];

	buff[0] = PICC_HALT;
 800085c:	2350      	movs	r3, #80	; 0x50
 800085e:	703b      	strb	r3, [r7, #0]
	buff[1] = 0;
 8000860:	2300      	movs	r3, #0
 8000862:	707b      	strb	r3, [r7, #1]
	MFRC522_CalculateCRC(buff, 2, &buff[2]);
 8000864:	463b      	mov	r3, r7
 8000866:	1c9a      	adds	r2, r3, #2
 8000868:	463b      	mov	r3, r7
 800086a:	2102      	movs	r1, #2
 800086c:	4618      	mov	r0, r3
 800086e:	f7ff ff68 	bl	8000742 <MFRC522_CalculateCRC>
	MFRC522_ToCard(PCD_TRANSCEIVE, buff, 4, buff, &unLen);
 8000872:	463a      	mov	r2, r7
 8000874:	4639      	mov	r1, r7
 8000876:	1dbb      	adds	r3, r7, #6
 8000878:	9300      	str	r3, [sp, #0]
 800087a:	4613      	mov	r3, r2
 800087c:	2204      	movs	r2, #4
 800087e:	200c      	movs	r0, #12
 8000880:	f7ff fe53 	bl	800052a <MFRC522_ToCard>
}
 8000884:	bf00      	nop
 8000886:	3708      	adds	r7, #8
 8000888:	46bd      	mov	sp, r7
 800088a:	bd80      	pop	{r7, pc}

0800088c <MX_SPI1_Init>:

SPI_HandleTypeDef hspi1;

/* SPI1 init function */
void MX_SPI1_Init(void)
{
 800088c:	b580      	push	{r7, lr}
 800088e:	af00      	add	r7, sp, #0
  /* USER CODE END SPI1_Init 0 */

  /* USER CODE BEGIN SPI1_Init 1 */

  /* USER CODE END SPI1_Init 1 */
  hspi1.Instance = SPI1;
 8000890:	4b17      	ldr	r3, [pc, #92]	; (80008f0 <MX_SPI1_Init+0x64>)
 8000892:	4a18      	ldr	r2, [pc, #96]	; (80008f4 <MX_SPI1_Init+0x68>)
 8000894:	601a      	str	r2, [r3, #0]
  hspi1.Init.Mode = SPI_MODE_MASTER;
 8000896:	4b16      	ldr	r3, [pc, #88]	; (80008f0 <MX_SPI1_Init+0x64>)
 8000898:	f44f 7282 	mov.w	r2, #260	; 0x104
 800089c:	605a      	str	r2, [r3, #4]
  hspi1.Init.Direction = SPI_DIRECTION_2LINES;
 800089e:	4b14      	ldr	r3, [pc, #80]	; (80008f0 <MX_SPI1_Init+0x64>)
 80008a0:	2200      	movs	r2, #0
 80008a2:	609a      	str	r2, [r3, #8]
  hspi1.Init.DataSize = SPI_DATASIZE_8BIT;
 80008a4:	4b12      	ldr	r3, [pc, #72]	; (80008f0 <MX_SPI1_Init+0x64>)
 80008a6:	2200      	movs	r2, #0
 80008a8:	60da      	str	r2, [r3, #12]
  hspi1.Init.CLKPolarity = SPI_POLARITY_LOW;
 80008aa:	4b11      	ldr	r3, [pc, #68]	; (80008f0 <MX_SPI1_Init+0x64>)
 80008ac:	2200      	movs	r2, #0
 80008ae:	611a      	str	r2, [r3, #16]
  hspi1.Init.CLKPhase = SPI_PHASE_1EDGE;
 80008b0:	4b0f      	ldr	r3, [pc, #60]	; (80008f0 <MX_SPI1_Init+0x64>)
 80008b2:	2200      	movs	r2, #0
 80008b4:	615a      	str	r2, [r3, #20]
  hspi1.Init.NSS = SPI_NSS_SOFT;
 80008b6:	4b0e      	ldr	r3, [pc, #56]	; (80008f0 <MX_SPI1_Init+0x64>)
 80008b8:	f44f 7200 	mov.w	r2, #512	; 0x200
 80008bc:	619a      	str	r2, [r3, #24]
  hspi1.Init.BaudRatePrescaler = SPI_BAUDRATEPRESCALER_4;
 80008be:	4b0c      	ldr	r3, [pc, #48]	; (80008f0 <MX_SPI1_Init+0x64>)
 80008c0:	2208      	movs	r2, #8
 80008c2:	61da      	str	r2, [r3, #28]
  hspi1.Init.FirstBit = SPI_FIRSTBIT_MSB;
 80008c4:	4b0a      	ldr	r3, [pc, #40]	; (80008f0 <MX_SPI1_Init+0x64>)
 80008c6:	2200      	movs	r2, #0
 80008c8:	621a      	str	r2, [r3, #32]
  hspi1.Init.TIMode = SPI_TIMODE_DISABLE;
 80008ca:	4b09      	ldr	r3, [pc, #36]	; (80008f0 <MX_SPI1_Init+0x64>)
 80008cc:	2200      	movs	r2, #0
 80008ce:	625a      	str	r2, [r3, #36]	; 0x24
  hspi1.Init.CRCCalculation = SPI_CRCCALCULATION_DISABLE;
 80008d0:	4b07      	ldr	r3, [pc, #28]	; (80008f0 <MX_SPI1_Init+0x64>)
 80008d2:	2200      	movs	r2, #0
 80008d4:	629a      	str	r2, [r3, #40]	; 0x28
  hspi1.Init.CRCPolynomial = 10;
 80008d6:	4b06      	ldr	r3, [pc, #24]	; (80008f0 <MX_SPI1_Init+0x64>)
 80008d8:	220a      	movs	r2, #10
 80008da:	62da      	str	r2, [r3, #44]	; 0x2c
  if (HAL_SPI_Init(&hspi1) != HAL_OK)
 80008dc:	4804      	ldr	r0, [pc, #16]	; (80008f0 <MX_SPI1_Init+0x64>)
 80008de:	f001 fa21 	bl	8001d24 <HAL_SPI_Init>
 80008e2:	4603      	mov	r3, r0
 80008e4:	2b00      	cmp	r3, #0
 80008e6:	d001      	beq.n	80008ec <MX_SPI1_Init+0x60>
  {
    Error_Handler();
 80008e8:	f7ff fd33 	bl	8000352 <Error_Handler>
  }
  /* USER CODE BEGIN SPI1_Init 2 */

  /* USER CODE END SPI1_Init 2 */

}
 80008ec:	bf00      	nop
 80008ee:	bd80      	pop	{r7, pc}
 80008f0:	200000f4 	.word	0x200000f4
 80008f4:	40013000 	.word	0x40013000

080008f8 <HAL_SPI_MspInit>:

void HAL_SPI_MspInit(SPI_HandleTypeDef* spiHandle)
{
 80008f8:	b580      	push	{r7, lr}
 80008fa:	b088      	sub	sp, #32
 80008fc:	af00      	add	r7, sp, #0
 80008fe:	6078      	str	r0, [r7, #4]

  GPIO_InitTypeDef GPIO_InitStruct = {0};
 8000900:	f107 0310 	add.w	r3, r7, #16
 8000904:	2200      	movs	r2, #0
 8000906:	601a      	str	r2, [r3, #0]
 8000908:	605a      	str	r2, [r3, #4]
 800090a:	609a      	str	r2, [r3, #8]
 800090c:	60da      	str	r2, [r3, #12]
  if(spiHandle->Instance==SPI1)
 800090e:	687b      	ldr	r3, [r7, #4]
 8000910:	681b      	ldr	r3, [r3, #0]
 8000912:	4a1b      	ldr	r2, [pc, #108]	; (8000980 <HAL_SPI_MspInit+0x88>)
 8000914:	4293      	cmp	r3, r2
 8000916:	d12f      	bne.n	8000978 <HAL_SPI_MspInit+0x80>
  {
  /* USER CODE BEGIN SPI1_MspInit 0 */

  /* USER CODE END SPI1_MspInit 0 */
    /* SPI1 clock enable */
    __HAL_RCC_SPI1_CLK_ENABLE();
 8000918:	4b1a      	ldr	r3, [pc, #104]	; (8000984 <HAL_SPI_MspInit+0x8c>)
 800091a:	699b      	ldr	r3, [r3, #24]
 800091c:	4a19      	ldr	r2, [pc, #100]	; (8000984 <HAL_SPI_MspInit+0x8c>)
 800091e:	f443 5380 	orr.w	r3, r3, #4096	; 0x1000
 8000922:	6193      	str	r3, [r2, #24]
 8000924:	4b17      	ldr	r3, [pc, #92]	; (8000984 <HAL_SPI_MspInit+0x8c>)
 8000926:	699b      	ldr	r3, [r3, #24]
 8000928:	f403 5380 	and.w	r3, r3, #4096	; 0x1000
 800092c:	60fb      	str	r3, [r7, #12]
 800092e:	68fb      	ldr	r3, [r7, #12]

    __HAL_RCC_GPIOA_CLK_ENABLE();
 8000930:	4b14      	ldr	r3, [pc, #80]	; (8000984 <HAL_SPI_MspInit+0x8c>)
 8000932:	699b      	ldr	r3, [r3, #24]
 8000934:	4a13      	ldr	r2, [pc, #76]	; (8000984 <HAL_SPI_MspInit+0x8c>)
 8000936:	f043 0304 	orr.w	r3, r3, #4
 800093a:	6193      	str	r3, [r2, #24]
 800093c:	4b11      	ldr	r3, [pc, #68]	; (8000984 <HAL_SPI_MspInit+0x8c>)
 800093e:	699b      	ldr	r3, [r3, #24]
 8000940:	f003 0304 	and.w	r3, r3, #4
 8000944:	60bb      	str	r3, [r7, #8]
 8000946:	68bb      	ldr	r3, [r7, #8]
    /**SPI1 GPIO Configuration
    PA5     ------> SPI1_SCK
    PA6     ------> SPI1_MISO
    PA7     ------> SPI1_MOSI
    */
    GPIO_InitStruct.Pin = GPIO_PIN_5|GPIO_PIN_7;
 8000948:	23a0      	movs	r3, #160	; 0xa0
 800094a:	613b      	str	r3, [r7, #16]
    GPIO_InitStruct.Mode = GPIO_MODE_AF_PP;
 800094c:	2302      	movs	r3, #2
 800094e:	617b      	str	r3, [r7, #20]
    GPIO_InitStruct.Speed = GPIO_SPEED_FREQ_HIGH;
 8000950:	2303      	movs	r3, #3
 8000952:	61fb      	str	r3, [r7, #28]
    HAL_GPIO_Init(GPIOA, &GPIO_InitStruct);
 8000954:	f107 0310 	add.w	r3, r7, #16
 8000958:	4619      	mov	r1, r3
 800095a:	480b      	ldr	r0, [pc, #44]	; (8000988 <HAL_SPI_MspInit+0x90>)
 800095c:	f000 fc2c 	bl	80011b8 <HAL_GPIO_Init>

    GPIO_InitStruct.Pin = GPIO_PIN_6;
 8000960:	2340      	movs	r3, #64	; 0x40
 8000962:	613b      	str	r3, [r7, #16]
    GPIO_InitStruct.Mode = GPIO_MODE_INPUT;
 8000964:	2300      	movs	r3, #0
 8000966:	617b      	str	r3, [r7, #20]
    GPIO_InitStruct.Pull = GPIO_NOPULL;
 8000968:	2300      	movs	r3, #0
 800096a:	61bb      	str	r3, [r7, #24]
    HAL_GPIO_Init(GPIOA, &GPIO_InitStruct);
 800096c:	f107 0310 	add.w	r3, r7, #16
 8000970:	4619      	mov	r1, r3
 8000972:	4805      	ldr	r0, [pc, #20]	; (8000988 <HAL_SPI_MspInit+0x90>)
 8000974:	f000 fc20 	bl	80011b8 <HAL_GPIO_Init>

  /* USER CODE BEGIN SPI1_MspInit 1 */

  /* USER CODE END SPI1_MspInit 1 */
  }
}
 8000978:	bf00      	nop
 800097a:	3720      	adds	r7, #32
 800097c:	46bd      	mov	sp, r7
 800097e:	bd80      	pop	{r7, pc}
 8000980:	40013000 	.word	0x40013000
 8000984:	40021000 	.word	0x40021000
 8000988:	40010800 	.word	0x40010800

0800098c <HAL_MspInit>:
/* USER CODE END 0 */
/**
  * Initializes the Global MSP.
  */
void HAL_MspInit(void)
{
 800098c:	b480      	push	{r7}
 800098e:	b085      	sub	sp, #20
 8000990:	af00      	add	r7, sp, #0
  /* USER CODE BEGIN MspInit 0 */

  /* USER CODE END MspInit 0 */

  __HAL_RCC_AFIO_CLK_ENABLE();
 8000992:	4b15      	ldr	r3, [pc, #84]	; (80009e8 <HAL_MspInit+0x5c>)
 8000994:	699b      	ldr	r3, [r3, #24]
 8000996:	4a14      	ldr	r2, [pc, #80]	; (80009e8 <HAL_MspInit+0x5c>)
 8000998:	f043 0301 	orr.w	r3, r3, #1
 800099c:	6193      	str	r3, [r2, #24]
 800099e:	4b12      	ldr	r3, [pc, #72]	; (80009e8 <HAL_MspInit+0x5c>)
 80009a0:	699b      	ldr	r3, [r3, #24]
 80009a2:	f003 0301 	and.w	r3, r3, #1
 80009a6:	60bb      	str	r3, [r7, #8]
 80009a8:	68bb      	ldr	r3, [r7, #8]
  __HAL_RCC_PWR_CLK_ENABLE();
 80009aa:	4b0f      	ldr	r3, [pc, #60]	; (80009e8 <HAL_MspInit+0x5c>)
 80009ac:	69db      	ldr	r3, [r3, #28]
 80009ae:	4a0e      	ldr	r2, [pc, #56]	; (80009e8 <HAL_MspInit+0x5c>)
 80009b0:	f043 5380 	orr.w	r3, r3, #268435456	; 0x10000000
 80009b4:	61d3      	str	r3, [r2, #28]
 80009b6:	4b0c      	ldr	r3, [pc, #48]	; (80009e8 <HAL_MspInit+0x5c>)
 80009b8:	69db      	ldr	r3, [r3, #28]
 80009ba:	f003 5380 	and.w	r3, r3, #268435456	; 0x10000000
 80009be:	607b      	str	r3, [r7, #4]
 80009c0:	687b      	ldr	r3, [r7, #4]

  /* System interrupt init*/

  /** NOJTAG: JTAG-DP Disabled and SW-DP Enabled
  */
  __HAL_AFIO_REMAP_SWJ_NOJTAG();
 80009c2:	4b0a      	ldr	r3, [pc, #40]	; (80009ec <HAL_MspInit+0x60>)
 80009c4:	685b      	ldr	r3, [r3, #4]
 80009c6:	60fb      	str	r3, [r7, #12]
 80009c8:	68fb      	ldr	r3, [r7, #12]
 80009ca:	f023 63e0 	bic.w	r3, r3, #117440512	; 0x7000000
 80009ce:	60fb      	str	r3, [r7, #12]
 80009d0:	68fb      	ldr	r3, [r7, #12]
 80009d2:	f043 7300 	orr.w	r3, r3, #33554432	; 0x2000000
 80009d6:	60fb      	str	r3, [r7, #12]
 80009d8:	4a04      	ldr	r2, [pc, #16]	; (80009ec <HAL_MspInit+0x60>)
 80009da:	68fb      	ldr	r3, [r7, #12]
 80009dc:	6053      	str	r3, [r2, #4]

  /* USER CODE BEGIN MspInit 1 */

  /* USER CODE END MspInit 1 */
}
 80009de:	bf00      	nop
 80009e0:	3714      	adds	r7, #20
 80009e2:	46bd      	mov	sp, r7
 80009e4:	bc80      	pop	{r7}
 80009e6:	4770      	bx	lr
 80009e8:	40021000 	.word	0x40021000
 80009ec:	40010000 	.word	0x40010000

080009f0 <NMI_Handler>:
/******************************************************************************/
/**
  * @brief This function handles Non maskable interrupt.
  */
void NMI_Handler(void)
{
 80009f0:	b480      	push	{r7}
 80009f2:	af00      	add	r7, sp, #0
  /* USER CODE BEGIN NonMaskableInt_IRQn 0 */

  /* USER CODE END NonMaskableInt_IRQn 0 */
  /* USER CODE BEGIN NonMaskableInt_IRQn 1 */
  while (1)
 80009f4:	e7fe      	b.n	80009f4 <NMI_Handler+0x4>

080009f6 <HardFault_Handler>:

/**
  * @brief This function handles Hard fault interrupt.
  */
void HardFault_Handler(void)
{
 80009f6:	b480      	push	{r7}
 80009f8:	af00      	add	r7, sp, #0
  /* USER CODE BEGIN HardFault_IRQn 0 */

  /* USER CODE END HardFault_IRQn 0 */
  while (1)
 80009fa:	e7fe      	b.n	80009fa <HardFault_Handler+0x4>

080009fc <MemManage_Handler>:

/**
  * @brief This function handles Memory management fault.
  */
void MemManage_Handler(void)
{
 80009fc:	b480      	push	{r7}
 80009fe:	af00      	add	r7, sp, #0
  /* USER CODE BEGIN MemoryManagement_IRQn 0 */

  /* USER CODE END MemoryManagement_IRQn 0 */
  while (1)
 8000a00:	e7fe      	b.n	8000a00 <MemManage_Handler+0x4>

08000a02 <BusFault_Handler>:

/**
  * @brief This function handles Prefetch fault, memory access fault.
  */
void BusFault_Handler(void)
{
 8000a02:	b480      	push	{r7}
 8000a04:	af00      	add	r7, sp, #0
  /* USER CODE BEGIN BusFault_IRQn 0 */

  /* USER CODE END BusFault_IRQn 0 */
  while (1)
 8000a06:	e7fe      	b.n	8000a06 <BusFault_Handler+0x4>

08000a08 <UsageFault_Handler>:

/**
  * @brief This function handles Undefined instruction or illegal state.
  */
void UsageFault_Handler(void)
{
 8000a08:	b480      	push	{r7}
 8000a0a:	af00      	add	r7, sp, #0
  /* USER CODE BEGIN UsageFault_IRQn 0 */

  /* USER CODE END UsageFault_IRQn 0 */
  while (1)
 8000a0c:	e7fe      	b.n	8000a0c <UsageFault_Handler+0x4>

08000a0e <SVC_Handler>:

/**
  * @brief This function handles System service call via SWI instruction.
  */
void SVC_Handler(void)
{
 8000a0e:	b480      	push	{r7}
 8000a10:	af00      	add	r7, sp, #0

  /* USER CODE END SVCall_IRQn 0 */
  /* USER CODE BEGIN SVCall_IRQn 1 */

  /* USER CODE END SVCall_IRQn 1 */
}
 8000a12:	bf00      	nop
 8000a14:	46bd      	mov	sp, r7
 8000a16:	bc80      	pop	{r7}
 8000a18:	4770      	bx	lr

08000a1a <DebugMon_Handler>:

/**
  * @brief This function handles Debug monitor.
  */
void DebugMon_Handler(void)
{
 8000a1a:	b480      	push	{r7}
 8000a1c:	af00      	add	r7, sp, #0

  /* USER CODE END DebugMonitor_IRQn 0 */
  /* USER CODE BEGIN DebugMonitor_IRQn 1 */

  /* USER CODE END DebugMonitor_IRQn 1 */
}
 8000a1e:	bf00      	nop
 8000a20:	46bd      	mov	sp, r7
 8000a22:	bc80      	pop	{r7}
 8000a24:	4770      	bx	lr

08000a26 <PendSV_Handler>:

/**
  * @brief This function handles Pendable request for system service.
  */
void PendSV_Handler(void)
{
 8000a26:	b480      	push	{r7}
 8000a28:	af00      	add	r7, sp, #0

  /* USER CODE END PendSV_IRQn 0 */
  /* USER CODE BEGIN PendSV_IRQn 1 */

  /* USER CODE END PendSV_IRQn 1 */
}
 8000a2a:	bf00      	nop
 8000a2c:	46bd      	mov	sp, r7
 8000a2e:	bc80      	pop	{r7}
 8000a30:	4770      	bx	lr

08000a32 <SysTick_Handler>:

/**
  * @brief This function handles System tick timer.
  */
void SysTick_Handler(void)
{
 8000a32:	b580      	push	{r7, lr}
 8000a34:	af00      	add	r7, sp, #0
  /* USER CODE BEGIN SysTick_IRQn 0 */

  /* USER CODE END SysTick_IRQn 0 */
  HAL_IncTick();
 8000a36:	f000 fa71 	bl	8000f1c <HAL_IncTick>
  /* USER CODE BEGIN SysTick_IRQn 1 */

  /* USER CODE END SysTick_IRQn 1 */
}
 8000a3a:	bf00      	nop
 8000a3c:	bd80      	pop	{r7, pc}
	...

08000a40 <TIM4_IRQHandler>:

/**
  * @brief This function handles TIM4 global interrupt.
  */
void TIM4_IRQHandler(void)
{
 8000a40:	b580      	push	{r7, lr}
 8000a42:	af00      	add	r7, sp, #0
  /* USER CODE BEGIN TIM4_IRQn 0 */

  /* USER CODE END TIM4_IRQn 0 */
  HAL_TIM_IRQHandler(&htim4);
 8000a44:	4802      	ldr	r0, [pc, #8]	; (8000a50 <TIM4_IRQHandler+0x10>)
 8000a46:	f001 fce0 	bl	800240a <HAL_TIM_IRQHandler>
  /* USER CODE BEGIN TIM4_IRQn 1 */

  /* USER CODE END TIM4_IRQn 1 */
}
 8000a4a:	bf00      	nop
 8000a4c:	bd80      	pop	{r7, pc}
 8000a4e:	bf00      	nop
 8000a50:	2000014c 	.word	0x2000014c

08000a54 <_read>:
	_kill(status, -1);
	while (1) {}		/* Make sure we hang here */
}

__attribute__((weak)) int _read(int file, char *ptr, int len)
{
 8000a54:	b580      	push	{r7, lr}
 8000a56:	b086      	sub	sp, #24
 8000a58:	af00      	add	r7, sp, #0
 8000a5a:	60f8      	str	r0, [r7, #12]
 8000a5c:	60b9      	str	r1, [r7, #8]
 8000a5e:	607a      	str	r2, [r7, #4]
	int DataIdx;

	for (DataIdx = 0; DataIdx < len; DataIdx++)
 8000a60:	2300      	movs	r3, #0
 8000a62:	617b      	str	r3, [r7, #20]
 8000a64:	e00a      	b.n	8000a7c <_read+0x28>
	{
		*ptr++ = __io_getchar();
 8000a66:	f3af 8000 	nop.w
 8000a6a:	4601      	mov	r1, r0
 8000a6c:	68bb      	ldr	r3, [r7, #8]
 8000a6e:	1c5a      	adds	r2, r3, #1
 8000a70:	60ba      	str	r2, [r7, #8]
 8000a72:	b2ca      	uxtb	r2, r1
 8000a74:	701a      	strb	r2, [r3, #0]
	for (DataIdx = 0; DataIdx < len; DataIdx++)
 8000a76:	697b      	ldr	r3, [r7, #20]
 8000a78:	3301      	adds	r3, #1
 8000a7a:	617b      	str	r3, [r7, #20]
 8000a7c:	697a      	ldr	r2, [r7, #20]
 8000a7e:	687b      	ldr	r3, [r7, #4]
 8000a80:	429a      	cmp	r2, r3
 8000a82:	dbf0      	blt.n	8000a66 <_read+0x12>
	}

return len;
 8000a84:	687b      	ldr	r3, [r7, #4]
}
 8000a86:	4618      	mov	r0, r3
 8000a88:	3718      	adds	r7, #24
 8000a8a:	46bd      	mov	sp, r7
 8000a8c:	bd80      	pop	{r7, pc}

08000a8e <_write>:

__attribute__((weak)) int _write(int file, char *ptr, int len)
{
 8000a8e:	b580      	push	{r7, lr}
 8000a90:	b086      	sub	sp, #24
 8000a92:	af00      	add	r7, sp, #0
 8000a94:	60f8      	str	r0, [r7, #12]
 8000a96:	60b9      	str	r1, [r7, #8]
 8000a98:	607a      	str	r2, [r7, #4]
	int DataIdx;

	for (DataIdx = 0; DataIdx < len; DataIdx++)
 8000a9a:	2300      	movs	r3, #0
 8000a9c:	617b      	str	r3, [r7, #20]
 8000a9e:	e009      	b.n	8000ab4 <_write+0x26>
	{
		__io_putchar(*ptr++);
 8000aa0:	68bb      	ldr	r3, [r7, #8]
 8000aa2:	1c5a      	adds	r2, r3, #1
 8000aa4:	60ba      	str	r2, [r7, #8]
 8000aa6:	781b      	ldrb	r3, [r3, #0]
 8000aa8:	4618      	mov	r0, r3
 8000aaa:	f7ff fb99 	bl	80001e0 <__io_putchar>
	for (DataIdx = 0; DataIdx < len; DataIdx++)
 8000aae:	697b      	ldr	r3, [r7, #20]
 8000ab0:	3301      	adds	r3, #1
 8000ab2:	617b      	str	r3, [r7, #20]
 8000ab4:	697a      	ldr	r2, [r7, #20]
 8000ab6:	687b      	ldr	r3, [r7, #4]
 8000ab8:	429a      	cmp	r2, r3
 8000aba:	dbf1      	blt.n	8000aa0 <_write+0x12>
	}
	return len;
 8000abc:	687b      	ldr	r3, [r7, #4]
}
 8000abe:	4618      	mov	r0, r3
 8000ac0:	3718      	adds	r7, #24
 8000ac2:	46bd      	mov	sp, r7
 8000ac4:	bd80      	pop	{r7, pc}

08000ac6 <_close>:

int _close(int file)
{
 8000ac6:	b480      	push	{r7}
 8000ac8:	b083      	sub	sp, #12
 8000aca:	af00      	add	r7, sp, #0
 8000acc:	6078      	str	r0, [r7, #4]
	return -1;
 8000ace:	f04f 33ff 	mov.w	r3, #4294967295
}
 8000ad2:	4618      	mov	r0, r3
 8000ad4:	370c      	adds	r7, #12
 8000ad6:	46bd      	mov	sp, r7
 8000ad8:	bc80      	pop	{r7}
 8000ada:	4770      	bx	lr

08000adc <_fstat>:


int _fstat(int file, struct stat *st)
{
 8000adc:	b480      	push	{r7}
 8000ade:	b083      	sub	sp, #12
 8000ae0:	af00      	add	r7, sp, #0
 8000ae2:	6078      	str	r0, [r7, #4]
 8000ae4:	6039      	str	r1, [r7, #0]
	st->st_mode = S_IFCHR;
 8000ae6:	683b      	ldr	r3, [r7, #0]
 8000ae8:	f44f 5200 	mov.w	r2, #8192	; 0x2000
 8000aec:	605a      	str	r2, [r3, #4]
	return 0;
 8000aee:	2300      	movs	r3, #0
}
 8000af0:	4618      	mov	r0, r3
 8000af2:	370c      	adds	r7, #12
 8000af4:	46bd      	mov	sp, r7
 8000af6:	bc80      	pop	{r7}
 8000af8:	4770      	bx	lr

08000afa <_isatty>:

int _isatty(int file)
{
 8000afa:	b480      	push	{r7}
 8000afc:	b083      	sub	sp, #12
 8000afe:	af00      	add	r7, sp, #0
 8000b00:	6078      	str	r0, [r7, #4]
	return 1;
 8000b02:	2301      	movs	r3, #1
}
 8000b04:	4618      	mov	r0, r3
 8000b06:	370c      	adds	r7, #12
 8000b08:	46bd      	mov	sp, r7
 8000b0a:	bc80      	pop	{r7}
 8000b0c:	4770      	bx	lr

08000b0e <_lseek>:

int _lseek(int file, int ptr, int dir)
{
 8000b0e:	b480      	push	{r7}
 8000b10:	b085      	sub	sp, #20
 8000b12:	af00      	add	r7, sp, #0
 8000b14:	60f8      	str	r0, [r7, #12]
 8000b16:	60b9      	str	r1, [r7, #8]
 8000b18:	607a      	str	r2, [r7, #4]
	return 0;
 8000b1a:	2300      	movs	r3, #0
}
 8000b1c:	4618      	mov	r0, r3
 8000b1e:	3714      	adds	r7, #20
 8000b20:	46bd      	mov	sp, r7
 8000b22:	bc80      	pop	{r7}
 8000b24:	4770      	bx	lr
	...

08000b28 <_sbrk>:
 *
 * @param incr Memory size
 * @return Pointer to allocated memory
 */
void *_sbrk(ptrdiff_t incr)
{
 8000b28:	b580      	push	{r7, lr}
 8000b2a:	b086      	sub	sp, #24
 8000b2c:	af00      	add	r7, sp, #0
 8000b2e:	6078      	str	r0, [r7, #4]
  extern uint8_t _end; /* Symbol defined in the linker script */
  extern uint8_t _estack; /* Symbol defined in the linker script */
  extern uint32_t _Min_Stack_Size; /* Symbol defined in the linker script */
  const uint32_t stack_limit = (uint32_t)&_estack - (uint32_t)&_Min_Stack_Size;
 8000b30:	4a14      	ldr	r2, [pc, #80]	; (8000b84 <_sbrk+0x5c>)
 8000b32:	4b15      	ldr	r3, [pc, #84]	; (8000b88 <_sbrk+0x60>)
 8000b34:	1ad3      	subs	r3, r2, r3
 8000b36:	617b      	str	r3, [r7, #20]
  const uint8_t *max_heap = (uint8_t *)stack_limit;
 8000b38:	697b      	ldr	r3, [r7, #20]
 8000b3a:	613b      	str	r3, [r7, #16]
  uint8_t *prev_heap_end;

  /* Initialize heap end at first call */
  if (NULL == __sbrk_heap_end)
 8000b3c:	4b13      	ldr	r3, [pc, #76]	; (8000b8c <_sbrk+0x64>)
 8000b3e:	681b      	ldr	r3, [r3, #0]
 8000b40:	2b00      	cmp	r3, #0
 8000b42:	d102      	bne.n	8000b4a <_sbrk+0x22>
  {
    __sbrk_heap_end = &_end;
 8000b44:	4b11      	ldr	r3, [pc, #68]	; (8000b8c <_sbrk+0x64>)
 8000b46:	4a12      	ldr	r2, [pc, #72]	; (8000b90 <_sbrk+0x68>)
 8000b48:	601a      	str	r2, [r3, #0]
  }

  /* Protect heap from growing into the reserved MSP stack */
  if (__sbrk_heap_end + incr > max_heap)
 8000b4a:	4b10      	ldr	r3, [pc, #64]	; (8000b8c <_sbrk+0x64>)
 8000b4c:	681a      	ldr	r2, [r3, #0]
 8000b4e:	687b      	ldr	r3, [r7, #4]
 8000b50:	4413      	add	r3, r2
 8000b52:	693a      	ldr	r2, [r7, #16]
 8000b54:	429a      	cmp	r2, r3
 8000b56:	d207      	bcs.n	8000b68 <_sbrk+0x40>
  {
    errno = ENOMEM;
 8000b58:	f002 fbb8 	bl	80032cc <__errno>
 8000b5c:	4603      	mov	r3, r0
 8000b5e:	220c      	movs	r2, #12
 8000b60:	601a      	str	r2, [r3, #0]
    return (void *)-1;
 8000b62:	f04f 33ff 	mov.w	r3, #4294967295
 8000b66:	e009      	b.n	8000b7c <_sbrk+0x54>
  }

  prev_heap_end = __sbrk_heap_end;
 8000b68:	4b08      	ldr	r3, [pc, #32]	; (8000b8c <_sbrk+0x64>)
 8000b6a:	681b      	ldr	r3, [r3, #0]
 8000b6c:	60fb      	str	r3, [r7, #12]
  __sbrk_heap_end += incr;
 8000b6e:	4b07      	ldr	r3, [pc, #28]	; (8000b8c <_sbrk+0x64>)
 8000b70:	681a      	ldr	r2, [r3, #0]
 8000b72:	687b      	ldr	r3, [r7, #4]
 8000b74:	4413      	add	r3, r2
 8000b76:	4a05      	ldr	r2, [pc, #20]	; (8000b8c <_sbrk+0x64>)
 8000b78:	6013      	str	r3, [r2, #0]

  return (void *)prev_heap_end;
 8000b7a:	68fb      	ldr	r3, [r7, #12]
}
 8000b7c:	4618      	mov	r0, r3
 8000b7e:	3718      	adds	r7, #24
 8000b80:	46bd      	mov	sp, r7
 8000b82:	bd80      	pop	{r7, pc}
 8000b84:	20005000 	.word	0x20005000
 8000b88:	00000400 	.word	0x00000400
 8000b8c:	2000008c 	.word	0x2000008c
 8000b90:	200001f0 	.word	0x200001f0

08000b94 <SystemInit>:
  * @note   This function should be used only after reset.
  * @param  None
  * @retval None
  */
void SystemInit (void)
{
 8000b94:	b480      	push	{r7}
 8000b96:	af00      	add	r7, sp, #0

  /* Configure the Vector Table location -------------------------------------*/
#if defined(USER_VECT_TAB_ADDRESS)
  SCB->VTOR = VECT_TAB_BASE_ADDRESS | VECT_TAB_OFFSET; /* Vector Table Relocation in Internal SRAM. */
#endif /* USER_VECT_TAB_ADDRESS */
}
 8000b98:	bf00      	nop
 8000b9a:	46bd      	mov	sp, r7
 8000b9c:	bc80      	pop	{r7}
 8000b9e:	4770      	bx	lr

08000ba0 <MX_TIM4_Init>:

TIM_HandleTypeDef htim4;

/* TIM4 init function */
void MX_TIM4_Init(void)
{
 8000ba0:	b580      	push	{r7, lr}
 8000ba2:	b08e      	sub	sp, #56	; 0x38
 8000ba4:	af00      	add	r7, sp, #0

  /* USER CODE BEGIN TIM4_Init 0 */

  /* USER CODE END TIM4_Init 0 */

  TIM_ClockConfigTypeDef sClockSourceConfig = {0};
 8000ba6:	f107 0328 	add.w	r3, r7, #40	; 0x28
 8000baa:	2200      	movs	r2, #0
 8000bac:	601a      	str	r2, [r3, #0]
 8000bae:	605a      	str	r2, [r3, #4]
 8000bb0:	609a      	str	r2, [r3, #8]
 8000bb2:	60da      	str	r2, [r3, #12]
  TIM_MasterConfigTypeDef sMasterConfig = {0};
 8000bb4:	f107 0320 	add.w	r3, r7, #32
 8000bb8:	2200      	movs	r2, #0
 8000bba:	601a      	str	r2, [r3, #0]
 8000bbc:	605a      	str	r2, [r3, #4]
  TIM_OC_InitTypeDef sConfigOC = {0};
 8000bbe:	1d3b      	adds	r3, r7, #4
 8000bc0:	2200      	movs	r2, #0
 8000bc2:	601a      	str	r2, [r3, #0]
 8000bc4:	605a      	str	r2, [r3, #4]
 8000bc6:	609a      	str	r2, [r3, #8]
 8000bc8:	60da      	str	r2, [r3, #12]
 8000bca:	611a      	str	r2, [r3, #16]
 8000bcc:	615a      	str	r2, [r3, #20]
 8000bce:	619a      	str	r2, [r3, #24]

  /* USER CODE BEGIN TIM4_Init 1 */

  /* USER CODE END TIM4_Init 1 */
  htim4.Instance = TIM4;
 8000bd0:	4b33      	ldr	r3, [pc, #204]	; (8000ca0 <MX_TIM4_Init+0x100>)
 8000bd2:	4a34      	ldr	r2, [pc, #208]	; (8000ca4 <MX_TIM4_Init+0x104>)
 8000bd4:	601a      	str	r2, [r3, #0]
  htim4.Init.Prescaler = 720-1;
 8000bd6:	4b32      	ldr	r3, [pc, #200]	; (8000ca0 <MX_TIM4_Init+0x100>)
 8000bd8:	f240 22cf 	movw	r2, #719	; 0x2cf
 8000bdc:	605a      	str	r2, [r3, #4]
  htim4.Init.CounterMode = TIM_COUNTERMODE_UP;
 8000bde:	4b30      	ldr	r3, [pc, #192]	; (8000ca0 <MX_TIM4_Init+0x100>)
 8000be0:	2200      	movs	r2, #0
 8000be2:	609a      	str	r2, [r3, #8]
  htim4.Init.Period = 1000-1;
 8000be4:	4b2e      	ldr	r3, [pc, #184]	; (8000ca0 <MX_TIM4_Init+0x100>)
 8000be6:	f240 32e7 	movw	r2, #999	; 0x3e7
 8000bea:	60da      	str	r2, [r3, #12]
  htim4.Init.ClockDivision = TIM_CLOCKDIVISION_DIV1;
 8000bec:	4b2c      	ldr	r3, [pc, #176]	; (8000ca0 <MX_TIM4_Init+0x100>)
 8000bee:	2200      	movs	r2, #0
 8000bf0:	611a      	str	r2, [r3, #16]
  htim4.Init.AutoReloadPreload = TIM_AUTORELOAD_PRELOAD_DISABLE;
 8000bf2:	4b2b      	ldr	r3, [pc, #172]	; (8000ca0 <MX_TIM4_Init+0x100>)
 8000bf4:	2200      	movs	r2, #0
 8000bf6:	619a      	str	r2, [r3, #24]
  if (HAL_TIM_Base_Init(&htim4) != HAL_OK)
 8000bf8:	4829      	ldr	r0, [pc, #164]	; (8000ca0 <MX_TIM4_Init+0x100>)
 8000bfa:	f001 fb5f 	bl	80022bc <HAL_TIM_Base_Init>
 8000bfe:	4603      	mov	r3, r0
 8000c00:	2b00      	cmp	r3, #0
 8000c02:	d001      	beq.n	8000c08 <MX_TIM4_Init+0x68>
  {
    Error_Handler();
 8000c04:	f7ff fba5 	bl	8000352 <Error_Handler>
  }
  sClockSourceConfig.ClockSource = TIM_CLOCKSOURCE_INTERNAL;
 8000c08:	f44f 5380 	mov.w	r3, #4096	; 0x1000
 8000c0c:	62bb      	str	r3, [r7, #40]	; 0x28
  if (HAL_TIM_ConfigClockSource(&htim4, &sClockSourceConfig) != HAL_OK)
 8000c0e:	f107 0328 	add.w	r3, r7, #40	; 0x28
 8000c12:	4619      	mov	r1, r3
 8000c14:	4822      	ldr	r0, [pc, #136]	; (8000ca0 <MX_TIM4_Init+0x100>)
 8000c16:	f001 fdbf 	bl	8002798 <HAL_TIM_ConfigClockSource>
 8000c1a:	4603      	mov	r3, r0
 8000c1c:	2b00      	cmp	r3, #0
 8000c1e:	d001      	beq.n	8000c24 <MX_TIM4_Init+0x84>
  {
    Error_Handler();
 8000c20:	f7ff fb97 	bl	8000352 <Error_Handler>
  }
  if (HAL_TIM_PWM_Init(&htim4) != HAL_OK)
 8000c24:	481e      	ldr	r0, [pc, #120]	; (8000ca0 <MX_TIM4_Init+0x100>)
 8000c26:	f001 fb98 	bl	800235a <HAL_TIM_PWM_Init>
 8000c2a:	4603      	mov	r3, r0
 8000c2c:	2b00      	cmp	r3, #0
 8000c2e:	d001      	beq.n	8000c34 <MX_TIM4_Init+0x94>
  {
    Error_Handler();
 8000c30:	f7ff fb8f 	bl	8000352 <Error_Handler>
  }
  sMasterConfig.MasterOutputTrigger = TIM_TRGO_RESET;
 8000c34:	2300      	movs	r3, #0
 8000c36:	623b      	str	r3, [r7, #32]
  sMasterConfig.MasterSlaveMode = TIM_MASTERSLAVEMODE_DISABLE;
 8000c38:	2300      	movs	r3, #0
 8000c3a:	627b      	str	r3, [r7, #36]	; 0x24
  if (HAL_TIMEx_MasterConfigSynchronization(&htim4, &sMasterConfig) != HAL_OK)
 8000c3c:	f107 0320 	add.w	r3, r7, #32
 8000c40:	4619      	mov	r1, r3
 8000c42:	4817      	ldr	r0, [pc, #92]	; (8000ca0 <MX_TIM4_Init+0x100>)
 8000c44:	f002 f91a 	bl	8002e7c <HAL_TIMEx_MasterConfigSynchronization>
 8000c48:	4603      	mov	r3, r0
 8000c4a:	2b00      	cmp	r3, #0
 8000c4c:	d001      	beq.n	8000c52 <MX_TIM4_Init+0xb2>
  {
    Error_Handler();
 8000c4e:	f7ff fb80 	bl	8000352 <Error_Handler>
  }
  sConfigOC.OCMode = TIM_OCMODE_PWM1;
 8000c52:	2360      	movs	r3, #96	; 0x60
 8000c54:	607b      	str	r3, [r7, #4]
  sConfigOC.Pulse = 500-1;
 8000c56:	f240 13f3 	movw	r3, #499	; 0x1f3
 8000c5a:	60bb      	str	r3, [r7, #8]
  sConfigOC.OCPolarity = TIM_OCPOLARITY_HIGH;
 8000c5c:	2300      	movs	r3, #0
 8000c5e:	60fb      	str	r3, [r7, #12]
  sConfigOC.OCFastMode = TIM_OCFAST_DISABLE;
 8000c60:	2300      	movs	r3, #0
 8000c62:	617b      	str	r3, [r7, #20]
  if (HAL_TIM_PWM_ConfigChannel(&htim4, &sConfigOC, TIM_CHANNEL_1) != HAL_OK)
 8000c64:	1d3b      	adds	r3, r7, #4
 8000c66:	2200      	movs	r2, #0
 8000c68:	4619      	mov	r1, r3
 8000c6a:	480d      	ldr	r0, [pc, #52]	; (8000ca0 <MX_TIM4_Init+0x100>)
 8000c6c:	f001 fcd6 	bl	800261c <HAL_TIM_PWM_ConfigChannel>
 8000c70:	4603      	mov	r3, r0
 8000c72:	2b00      	cmp	r3, #0
 8000c74:	d001      	beq.n	8000c7a <MX_TIM4_Init+0xda>
  {
    Error_Handler();
 8000c76:	f7ff fb6c 	bl	8000352 <Error_Handler>
  }
  if (HAL_TIM_PWM_ConfigChannel(&htim4, &sConfigOC, TIM_CHANNEL_2) != HAL_OK)
 8000c7a:	1d3b      	adds	r3, r7, #4
 8000c7c:	2204      	movs	r2, #4
 8000c7e:	4619      	mov	r1, r3
 8000c80:	4807      	ldr	r0, [pc, #28]	; (8000ca0 <MX_TIM4_Init+0x100>)
 8000c82:	f001 fccb 	bl	800261c <HAL_TIM_PWM_ConfigChannel>
 8000c86:	4603      	mov	r3, r0
 8000c88:	2b00      	cmp	r3, #0
 8000c8a:	d001      	beq.n	8000c90 <MX_TIM4_Init+0xf0>
  {
    Error_Handler();
 8000c8c:	f7ff fb61 	bl	8000352 <Error_Handler>
  }
  /* USER CODE BEGIN TIM4_Init 2 */

  /* USER CODE END TIM4_Init 2 */
  HAL_TIM_MspPostInit(&htim4);
 8000c90:	4803      	ldr	r0, [pc, #12]	; (8000ca0 <MX_TIM4_Init+0x100>)
 8000c92:	f000 f82f 	bl	8000cf4 <HAL_TIM_MspPostInit>

}
 8000c96:	bf00      	nop
 8000c98:	3738      	adds	r7, #56	; 0x38
 8000c9a:	46bd      	mov	sp, r7
 8000c9c:	bd80      	pop	{r7, pc}
 8000c9e:	bf00      	nop
 8000ca0:	2000014c 	.word	0x2000014c
 8000ca4:	40000800 	.word	0x40000800

08000ca8 <HAL_TIM_Base_MspInit>:

void HAL_TIM_Base_MspInit(TIM_HandleTypeDef* tim_baseHandle)
{
 8000ca8:	b580      	push	{r7, lr}
 8000caa:	b084      	sub	sp, #16
 8000cac:	af00      	add	r7, sp, #0
 8000cae:	6078      	str	r0, [r7, #4]

  if(tim_baseHandle->Instance==TIM4)
 8000cb0:	687b      	ldr	r3, [r7, #4]
 8000cb2:	681b      	ldr	r3, [r3, #0]
 8000cb4:	4a0d      	ldr	r2, [pc, #52]	; (8000cec <HAL_TIM_Base_MspInit+0x44>)
 8000cb6:	4293      	cmp	r3, r2
 8000cb8:	d113      	bne.n	8000ce2 <HAL_TIM_Base_MspInit+0x3a>
  {
  /* USER CODE BEGIN TIM4_MspInit 0 */

  /* USER CODE END TIM4_MspInit 0 */
    /* TIM4 clock enable */
    __HAL_RCC_TIM4_CLK_ENABLE();
 8000cba:	4b0d      	ldr	r3, [pc, #52]	; (8000cf0 <HAL_TIM_Base_MspInit+0x48>)
 8000cbc:	69db      	ldr	r3, [r3, #28]
 8000cbe:	4a0c      	ldr	r2, [pc, #48]	; (8000cf0 <HAL_TIM_Base_MspInit+0x48>)
 8000cc0:	f043 0304 	orr.w	r3, r3, #4
 8000cc4:	61d3      	str	r3, [r2, #28]
 8000cc6:	4b0a      	ldr	r3, [pc, #40]	; (8000cf0 <HAL_TIM_Base_MspInit+0x48>)
 8000cc8:	69db      	ldr	r3, [r3, #28]
 8000cca:	f003 0304 	and.w	r3, r3, #4
 8000cce:	60fb      	str	r3, [r7, #12]
 8000cd0:	68fb      	ldr	r3, [r7, #12]

    /* TIM4 interrupt Init */
    HAL_NVIC_SetPriority(TIM4_IRQn, 0, 0);
 8000cd2:	2200      	movs	r2, #0
 8000cd4:	2100      	movs	r1, #0
 8000cd6:	201e      	movs	r0, #30
 8000cd8:	f000 fa37 	bl	800114a <HAL_NVIC_SetPriority>
    HAL_NVIC_EnableIRQ(TIM4_IRQn);
 8000cdc:	201e      	movs	r0, #30
 8000cde:	f000 fa50 	bl	8001182 <HAL_NVIC_EnableIRQ>
  /* USER CODE BEGIN TIM4_MspInit 1 */

  /* USER CODE END TIM4_MspInit 1 */
  }
}
 8000ce2:	bf00      	nop
 8000ce4:	3710      	adds	r7, #16
 8000ce6:	46bd      	mov	sp, r7
 8000ce8:	bd80      	pop	{r7, pc}
 8000cea:	bf00      	nop
 8000cec:	40000800 	.word	0x40000800
 8000cf0:	40021000 	.word	0x40021000

08000cf4 <HAL_TIM_MspPostInit>:
void HAL_TIM_MspPostInit(TIM_HandleTypeDef* timHandle)
{
 8000cf4:	b580      	push	{r7, lr}
 8000cf6:	b088      	sub	sp, #32
 8000cf8:	af00      	add	r7, sp, #0
 8000cfa:	6078      	str	r0, [r7, #4]

  GPIO_InitTypeDef GPIO_InitStruct = {0};
 8000cfc:	f107 0310 	add.w	r3, r7, #16
 8000d00:	2200      	movs	r2, #0
 8000d02:	601a      	str	r2, [r3, #0]
 8000d04:	605a      	str	r2, [r3, #4]
 8000d06:	609a      	str	r2, [r3, #8]
 8000d08:	60da      	str	r2, [r3, #12]
  if(timHandle->Instance==TIM4)
 8000d0a:	687b      	ldr	r3, [r7, #4]
 8000d0c:	681b      	ldr	r3, [r3, #0]
 8000d0e:	4a0f      	ldr	r2, [pc, #60]	; (8000d4c <HAL_TIM_MspPostInit+0x58>)
 8000d10:	4293      	cmp	r3, r2
 8000d12:	d117      	bne.n	8000d44 <HAL_TIM_MspPostInit+0x50>
  {
  /* USER CODE BEGIN TIM4_MspPostInit 0 */

  /* USER CODE END TIM4_MspPostInit 0 */

    __HAL_RCC_GPIOB_CLK_ENABLE();
 8000d14:	4b0e      	ldr	r3, [pc, #56]	; (8000d50 <HAL_TIM_MspPostInit+0x5c>)
 8000d16:	699b      	ldr	r3, [r3, #24]
 8000d18:	4a0d      	ldr	r2, [pc, #52]	; (8000d50 <HAL_TIM_MspPostInit+0x5c>)
 8000d1a:	f043 0308 	orr.w	r3, r3, #8
 8000d1e:	6193      	str	r3, [r2, #24]
 8000d20:	4b0b      	ldr	r3, [pc, #44]	; (8000d50 <HAL_TIM_MspPostInit+0x5c>)
 8000d22:	699b      	ldr	r3, [r3, #24]
 8000d24:	f003 0308 	and.w	r3, r3, #8
 8000d28:	60fb      	str	r3, [r7, #12]
 8000d2a:	68fb      	ldr	r3, [r7, #12]
    /**TIM4 GPIO Configuration
    PB6     ------> TIM4_CH1
    PB7     ------> TIM4_CH2
    */
    GPIO_InitStruct.Pin = GPIO_PIN_6|GPIO_PIN_7;
 8000d2c:	23c0      	movs	r3, #192	; 0xc0
 8000d2e:	613b      	str	r3, [r7, #16]
    GPIO_InitStruct.Mode = GPIO_MODE_AF_PP;
 8000d30:	2302      	movs	r3, #2
 8000d32:	617b      	str	r3, [r7, #20]
    GPIO_InitStruct.Speed = GPIO_SPEED_FREQ_LOW;
 8000d34:	2302      	movs	r3, #2
 8000d36:	61fb      	str	r3, [r7, #28]
    HAL_GPIO_Init(GPIOB, &GPIO_InitStruct);
 8000d38:	f107 0310 	add.w	r3, r7, #16
 8000d3c:	4619      	mov	r1, r3
 8000d3e:	4805      	ldr	r0, [pc, #20]	; (8000d54 <HAL_TIM_MspPostInit+0x60>)
 8000d40:	f000 fa3a 	bl	80011b8 <HAL_GPIO_Init>
  /* USER CODE BEGIN TIM4_MspPostInit 1 */

  /* USER CODE END TIM4_MspPostInit 1 */
  }

}
 8000d44:	bf00      	nop
 8000d46:	3720      	adds	r7, #32
 8000d48:	46bd      	mov	sp, r7
 8000d4a:	bd80      	pop	{r7, pc}
 8000d4c:	40000800 	.word	0x40000800
 8000d50:	40021000 	.word	0x40021000
 8000d54:	40010c00 	.word	0x40010c00

08000d58 <MX_USART1_UART_Init>:
UART_HandleTypeDef huart1;

/* USART1 init function */

void MX_USART1_UART_Init(void)
{
 8000d58:	b580      	push	{r7, lr}
 8000d5a:	af00      	add	r7, sp, #0
  /* USER CODE END USART1_Init 0 */

  /* USER CODE BEGIN USART1_Init 1 */

  /* USER CODE END USART1_Init 1 */
  huart1.Instance = USART1;
 8000d5c:	4b11      	ldr	r3, [pc, #68]	; (8000da4 <MX_USART1_UART_Init+0x4c>)
 8000d5e:	4a12      	ldr	r2, [pc, #72]	; (8000da8 <MX_USART1_UART_Init+0x50>)
 8000d60:	601a      	str	r2, [r3, #0]
  huart1.Init.BaudRate = 115200;
 8000d62:	4b10      	ldr	r3, [pc, #64]	; (8000da4 <MX_USART1_UART_Init+0x4c>)
 8000d64:	f44f 32e1 	mov.w	r2, #115200	; 0x1c200
 8000d68:	605a      	str	r2, [r3, #4]
  huart1.Init.WordLength = UART_WORDLENGTH_8B;
 8000d6a:	4b0e      	ldr	r3, [pc, #56]	; (8000da4 <MX_USART1_UART_Init+0x4c>)
 8000d6c:	2200      	movs	r2, #0
 8000d6e:	609a      	str	r2, [r3, #8]
  huart1.Init.StopBits = UART_STOPBITS_1;
 8000d70:	4b0c      	ldr	r3, [pc, #48]	; (8000da4 <MX_USART1_UART_Init+0x4c>)
 8000d72:	2200      	movs	r2, #0
 8000d74:	60da      	str	r2, [r3, #12]
  huart1.Init.Parity = UART_PARITY_NONE;
 8000d76:	4b0b      	ldr	r3, [pc, #44]	; (8000da4 <MX_USART1_UART_Init+0x4c>)
 8000d78:	2200      	movs	r2, #0
 8000d7a:	611a      	str	r2, [r3, #16]
  huart1.Init.Mode = UART_MODE_TX_RX;
 8000d7c:	4b09      	ldr	r3, [pc, #36]	; (8000da4 <MX_USART1_UART_Init+0x4c>)
 8000d7e:	220c      	movs	r2, #12
 8000d80:	615a      	str	r2, [r3, #20]
  huart1.Init.HwFlowCtl = UART_HWCONTROL_NONE;
 8000d82:	4b08      	ldr	r3, [pc, #32]	; (8000da4 <MX_USART1_UART_Init+0x4c>)
 8000d84:	2200      	movs	r2, #0
 8000d86:	619a      	str	r2, [r3, #24]
  huart1.Init.OverSampling = UART_OVERSAMPLING_16;
 8000d88:	4b06      	ldr	r3, [pc, #24]	; (8000da4 <MX_USART1_UART_Init+0x4c>)
 8000d8a:	2200      	movs	r2, #0
 8000d8c:	61da      	str	r2, [r3, #28]
  if (HAL_UART_Init(&huart1) != HAL_OK)
 8000d8e:	4805      	ldr	r0, [pc, #20]	; (8000da4 <MX_USART1_UART_Init+0x4c>)
 8000d90:	f002 f8e4 	bl	8002f5c <HAL_UART_Init>
 8000d94:	4603      	mov	r3, r0
 8000d96:	2b00      	cmp	r3, #0
 8000d98:	d001      	beq.n	8000d9e <MX_USART1_UART_Init+0x46>
  {
    Error_Handler();
 8000d9a:	f7ff fada 	bl	8000352 <Error_Handler>
  }
  /* USER CODE BEGIN USART1_Init 2 */

  /* USER CODE END USART1_Init 2 */

}
 8000d9e:	bf00      	nop
 8000da0:	bd80      	pop	{r7, pc}
 8000da2:	bf00      	nop
 8000da4:	20000194 	.word	0x20000194
 8000da8:	40013800 	.word	0x40013800

08000dac <HAL_UART_MspInit>:

void HAL_UART_MspInit(UART_HandleTypeDef* uartHandle)
{
 8000dac:	b580      	push	{r7, lr}
 8000dae:	b088      	sub	sp, #32
 8000db0:	af00      	add	r7, sp, #0
 8000db2:	6078      	str	r0, [r7, #4]

  GPIO_InitTypeDef GPIO_InitStruct = {0};
 8000db4:	f107 0310 	add.w	r3, r7, #16
 8000db8:	2200      	movs	r2, #0
 8000dba:	601a      	str	r2, [r3, #0]
 8000dbc:	605a      	str	r2, [r3, #4]
 8000dbe:	609a      	str	r2, [r3, #8]
 8000dc0:	60da      	str	r2, [r3, #12]
  if(uartHandle->Instance==USART1)
 8000dc2:	687b      	ldr	r3, [r7, #4]
 8000dc4:	681b      	ldr	r3, [r3, #0]
 8000dc6:	4a1c      	ldr	r2, [pc, #112]	; (8000e38 <HAL_UART_MspInit+0x8c>)
 8000dc8:	4293      	cmp	r3, r2
 8000dca:	d131      	bne.n	8000e30 <HAL_UART_MspInit+0x84>
  {
  /* USER CODE BEGIN USART1_MspInit 0 */

  /* USER CODE END USART1_MspInit 0 */
    /* USART1 clock enable */
    __HAL_RCC_USART1_CLK_ENABLE();
 8000dcc:	4b1b      	ldr	r3, [pc, #108]	; (8000e3c <HAL_UART_MspInit+0x90>)
 8000dce:	699b      	ldr	r3, [r3, #24]
 8000dd0:	4a1a      	ldr	r2, [pc, #104]	; (8000e3c <HAL_UART_MspInit+0x90>)
 8000dd2:	f443 4380 	orr.w	r3, r3, #16384	; 0x4000
 8000dd6:	6193      	str	r3, [r2, #24]
 8000dd8:	4b18      	ldr	r3, [pc, #96]	; (8000e3c <HAL_UART_MspInit+0x90>)
 8000dda:	699b      	ldr	r3, [r3, #24]
 8000ddc:	f403 4380 	and.w	r3, r3, #16384	; 0x4000
 8000de0:	60fb      	str	r3, [r7, #12]
 8000de2:	68fb      	ldr	r3, [r7, #12]

    __HAL_RCC_GPIOA_CLK_ENABLE();
 8000de4:	4b15      	ldr	r3, [pc, #84]	; (8000e3c <HAL_UART_MspInit+0x90>)
 8000de6:	699b      	ldr	r3, [r3, #24]
 8000de8:	4a14      	ldr	r2, [pc, #80]	; (8000e3c <HAL_UART_MspInit+0x90>)
 8000dea:	f043 0304 	orr.w	r3, r3, #4
 8000dee:	6193      	str	r3, [r2, #24]
 8000df0:	4b12      	ldr	r3, [pc, #72]	; (8000e3c <HAL_UART_MspInit+0x90>)
 8000df2:	699b      	ldr	r3, [r3, #24]
 8000df4:	f003 0304 	and.w	r3, r3, #4
 8000df8:	60bb      	str	r3, [r7, #8]
 8000dfa:	68bb      	ldr	r3, [r7, #8]
    /**USART1 GPIO Configuration
    PA9     ------> USART1_TX
    PA10     ------> USART1_RX
    */
    GPIO_InitStruct.Pin = GPIO_PIN_9;
 8000dfc:	f44f 7300 	mov.w	r3, #512	; 0x200
 8000e00:	613b      	str	r3, [r7, #16]
    GPIO_InitStruct.Mode = GPIO_MODE_AF_PP;
 8000e02:	2302      	movs	r3, #2
 8000e04:	617b      	str	r3, [r7, #20]
    GPIO_InitStruct.Speed = GPIO_SPEED_FREQ_HIGH;
 8000e06:	2303      	movs	r3, #3
 8000e08:	61fb      	str	r3, [r7, #28]
    HAL_GPIO_Init(GPIOA, &GPIO_InitStruct);
 8000e0a:	f107 0310 	add.w	r3, r7, #16
 8000e0e:	4619      	mov	r1, r3
 8000e10:	480b      	ldr	r0, [pc, #44]	; (8000e40 <HAL_UART_MspInit+0x94>)
 8000e12:	f000 f9d1 	bl	80011b8 <HAL_GPIO_Init>

    GPIO_InitStruct.Pin = GPIO_PIN_10;
 8000e16:	f44f 6380 	mov.w	r3, #1024	; 0x400
 8000e1a:	613b      	str	r3, [r7, #16]
    GPIO_InitStruct.Mode = GPIO_MODE_INPUT;
 8000e1c:	2300      	movs	r3, #0
 8000e1e:	617b      	str	r3, [r7, #20]
    GPIO_InitStruct.Pull = GPIO_NOPULL;
 8000e20:	2300      	movs	r3, #0
 8000e22:	61bb      	str	r3, [r7, #24]
    HAL_GPIO_Init(GPIOA, &GPIO_InitStruct);
 8000e24:	f107 0310 	add.w	r3, r7, #16
 8000e28:	4619      	mov	r1, r3
 8000e2a:	4805      	ldr	r0, [pc, #20]	; (8000e40 <HAL_UART_MspInit+0x94>)
 8000e2c:	f000 f9c4 	bl	80011b8 <HAL_GPIO_Init>

  /* USER CODE BEGIN USART1_MspInit 1 */

  /* USER CODE END USART1_MspInit 1 */
  }
}
 8000e30:	bf00      	nop
 8000e32:	3720      	adds	r7, #32
 8000e34:	46bd      	mov	sp, r7
 8000e36:	bd80      	pop	{r7, pc}
 8000e38:	40013800 	.word	0x40013800
 8000e3c:	40021000 	.word	0x40021000
 8000e40:	40010800 	.word	0x40010800

08000e44 <Reset_Handler>:
  .weak Reset_Handler
  .type Reset_Handler, %function
Reset_Handler:

/* Copy the data segment initializers from flash to SRAM */
  ldr r0, =_sdata
 8000e44:	480c      	ldr	r0, [pc, #48]	; (8000e78 <LoopFillZerobss+0x12>)
  ldr r1, =_edata
 8000e46:	490d      	ldr	r1, [pc, #52]	; (8000e7c <LoopFillZerobss+0x16>)
  ldr r2, =_sidata
 8000e48:	4a0d      	ldr	r2, [pc, #52]	; (8000e80 <LoopFillZerobss+0x1a>)
  movs r3, #0
 8000e4a:	2300      	movs	r3, #0
  b LoopCopyDataInit
 8000e4c:	e002      	b.n	8000e54 <LoopCopyDataInit>

08000e4e <CopyDataInit>:

CopyDataInit:
  ldr r4, [r2, r3]
 8000e4e:	58d4      	ldr	r4, [r2, r3]
  str r4, [r0, r3]
 8000e50:	50c4      	str	r4, [r0, r3]
  adds r3, r3, #4
 8000e52:	3304      	adds	r3, #4

08000e54 <LoopCopyDataInit>:

LoopCopyDataInit:
  adds r4, r0, r3
 8000e54:	18c4      	adds	r4, r0, r3
  cmp r4, r1
 8000e56:	428c      	cmp	r4, r1
  bcc CopyDataInit
 8000e58:	d3f9      	bcc.n	8000e4e <CopyDataInit>
  
/* Zero fill the bss segment. */
  ldr r2, =_sbss
 8000e5a:	4a0a      	ldr	r2, [pc, #40]	; (8000e84 <LoopFillZerobss+0x1e>)
  ldr r4, =_ebss
 8000e5c:	4c0a      	ldr	r4, [pc, #40]	; (8000e88 <LoopFillZerobss+0x22>)
  movs r3, #0
 8000e5e:	2300      	movs	r3, #0
  b LoopFillZerobss
 8000e60:	e001      	b.n	8000e66 <LoopFillZerobss>

08000e62 <FillZerobss>:

FillZerobss:
  str  r3, [r2]
 8000e62:	6013      	str	r3, [r2, #0]
  adds r2, r2, #4
 8000e64:	3204      	adds	r2, #4

08000e66 <LoopFillZerobss>:

LoopFillZerobss:
  cmp r2, r4
 8000e66:	42a2      	cmp	r2, r4
  bcc FillZerobss
 8000e68:	d3fb      	bcc.n	8000e62 <FillZerobss>

/* Call the clock system intitialization function.*/
    bl  SystemInit
 8000e6a:	f7ff fe93 	bl	8000b94 <SystemInit>
/* Call static constructors */
    bl __libc_init_array
 8000e6e:	f002 fa33 	bl	80032d8 <__libc_init_array>
/* Call the application's entry point.*/
  bl main
 8000e72:	f7ff f9cb 	bl	800020c <main>
  bx lr
 8000e76:	4770      	bx	lr
  ldr r0, =_sdata
 8000e78:	20000000 	.word	0x20000000
  ldr r1, =_edata
 8000e7c:	20000070 	.word	0x20000070
  ldr r2, =_sidata
 8000e80:	08004684 	.word	0x08004684
  ldr r2, =_sbss
 8000e84:	20000070 	.word	0x20000070
  ldr r4, =_ebss
 8000e88:	200001ec 	.word	0x200001ec

08000e8c <ADC1_2_IRQHandler>:
 * @retval : None
*/
    .section .text.Default_Handler,"ax",%progbits
Default_Handler:
Infinite_Loop:
  b Infinite_Loop
 8000e8c:	e7fe      	b.n	8000e8c <ADC1_2_IRQHandler>
	...

08000e90 <HAL_Init>:
  *         need to ensure that the SysTick time base is always set to 1 millisecond
  *         to have correct HAL operation.
  * @retval HAL status
  */
HAL_StatusTypeDef HAL_Init(void)
{
 8000e90:	b580      	push	{r7, lr}
 8000e92:	af00      	add	r7, sp, #0
    defined(STM32F102x6) || defined(STM32F102xB) || \
    defined(STM32F103x6) || defined(STM32F103xB) || defined(STM32F103xE) || defined(STM32F103xG) || \
    defined(STM32F105xC) || defined(STM32F107xC)

  /* Prefetch buffer is not available on value line devices */
  __HAL_FLASH_PREFETCH_BUFFER_ENABLE();
 8000e94:	4b08      	ldr	r3, [pc, #32]	; (8000eb8 <HAL_Init+0x28>)
 8000e96:	681b      	ldr	r3, [r3, #0]
 8000e98:	4a07      	ldr	r2, [pc, #28]	; (8000eb8 <HAL_Init+0x28>)
 8000e9a:	f043 0310 	orr.w	r3, r3, #16
 8000e9e:	6013      	str	r3, [r2, #0]
#endif
#endif /* PREFETCH_ENABLE */

  /* Set Interrupt Group Priority */
  HAL_NVIC_SetPriorityGrouping(NVIC_PRIORITYGROUP_4);
 8000ea0:	2003      	movs	r0, #3
 8000ea2:	f000 f947 	bl	8001134 <HAL_NVIC_SetPriorityGrouping>

  /* Use systick as time base source and configure 1ms tick (default clock after Reset is HSI) */
  HAL_InitTick(TICK_INT_PRIORITY);
 8000ea6:	200f      	movs	r0, #15
 8000ea8:	f000 f808 	bl	8000ebc <HAL_InitTick>

  /* Init the low level hardware */
  HAL_MspInit();
 8000eac:	f7ff fd6e 	bl	800098c <HAL_MspInit>

  /* Return function status */
  return HAL_OK;
 8000eb0:	2300      	movs	r3, #0
}
 8000eb2:	4618      	mov	r0, r3
 8000eb4:	bd80      	pop	{r7, pc}
 8000eb6:	bf00      	nop
 8000eb8:	40022000 	.word	0x40022000

08000ebc <HAL_InitTick>:
  *       implementation  in user file.
  * @param TickPriority Tick interrupt priority.
  * @retval HAL status
  */
__weak HAL_StatusTypeDef HAL_InitTick(uint32_t TickPriority)
{
 8000ebc:	b580      	push	{r7, lr}
 8000ebe:	b082      	sub	sp, #8
 8000ec0:	af00      	add	r7, sp, #0
 8000ec2:	6078      	str	r0, [r7, #4]
  /* Configure the SysTick to have interrupt in 1ms time basis*/
  if (HAL_SYSTICK_Config(SystemCoreClock / (1000U / uwTickFreq)) > 0U)
 8000ec4:	4b12      	ldr	r3, [pc, #72]	; (8000f10 <HAL_InitTick+0x54>)
 8000ec6:	681a      	ldr	r2, [r3, #0]
 8000ec8:	4b12      	ldr	r3, [pc, #72]	; (8000f14 <HAL_InitTick+0x58>)
 8000eca:	781b      	ldrb	r3, [r3, #0]
 8000ecc:	4619      	mov	r1, r3
 8000ece:	f44f 737a 	mov.w	r3, #1000	; 0x3e8
 8000ed2:	fbb3 f3f1 	udiv	r3, r3, r1
 8000ed6:	fbb2 f3f3 	udiv	r3, r2, r3
 8000eda:	4618      	mov	r0, r3
 8000edc:	f000 f95f 	bl	800119e <HAL_SYSTICK_Config>
 8000ee0:	4603      	mov	r3, r0
 8000ee2:	2b00      	cmp	r3, #0
 8000ee4:	d001      	beq.n	8000eea <HAL_InitTick+0x2e>
  {
    return HAL_ERROR;
 8000ee6:	2301      	movs	r3, #1
 8000ee8:	e00e      	b.n	8000f08 <HAL_InitTick+0x4c>
  }

  /* Configure the SysTick IRQ priority */
  if (TickPriority < (1UL << __NVIC_PRIO_BITS))
 8000eea:	687b      	ldr	r3, [r7, #4]
 8000eec:	2b0f      	cmp	r3, #15
 8000eee:	d80a      	bhi.n	8000f06 <HAL_InitTick+0x4a>
  {
    HAL_NVIC_SetPriority(SysTick_IRQn, TickPriority, 0U);
 8000ef0:	2200      	movs	r2, #0
 8000ef2:	6879      	ldr	r1, [r7, #4]
 8000ef4:	f04f 30ff 	mov.w	r0, #4294967295
 8000ef8:	f000 f927 	bl	800114a <HAL_NVIC_SetPriority>
    uwTickPrio = TickPriority;
 8000efc:	4a06      	ldr	r2, [pc, #24]	; (8000f18 <HAL_InitTick+0x5c>)
 8000efe:	687b      	ldr	r3, [r7, #4]
 8000f00:	6013      	str	r3, [r2, #0]
  {
    return HAL_ERROR;
  }

  /* Return function status */
  return HAL_OK;
 8000f02:	2300      	movs	r3, #0
 8000f04:	e000      	b.n	8000f08 <HAL_InitTick+0x4c>
    return HAL_ERROR;
 8000f06:	2301      	movs	r3, #1
}
 8000f08:	4618      	mov	r0, r3
 8000f0a:	3708      	adds	r7, #8
 8000f0c:	46bd      	mov	sp, r7
 8000f0e:	bd80      	pop	{r7, pc}
 8000f10:	20000000 	.word	0x20000000
 8000f14:	20000008 	.word	0x20000008
 8000f18:	20000004 	.word	0x20000004

08000f1c <HAL_IncTick>:
  * @note This function is declared as __weak to be overwritten in case of other
  *      implementations in user file.
  * @retval None
  */
__weak void HAL_IncTick(void)
{
 8000f1c:	b480      	push	{r7}
 8000f1e:	af00      	add	r7, sp, #0
  uwTick += uwTickFreq;
 8000f20:	4b05      	ldr	r3, [pc, #20]	; (8000f38 <HAL_IncTick+0x1c>)
 8000f22:	781b      	ldrb	r3, [r3, #0]
 8000f24:	461a      	mov	r2, r3
 8000f26:	4b05      	ldr	r3, [pc, #20]	; (8000f3c <HAL_IncTick+0x20>)
 8000f28:	681b      	ldr	r3, [r3, #0]
 8000f2a:	4413      	add	r3, r2
 8000f2c:	4a03      	ldr	r2, [pc, #12]	; (8000f3c <HAL_IncTick+0x20>)
 8000f2e:	6013      	str	r3, [r2, #0]
}
 8000f30:	bf00      	nop
 8000f32:	46bd      	mov	sp, r7
 8000f34:	bc80      	pop	{r7}
 8000f36:	4770      	bx	lr
 8000f38:	20000008 	.word	0x20000008
 8000f3c:	200001d8 	.word	0x200001d8

08000f40 <HAL_GetTick>:
  * @note  This function is declared as __weak to be overwritten in case of other
  *       implementations in user file.
  * @retval tick value
  */
__weak uint32_t HAL_GetTick(void)
{
 8000f40:	b480      	push	{r7}
 8000f42:	af00      	add	r7, sp, #0
  return uwTick;
 8000f44:	4b02      	ldr	r3, [pc, #8]	; (8000f50 <HAL_GetTick+0x10>)
 8000f46:	681b      	ldr	r3, [r3, #0]
}
 8000f48:	4618      	mov	r0, r3
 8000f4a:	46bd      	mov	sp, r7
 8000f4c:	bc80      	pop	{r7}
 8000f4e:	4770      	bx	lr
 8000f50:	200001d8 	.word	0x200001d8

08000f54 <HAL_Delay>:
  *       implementations in user file.
  * @param Delay specifies the delay time length, in milliseconds.
  * @retval None
  */
__weak void HAL_Delay(uint32_t Delay)
{
 8000f54:	b580      	push	{r7, lr}
 8000f56:	b084      	sub	sp, #16
 8000f58:	af00      	add	r7, sp, #0
 8000f5a:	6078      	str	r0, [r7, #4]
  uint32_t tickstart = HAL_GetTick();
 8000f5c:	f7ff fff0 	bl	8000f40 <HAL_GetTick>
 8000f60:	60b8      	str	r0, [r7, #8]
  uint32_t wait = Delay;
 8000f62:	687b      	ldr	r3, [r7, #4]
 8000f64:	60fb      	str	r3, [r7, #12]

  /* Add a freq to guarantee minimum wait */
  if (wait < HAL_MAX_DELAY)
 8000f66:	68fb      	ldr	r3, [r7, #12]
 8000f68:	f1b3 3fff 	cmp.w	r3, #4294967295
 8000f6c:	d005      	beq.n	8000f7a <HAL_Delay+0x26>
  {
    wait += (uint32_t)(uwTickFreq);
 8000f6e:	4b0a      	ldr	r3, [pc, #40]	; (8000f98 <HAL_Delay+0x44>)
 8000f70:	781b      	ldrb	r3, [r3, #0]
 8000f72:	461a      	mov	r2, r3
 8000f74:	68fb      	ldr	r3, [r7, #12]
 8000f76:	4413      	add	r3, r2
 8000f78:	60fb      	str	r3, [r7, #12]
  }

  while ((HAL_GetTick() - tickstart) < wait)
 8000f7a:	bf00      	nop
 8000f7c:	f7ff ffe0 	bl	8000f40 <HAL_GetTick>
 8000f80:	4602      	mov	r2, r0
 8000f82:	68bb      	ldr	r3, [r7, #8]
 8000f84:	1ad3      	subs	r3, r2, r3
 8000f86:	68fa      	ldr	r2, [r7, #12]
 8000f88:	429a      	cmp	r2, r3
 8000f8a:	d8f7      	bhi.n	8000f7c <HAL_Delay+0x28>
  {
  }
}
 8000f8c:	bf00      	nop
 8000f8e:	bf00      	nop
 8000f90:	3710      	adds	r7, #16
 8000f92:	46bd      	mov	sp, r7
 8000f94:	bd80      	pop	{r7, pc}
 8000f96:	bf00      	nop
 8000f98:	20000008 	.word	0x20000008

08000f9c <__NVIC_SetPriorityGrouping>:
           In case of a conflict between priority grouping and available
           priority bits (__NVIC_PRIO_BITS), the smallest possible priority group is set.
  \param [in]      PriorityGroup  Priority grouping field.
 */
__STATIC_INLINE void __NVIC_SetPriorityGrouping(uint32_t PriorityGroup)
{
 8000f9c:	b480      	push	{r7}
 8000f9e:	b085      	sub	sp, #20
 8000fa0:	af00      	add	r7, sp, #0
 8000fa2:	6078      	str	r0, [r7, #4]
  uint32_t reg_value;
  uint32_t PriorityGroupTmp = (PriorityGroup & (uint32_t)0x07UL);             /* only values 0..7 are used          */
 8000fa4:	687b      	ldr	r3, [r7, #4]
 8000fa6:	f003 0307 	and.w	r3, r3, #7
 8000faa:	60fb      	str	r3, [r7, #12]

  reg_value  =  SCB->AIRCR;                                                   /* read old register configuration    */
 8000fac:	4b0c      	ldr	r3, [pc, #48]	; (8000fe0 <__NVIC_SetPriorityGrouping+0x44>)
 8000fae:	68db      	ldr	r3, [r3, #12]
 8000fb0:	60bb      	str	r3, [r7, #8]
  reg_value &= ~((uint32_t)(SCB_AIRCR_VECTKEY_Msk | SCB_AIRCR_PRIGROUP_Msk)); /* clear bits to change               */
 8000fb2:	68ba      	ldr	r2, [r7, #8]
 8000fb4:	f64f 03ff 	movw	r3, #63743	; 0xf8ff
 8000fb8:	4013      	ands	r3, r2
 8000fba:	60bb      	str	r3, [r7, #8]
  reg_value  =  (reg_value                                   |
                ((uint32_t)0x5FAUL << SCB_AIRCR_VECTKEY_Pos) |
                (PriorityGroupTmp << SCB_AIRCR_PRIGROUP_Pos) );               /* Insert write key and priority group */
 8000fbc:	68fb      	ldr	r3, [r7, #12]
 8000fbe:	021a      	lsls	r2, r3, #8
                ((uint32_t)0x5FAUL << SCB_AIRCR_VECTKEY_Pos) |
 8000fc0:	68bb      	ldr	r3, [r7, #8]
 8000fc2:	4313      	orrs	r3, r2
  reg_value  =  (reg_value                                   |
 8000fc4:	f043 63bf 	orr.w	r3, r3, #100139008	; 0x5f80000
 8000fc8:	f443 3300 	orr.w	r3, r3, #131072	; 0x20000
 8000fcc:	60bb      	str	r3, [r7, #8]
  SCB->AIRCR =  reg_value;
 8000fce:	4a04      	ldr	r2, [pc, #16]	; (8000fe0 <__NVIC_SetPriorityGrouping+0x44>)
 8000fd0:	68bb      	ldr	r3, [r7, #8]
 8000fd2:	60d3      	str	r3, [r2, #12]
}
 8000fd4:	bf00      	nop
 8000fd6:	3714      	adds	r7, #20
 8000fd8:	46bd      	mov	sp, r7
 8000fda:	bc80      	pop	{r7}
 8000fdc:	4770      	bx	lr
 8000fde:	bf00      	nop
 8000fe0:	e000ed00 	.word	0xe000ed00

08000fe4 <__NVIC_GetPriorityGrouping>:
  \brief   Get Priority Grouping
  \details Reads the priority grouping field from the NVIC Interrupt Controller.
  \return                Priority grouping field (SCB->AIRCR [10:8] PRIGROUP field).
 */
__STATIC_INLINE uint32_t __NVIC_GetPriorityGrouping(void)
{
 8000fe4:	b480      	push	{r7}
 8000fe6:	af00      	add	r7, sp, #0
  return ((uint32_t)((SCB->AIRCR & SCB_AIRCR_PRIGROUP_Msk) >> SCB_AIRCR_PRIGROUP_Pos));
 8000fe8:	4b04      	ldr	r3, [pc, #16]	; (8000ffc <__NVIC_GetPriorityGrouping+0x18>)
 8000fea:	68db      	ldr	r3, [r3, #12]
 8000fec:	0a1b      	lsrs	r3, r3, #8
 8000fee:	f003 0307 	and.w	r3, r3, #7
}
 8000ff2:	4618      	mov	r0, r3
 8000ff4:	46bd      	mov	sp, r7
 8000ff6:	bc80      	pop	{r7}
 8000ff8:	4770      	bx	lr
 8000ffa:	bf00      	nop
 8000ffc:	e000ed00 	.word	0xe000ed00

08001000 <__NVIC_EnableIRQ>:
  \details Enables a device specific interrupt in the NVIC interrupt controller.
  \param [in]      IRQn  Device specific interrupt number.
  \note    IRQn must not be negative.
 */
__STATIC_INLINE void __NVIC_EnableIRQ(IRQn_Type IRQn)
{
 8001000:	b480      	push	{r7}
 8001002:	b083      	sub	sp, #12
 8001004:	af00      	add	r7, sp, #0
 8001006:	4603      	mov	r3, r0
 8001008:	71fb      	strb	r3, [r7, #7]
  if ((int32_t)(IRQn) >= 0)
 800100a:	f997 3007 	ldrsb.w	r3, [r7, #7]
 800100e:	2b00      	cmp	r3, #0
 8001010:	db0b      	blt.n	800102a <__NVIC_EnableIRQ+0x2a>
  {
    NVIC->ISER[(((uint32_t)IRQn) >> 5UL)] = (uint32_t)(1UL << (((uint32_t)IRQn) & 0x1FUL));
 8001012:	79fb      	ldrb	r3, [r7, #7]
 8001014:	f003 021f 	and.w	r2, r3, #31
 8001018:	4906      	ldr	r1, [pc, #24]	; (8001034 <__NVIC_EnableIRQ+0x34>)
 800101a:	f997 3007 	ldrsb.w	r3, [r7, #7]
 800101e:	095b      	lsrs	r3, r3, #5
 8001020:	2001      	movs	r0, #1
 8001022:	fa00 f202 	lsl.w	r2, r0, r2
 8001026:	f841 2023 	str.w	r2, [r1, r3, lsl #2]
  }
}
 800102a:	bf00      	nop
 800102c:	370c      	adds	r7, #12
 800102e:	46bd      	mov	sp, r7
 8001030:	bc80      	pop	{r7}
 8001032:	4770      	bx	lr
 8001034:	e000e100 	.word	0xe000e100

08001038 <__NVIC_SetPriority>:
  \param [in]      IRQn  Interrupt number.
  \param [in]  priority  Priority to set.
  \note    The priority cannot be set for every processor exception.
 */
__STATIC_INLINE void __NVIC_SetPriority(IRQn_Type IRQn, uint32_t priority)
{
 8001038:	b480      	push	{r7}
 800103a:	b083      	sub	sp, #12
 800103c:	af00      	add	r7, sp, #0
 800103e:	4603      	mov	r3, r0
 8001040:	6039      	str	r1, [r7, #0]
 8001042:	71fb      	strb	r3, [r7, #7]
  if ((int32_t)(IRQn) >= 0)
 8001044:	f997 3007 	ldrsb.w	r3, [r7, #7]
 8001048:	2b00      	cmp	r3, #0
 800104a:	db0a      	blt.n	8001062 <__NVIC_SetPriority+0x2a>
  {
    NVIC->IP[((uint32_t)IRQn)]               = (uint8_t)((priority << (8U - __NVIC_PRIO_BITS)) & (uint32_t)0xFFUL);
 800104c:	683b      	ldr	r3, [r7, #0]
 800104e:	b2da      	uxtb	r2, r3
 8001050:	490c      	ldr	r1, [pc, #48]	; (8001084 <__NVIC_SetPriority+0x4c>)
 8001052:	f997 3007 	ldrsb.w	r3, [r7, #7]
 8001056:	0112      	lsls	r2, r2, #4
 8001058:	b2d2      	uxtb	r2, r2
 800105a:	440b      	add	r3, r1
 800105c:	f883 2300 	strb.w	r2, [r3, #768]	; 0x300
  }
  else
  {
    SCB->SHP[(((uint32_t)IRQn) & 0xFUL)-4UL] = (uint8_t)((priority << (8U - __NVIC_PRIO_BITS)) & (uint32_t)0xFFUL);
  }
}
 8001060:	e00a      	b.n	8001078 <__NVIC_SetPriority+0x40>
    SCB->SHP[(((uint32_t)IRQn) & 0xFUL)-4UL] = (uint8_t)((priority << (8U - __NVIC_PRIO_BITS)) & (uint32_t)0xFFUL);
 8001062:	683b      	ldr	r3, [r7, #0]
 8001064:	b2da      	uxtb	r2, r3
 8001066:	4908      	ldr	r1, [pc, #32]	; (8001088 <__NVIC_SetPriority+0x50>)
 8001068:	79fb      	ldrb	r3, [r7, #7]
 800106a:	f003 030f 	and.w	r3, r3, #15
 800106e:	3b04      	subs	r3, #4
 8001070:	0112      	lsls	r2, r2, #4
 8001072:	b2d2      	uxtb	r2, r2
 8001074:	440b      	add	r3, r1
 8001076:	761a      	strb	r2, [r3, #24]
}
 8001078:	bf00      	nop
 800107a:	370c      	adds	r7, #12
 800107c:	46bd      	mov	sp, r7
 800107e:	bc80      	pop	{r7}
 8001080:	4770      	bx	lr
 8001082:	bf00      	nop
 8001084:	e000e100 	.word	0xe000e100
 8001088:	e000ed00 	.word	0xe000ed00

0800108c <NVIC_EncodePriority>:
  \param [in]   PreemptPriority  Preemptive priority value (starting from 0).
  \param [in]       SubPriority  Subpriority value (starting from 0).
  \return                        Encoded priority. Value can be used in the function \ref NVIC_SetPriority().
 */
__STATIC_INLINE uint32_t NVIC_EncodePriority (uint32_t PriorityGroup, uint32_t PreemptPriority, uint32_t SubPriority)
{
 800108c:	b480      	push	{r7}
 800108e:	b089      	sub	sp, #36	; 0x24
 8001090:	af00      	add	r7, sp, #0
 8001092:	60f8      	str	r0, [r7, #12]
 8001094:	60b9      	str	r1, [r7, #8]
 8001096:	607a      	str	r2, [r7, #4]
  uint32_t PriorityGroupTmp = (PriorityGroup & (uint32_t)0x07UL);   /* only values 0..7 are used          */
 8001098:	68fb      	ldr	r3, [r7, #12]
 800109a:	f003 0307 	and.w	r3, r3, #7
 800109e:	61fb      	str	r3, [r7, #28]
  uint32_t PreemptPriorityBits;
  uint32_t SubPriorityBits;

  PreemptPriorityBits = ((7UL - PriorityGroupTmp) > (uint32_t)(__NVIC_PRIO_BITS)) ? (uint32_t)(__NVIC_PRIO_BITS) : (uint32_t)(7UL - PriorityGroupTmp);
 80010a0:	69fb      	ldr	r3, [r7, #28]
 80010a2:	f1c3 0307 	rsb	r3, r3, #7
 80010a6:	2b04      	cmp	r3, #4
 80010a8:	bf28      	it	cs
 80010aa:	2304      	movcs	r3, #4
 80010ac:	61bb      	str	r3, [r7, #24]
  SubPriorityBits     = ((PriorityGroupTmp + (uint32_t)(__NVIC_PRIO_BITS)) < (uint32_t)7UL) ? (uint32_t)0UL : (uint32_t)((PriorityGroupTmp - 7UL) + (uint32_t)(__NVIC_PRIO_BITS));
 80010ae:	69fb      	ldr	r3, [r7, #28]
 80010b0:	3304      	adds	r3, #4
 80010b2:	2b06      	cmp	r3, #6
 80010b4:	d902      	bls.n	80010bc <NVIC_EncodePriority+0x30>
 80010b6:	69fb      	ldr	r3, [r7, #28]
 80010b8:	3b03      	subs	r3, #3
 80010ba:	e000      	b.n	80010be <NVIC_EncodePriority+0x32>
 80010bc:	2300      	movs	r3, #0
 80010be:	617b      	str	r3, [r7, #20]

  return (
           ((PreemptPriority & (uint32_t)((1UL << (PreemptPriorityBits)) - 1UL)) << SubPriorityBits) |
 80010c0:	f04f 32ff 	mov.w	r2, #4294967295
 80010c4:	69bb      	ldr	r3, [r7, #24]
 80010c6:	fa02 f303 	lsl.w	r3, r2, r3
 80010ca:	43da      	mvns	r2, r3
 80010cc:	68bb      	ldr	r3, [r7, #8]
 80010ce:	401a      	ands	r2, r3
 80010d0:	697b      	ldr	r3, [r7, #20]
 80010d2:	409a      	lsls	r2, r3
           ((SubPriority     & (uint32_t)((1UL << (SubPriorityBits    )) - 1UL)))
 80010d4:	f04f 31ff 	mov.w	r1, #4294967295
 80010d8:	697b      	ldr	r3, [r7, #20]
 80010da:	fa01 f303 	lsl.w	r3, r1, r3
 80010de:	43d9      	mvns	r1, r3
 80010e0:	687b      	ldr	r3, [r7, #4]
 80010e2:	400b      	ands	r3, r1
           ((PreemptPriority & (uint32_t)((1UL << (PreemptPriorityBits)) - 1UL)) << SubPriorityBits) |
 80010e4:	4313      	orrs	r3, r2
         );
}
 80010e6:	4618      	mov	r0, r3
 80010e8:	3724      	adds	r7, #36	; 0x24
 80010ea:	46bd      	mov	sp, r7
 80010ec:	bc80      	pop	{r7}
 80010ee:	4770      	bx	lr

080010f0 <SysTick_Config>:
  \note    When the variable <b>__Vendor_SysTickConfig</b> is set to 1, then the
           function <b>SysTick_Config</b> is not included. In this case, the file <b><i>device</i>.h</b>
           must contain a vendor-specific implementation of this function.
 */
__STATIC_INLINE uint32_t SysTick_Config(uint32_t ticks)
{
 80010f0:	b580      	push	{r7, lr}
 80010f2:	b082      	sub	sp, #8
 80010f4:	af00      	add	r7, sp, #0
 80010f6:	6078      	str	r0, [r7, #4]
  if ((ticks - 1UL) > SysTick_LOAD_RELOAD_Msk)
 80010f8:	687b      	ldr	r3, [r7, #4]
 80010fa:	3b01      	subs	r3, #1
 80010fc:	f1b3 7f80 	cmp.w	r3, #16777216	; 0x1000000
 8001100:	d301      	bcc.n	8001106 <SysTick_Config+0x16>
  {
    return (1UL);                                                   /* Reload value impossible */
 8001102:	2301      	movs	r3, #1
 8001104:	e00f      	b.n	8001126 <SysTick_Config+0x36>
  }

  SysTick->LOAD  = (uint32_t)(ticks - 1UL);                         /* set reload register */
 8001106:	4a0a      	ldr	r2, [pc, #40]	; (8001130 <SysTick_Config+0x40>)
 8001108:	687b      	ldr	r3, [r7, #4]
 800110a:	3b01      	subs	r3, #1
 800110c:	6053      	str	r3, [r2, #4]
  NVIC_SetPriority (SysTick_IRQn, (1UL << __NVIC_PRIO_BITS) - 1UL); /* set Priority for Systick Interrupt */
 800110e:	210f      	movs	r1, #15
 8001110:	f04f 30ff 	mov.w	r0, #4294967295
 8001114:	f7ff ff90 	bl	8001038 <__NVIC_SetPriority>
  SysTick->VAL   = 0UL;                                             /* Load the SysTick Counter Value */
 8001118:	4b05      	ldr	r3, [pc, #20]	; (8001130 <SysTick_Config+0x40>)
 800111a:	2200      	movs	r2, #0
 800111c:	609a      	str	r2, [r3, #8]
  SysTick->CTRL  = SysTick_CTRL_CLKSOURCE_Msk |
 800111e:	4b04      	ldr	r3, [pc, #16]	; (8001130 <SysTick_Config+0x40>)
 8001120:	2207      	movs	r2, #7
 8001122:	601a      	str	r2, [r3, #0]
                   SysTick_CTRL_TICKINT_Msk   |
                   SysTick_CTRL_ENABLE_Msk;                         /* Enable SysTick IRQ and SysTick Timer */
  return (0UL);                                                     /* Function successful */
 8001124:	2300      	movs	r3, #0
}
 8001126:	4618      	mov	r0, r3
 8001128:	3708      	adds	r7, #8
 800112a:	46bd      	mov	sp, r7
 800112c:	bd80      	pop	{r7, pc}
 800112e:	bf00      	nop
 8001130:	e000e010 	.word	0xe000e010

08001134 <HAL_NVIC_SetPriorityGrouping>:
  * @note   When the NVIC_PriorityGroup_0 is selected, IRQ preemption is no more possible. 
  *         The pending IRQ priority will be managed only by the subpriority. 
  * @retval None
  */
void HAL_NVIC_SetPriorityGrouping(uint32_t PriorityGroup)
{
 8001134:	b580      	push	{r7, lr}
 8001136:	b082      	sub	sp, #8
 8001138:	af00      	add	r7, sp, #0
 800113a:	6078      	str	r0, [r7, #4]
  /* Check the parameters */
  assert_param(IS_NVIC_PRIORITY_GROUP(PriorityGroup));
  
  /* Set the PRIGROUP[10:8] bits according to the PriorityGroup parameter value */
  NVIC_SetPriorityGrouping(PriorityGroup);
 800113c:	6878      	ldr	r0, [r7, #4]
 800113e:	f7ff ff2d 	bl	8000f9c <__NVIC_SetPriorityGrouping>
}
 8001142:	bf00      	nop
 8001144:	3708      	adds	r7, #8
 8001146:	46bd      	mov	sp, r7
 8001148:	bd80      	pop	{r7, pc}

0800114a <HAL_NVIC_SetPriority>:
  *         This parameter can be a value between 0 and 15
  *         A lower priority value indicates a higher priority.          
  * @retval None
  */
void HAL_NVIC_SetPriority(IRQn_Type IRQn, uint32_t PreemptPriority, uint32_t SubPriority)
{ 
 800114a:	b580      	push	{r7, lr}
 800114c:	b086      	sub	sp, #24
 800114e:	af00      	add	r7, sp, #0
 8001150:	4603      	mov	r3, r0
 8001152:	60b9      	str	r1, [r7, #8]
 8001154:	607a      	str	r2, [r7, #4]
 8001156:	73fb      	strb	r3, [r7, #15]
  uint32_t prioritygroup = 0x00U;
 8001158:	2300      	movs	r3, #0
 800115a:	617b      	str	r3, [r7, #20]
  
  /* Check the parameters */
  assert_param(IS_NVIC_SUB_PRIORITY(SubPriority));
  assert_param(IS_NVIC_PREEMPTION_PRIORITY(PreemptPriority));
  
  prioritygroup = NVIC_GetPriorityGrouping();
 800115c:	f7ff ff42 	bl	8000fe4 <__NVIC_GetPriorityGrouping>
 8001160:	6178      	str	r0, [r7, #20]
  
  NVIC_SetPriority(IRQn, NVIC_EncodePriority(prioritygroup, PreemptPriority, SubPriority));
 8001162:	687a      	ldr	r2, [r7, #4]
 8001164:	68b9      	ldr	r1, [r7, #8]
 8001166:	6978      	ldr	r0, [r7, #20]
 8001168:	f7ff ff90 	bl	800108c <NVIC_EncodePriority>
 800116c:	4602      	mov	r2, r0
 800116e:	f997 300f 	ldrsb.w	r3, [r7, #15]
 8001172:	4611      	mov	r1, r2
 8001174:	4618      	mov	r0, r3
 8001176:	f7ff ff5f 	bl	8001038 <__NVIC_SetPriority>
}
 800117a:	bf00      	nop
 800117c:	3718      	adds	r7, #24
 800117e:	46bd      	mov	sp, r7
 8001180:	bd80      	pop	{r7, pc}

08001182 <HAL_NVIC_EnableIRQ>:
  *         This parameter can be an enumerator of IRQn_Type enumeration
  *         (For the complete STM32 Devices IRQ Channels list, please refer to the appropriate CMSIS device file (stm32f10xxx.h))
  * @retval None
  */
void HAL_NVIC_EnableIRQ(IRQn_Type IRQn)
{
 8001182:	b580      	push	{r7, lr}
 8001184:	b082      	sub	sp, #8
 8001186:	af00      	add	r7, sp, #0
 8001188:	4603      	mov	r3, r0
 800118a:	71fb      	strb	r3, [r7, #7]
  /* Check the parameters */
  assert_param(IS_NVIC_DEVICE_IRQ(IRQn));

  /* Enable interrupt */
  NVIC_EnableIRQ(IRQn);
 800118c:	f997 3007 	ldrsb.w	r3, [r7, #7]
 8001190:	4618      	mov	r0, r3
 8001192:	f7ff ff35 	bl	8001000 <__NVIC_EnableIRQ>
}
 8001196:	bf00      	nop
 8001198:	3708      	adds	r7, #8
 800119a:	46bd      	mov	sp, r7
 800119c:	bd80      	pop	{r7, pc}

0800119e <HAL_SYSTICK_Config>:
  * @param  TicksNumb: Specifies the ticks Number of ticks between two interrupts.
  * @retval status:  - 0  Function succeeded.
  *                  - 1  Function failed.
  */
uint32_t HAL_SYSTICK_Config(uint32_t TicksNumb)
{
 800119e:	b580      	push	{r7, lr}
 80011a0:	b082      	sub	sp, #8
 80011a2:	af00      	add	r7, sp, #0
 80011a4:	6078      	str	r0, [r7, #4]
   return SysTick_Config(TicksNumb);
 80011a6:	6878      	ldr	r0, [r7, #4]
 80011a8:	f7ff ffa2 	bl	80010f0 <SysTick_Config>
 80011ac:	4603      	mov	r3, r0
}
 80011ae:	4618      	mov	r0, r3
 80011b0:	3708      	adds	r7, #8
 80011b2:	46bd      	mov	sp, r7
 80011b4:	bd80      	pop	{r7, pc}
	...

080011b8 <HAL_GPIO_Init>:
  * @param  GPIO_Init: pointer to a GPIO_InitTypeDef structure that contains
  *         the configuration information for the specified GPIO peripheral.
  * @retval None
  */
void HAL_GPIO_Init(GPIO_TypeDef  *GPIOx, GPIO_InitTypeDef *GPIO_Init)
{
 80011b8:	b480      	push	{r7}
 80011ba:	b08b      	sub	sp, #44	; 0x2c
 80011bc:	af00      	add	r7, sp, #0
 80011be:	6078      	str	r0, [r7, #4]
 80011c0:	6039      	str	r1, [r7, #0]
  uint32_t position = 0x00u;
 80011c2:	2300      	movs	r3, #0
 80011c4:	627b      	str	r3, [r7, #36]	; 0x24
  uint32_t ioposition;
  uint32_t iocurrent;
  uint32_t temp;
  uint32_t config = 0x00u;
 80011c6:	2300      	movs	r3, #0
 80011c8:	623b      	str	r3, [r7, #32]
  assert_param(IS_GPIO_ALL_INSTANCE(GPIOx));
  assert_param(IS_GPIO_PIN(GPIO_Init->Pin));
  assert_param(IS_GPIO_MODE(GPIO_Init->Mode));

  /* Configure the port pins */
  while (((GPIO_Init->Pin) >> position) != 0x00u)
 80011ca:	e169      	b.n	80014a0 <HAL_GPIO_Init+0x2e8>
  {
    /* Get the IO position */
    ioposition = (0x01uL << position);
 80011cc:	2201      	movs	r2, #1
 80011ce:	6a7b      	ldr	r3, [r7, #36]	; 0x24
 80011d0:	fa02 f303 	lsl.w	r3, r2, r3
 80011d4:	61fb      	str	r3, [r7, #28]

    /* Get the current IO position */
    iocurrent = (uint32_t)(GPIO_Init->Pin) & ioposition;
 80011d6:	683b      	ldr	r3, [r7, #0]
 80011d8:	681b      	ldr	r3, [r3, #0]
 80011da:	69fa      	ldr	r2, [r7, #28]
 80011dc:	4013      	ands	r3, r2
 80011de:	61bb      	str	r3, [r7, #24]

    if (iocurrent == ioposition)
 80011e0:	69ba      	ldr	r2, [r7, #24]
 80011e2:	69fb      	ldr	r3, [r7, #28]
 80011e4:	429a      	cmp	r2, r3
 80011e6:	f040 8158 	bne.w	800149a <HAL_GPIO_Init+0x2e2>
    {
      /* Check the Alternate function parameters */
      assert_param(IS_GPIO_AF_INSTANCE(GPIOx));

      /* Based on the required mode, filling config variable with MODEy[1:0] and CNFy[3:2] corresponding bits */
      switch (GPIO_Init->Mode)
 80011ea:	683b      	ldr	r3, [r7, #0]
 80011ec:	685b      	ldr	r3, [r3, #4]
 80011ee:	4a9a      	ldr	r2, [pc, #616]	; (8001458 <HAL_GPIO_Init+0x2a0>)
 80011f0:	4293      	cmp	r3, r2
 80011f2:	d05e      	beq.n	80012b2 <HAL_GPIO_Init+0xfa>
 80011f4:	4a98      	ldr	r2, [pc, #608]	; (8001458 <HAL_GPIO_Init+0x2a0>)
 80011f6:	4293      	cmp	r3, r2
 80011f8:	d875      	bhi.n	80012e6 <HAL_GPIO_Init+0x12e>
 80011fa:	4a98      	ldr	r2, [pc, #608]	; (800145c <HAL_GPIO_Init+0x2a4>)
 80011fc:	4293      	cmp	r3, r2
 80011fe:	d058      	beq.n	80012b2 <HAL_GPIO_Init+0xfa>
 8001200:	4a96      	ldr	r2, [pc, #600]	; (800145c <HAL_GPIO_Init+0x2a4>)
 8001202:	4293      	cmp	r3, r2
 8001204:	d86f      	bhi.n	80012e6 <HAL_GPIO_Init+0x12e>
 8001206:	4a96      	ldr	r2, [pc, #600]	; (8001460 <HAL_GPIO_Init+0x2a8>)
 8001208:	4293      	cmp	r3, r2
 800120a:	d052      	beq.n	80012b2 <HAL_GPIO_Init+0xfa>
 800120c:	4a94      	ldr	r2, [pc, #592]	; (8001460 <HAL_GPIO_Init+0x2a8>)
 800120e:	4293      	cmp	r3, r2
 8001210:	d869      	bhi.n	80012e6 <HAL_GPIO_Init+0x12e>
 8001212:	4a94      	ldr	r2, [pc, #592]	; (8001464 <HAL_GPIO_Init+0x2ac>)
 8001214:	4293      	cmp	r3, r2
 8001216:	d04c      	beq.n	80012b2 <HAL_GPIO_Init+0xfa>
 8001218:	4a92      	ldr	r2, [pc, #584]	; (8001464 <HAL_GPIO_Init+0x2ac>)
 800121a:	4293      	cmp	r3, r2
 800121c:	d863      	bhi.n	80012e6 <HAL_GPIO_Init+0x12e>
 800121e:	4a92      	ldr	r2, [pc, #584]	; (8001468 <HAL_GPIO_Init+0x2b0>)
 8001220:	4293      	cmp	r3, r2
 8001222:	d046      	beq.n	80012b2 <HAL_GPIO_Init+0xfa>
 8001224:	4a90      	ldr	r2, [pc, #576]	; (8001468 <HAL_GPIO_Init+0x2b0>)
 8001226:	4293      	cmp	r3, r2
 8001228:	d85d      	bhi.n	80012e6 <HAL_GPIO_Init+0x12e>
 800122a:	2b12      	cmp	r3, #18
 800122c:	d82a      	bhi.n	8001284 <HAL_GPIO_Init+0xcc>
 800122e:	2b12      	cmp	r3, #18
 8001230:	d859      	bhi.n	80012e6 <HAL_GPIO_Init+0x12e>
 8001232:	a201      	add	r2, pc, #4	; (adr r2, 8001238 <HAL_GPIO_Init+0x80>)
 8001234:	f852 f023 	ldr.w	pc, [r2, r3, lsl #2]
 8001238:	080012b3 	.word	0x080012b3
 800123c:	0800128d 	.word	0x0800128d
 8001240:	0800129f 	.word	0x0800129f
 8001244:	080012e1 	.word	0x080012e1
 8001248:	080012e7 	.word	0x080012e7
 800124c:	080012e7 	.word	0x080012e7
 8001250:	080012e7 	.word	0x080012e7
 8001254:	080012e7 	.word	0x080012e7
 8001258:	080012e7 	.word	0x080012e7
 800125c:	080012e7 	.word	0x080012e7
 8001260:	080012e7 	.word	0x080012e7
 8001264:	080012e7 	.word	0x080012e7
 8001268:	080012e7 	.word	0x080012e7
 800126c:	080012e7 	.word	0x080012e7
 8001270:	080012e7 	.word	0x080012e7
 8001274:	080012e7 	.word	0x080012e7
 8001278:	080012e7 	.word	0x080012e7
 800127c:	08001295 	.word	0x08001295
 8001280:	080012a9 	.word	0x080012a9
 8001284:	4a79      	ldr	r2, [pc, #484]	; (800146c <HAL_GPIO_Init+0x2b4>)
 8001286:	4293      	cmp	r3, r2
 8001288:	d013      	beq.n	80012b2 <HAL_GPIO_Init+0xfa>
          config = GPIO_CR_MODE_INPUT + GPIO_CR_CNF_ANALOG;
          break;

        /* Parameters are checked with assert_param */
        default:
          break;
 800128a:	e02c      	b.n	80012e6 <HAL_GPIO_Init+0x12e>
          config = GPIO_Init->Speed + GPIO_CR_CNF_GP_OUTPUT_PP;
 800128c:	683b      	ldr	r3, [r7, #0]
 800128e:	68db      	ldr	r3, [r3, #12]
 8001290:	623b      	str	r3, [r7, #32]
          break;
 8001292:	e029      	b.n	80012e8 <HAL_GPIO_Init+0x130>
          config = GPIO_Init->Speed + GPIO_CR_CNF_GP_OUTPUT_OD;
 8001294:	683b      	ldr	r3, [r7, #0]
 8001296:	68db      	ldr	r3, [r3, #12]
 8001298:	3304      	adds	r3, #4
 800129a:	623b      	str	r3, [r7, #32]
          break;
 800129c:	e024      	b.n	80012e8 <HAL_GPIO_Init+0x130>
          config = GPIO_Init->Speed + GPIO_CR_CNF_AF_OUTPUT_PP;
 800129e:	683b      	ldr	r3, [r7, #0]
 80012a0:	68db      	ldr	r3, [r3, #12]
 80012a2:	3308      	adds	r3, #8
 80012a4:	623b      	str	r3, [r7, #32]
          break;
 80012a6:	e01f      	b.n	80012e8 <HAL_GPIO_Init+0x130>
          config = GPIO_Init->Speed + GPIO_CR_CNF_AF_OUTPUT_OD;
 80012a8:	683b      	ldr	r3, [r7, #0]
 80012aa:	68db      	ldr	r3, [r3, #12]
 80012ac:	330c      	adds	r3, #12
 80012ae:	623b      	str	r3, [r7, #32]
          break;
 80012b0:	e01a      	b.n	80012e8 <HAL_GPIO_Init+0x130>
          if (GPIO_Init->Pull == GPIO_NOPULL)
 80012b2:	683b      	ldr	r3, [r7, #0]
 80012b4:	689b      	ldr	r3, [r3, #8]
 80012b6:	2b00      	cmp	r3, #0
 80012b8:	d102      	bne.n	80012c0 <HAL_GPIO_Init+0x108>
            config = GPIO_CR_MODE_INPUT + GPIO_CR_CNF_INPUT_FLOATING;
 80012ba:	2304      	movs	r3, #4
 80012bc:	623b      	str	r3, [r7, #32]
          break;
 80012be:	e013      	b.n	80012e8 <HAL_GPIO_Init+0x130>
          else if (GPIO_Init->Pull == GPIO_PULLUP)
 80012c0:	683b      	ldr	r3, [r7, #0]
 80012c2:	689b      	ldr	r3, [r3, #8]
 80012c4:	2b01      	cmp	r3, #1
 80012c6:	d105      	bne.n	80012d4 <HAL_GPIO_Init+0x11c>
            config = GPIO_CR_MODE_INPUT + GPIO_CR_CNF_INPUT_PU_PD;
 80012c8:	2308      	movs	r3, #8
 80012ca:	623b      	str	r3, [r7, #32]
            GPIOx->BSRR = ioposition;
 80012cc:	687b      	ldr	r3, [r7, #4]
 80012ce:	69fa      	ldr	r2, [r7, #28]
 80012d0:	611a      	str	r2, [r3, #16]
          break;
 80012d2:	e009      	b.n	80012e8 <HAL_GPIO_Init+0x130>
            config = GPIO_CR_MODE_INPUT + GPIO_CR_CNF_INPUT_PU_PD;
 80012d4:	2308      	movs	r3, #8
 80012d6:	623b      	str	r3, [r7, #32]
            GPIOx->BRR = ioposition;
 80012d8:	687b      	ldr	r3, [r7, #4]
 80012da:	69fa      	ldr	r2, [r7, #28]
 80012dc:	615a      	str	r2, [r3, #20]
          break;
 80012de:	e003      	b.n	80012e8 <HAL_GPIO_Init+0x130>
          config = GPIO_CR_MODE_INPUT + GPIO_CR_CNF_ANALOG;
 80012e0:	2300      	movs	r3, #0
 80012e2:	623b      	str	r3, [r7, #32]
          break;
 80012e4:	e000      	b.n	80012e8 <HAL_GPIO_Init+0x130>
          break;
 80012e6:	bf00      	nop
      }

      /* Check if the current bit belongs to first half or last half of the pin count number
       in order to address CRH or CRL register*/
      configregister = (iocurrent < GPIO_PIN_8) ? &GPIOx->CRL     : &GPIOx->CRH;
 80012e8:	69bb      	ldr	r3, [r7, #24]
 80012ea:	2bff      	cmp	r3, #255	; 0xff
 80012ec:	d801      	bhi.n	80012f2 <HAL_GPIO_Init+0x13a>
 80012ee:	687b      	ldr	r3, [r7, #4]
 80012f0:	e001      	b.n	80012f6 <HAL_GPIO_Init+0x13e>
 80012f2:	687b      	ldr	r3, [r7, #4]
 80012f4:	3304      	adds	r3, #4
 80012f6:	617b      	str	r3, [r7, #20]
      registeroffset = (iocurrent < GPIO_PIN_8) ? (position << 2u) : ((position - 8u) << 2u);
 80012f8:	69bb      	ldr	r3, [r7, #24]
 80012fa:	2bff      	cmp	r3, #255	; 0xff
 80012fc:	d802      	bhi.n	8001304 <HAL_GPIO_Init+0x14c>
 80012fe:	6a7b      	ldr	r3, [r7, #36]	; 0x24
 8001300:	009b      	lsls	r3, r3, #2
 8001302:	e002      	b.n	800130a <HAL_GPIO_Init+0x152>
 8001304:	6a7b      	ldr	r3, [r7, #36]	; 0x24
 8001306:	3b08      	subs	r3, #8
 8001308:	009b      	lsls	r3, r3, #2
 800130a:	613b      	str	r3, [r7, #16]

      /* Apply the new configuration of the pin to the register */
      MODIFY_REG((*configregister), ((GPIO_CRL_MODE0 | GPIO_CRL_CNF0) << registeroffset), (config << registeroffset));
 800130c:	697b      	ldr	r3, [r7, #20]
 800130e:	681a      	ldr	r2, [r3, #0]
 8001310:	210f      	movs	r1, #15
 8001312:	693b      	ldr	r3, [r7, #16]
 8001314:	fa01 f303 	lsl.w	r3, r1, r3
 8001318:	43db      	mvns	r3, r3
 800131a:	401a      	ands	r2, r3
 800131c:	6a39      	ldr	r1, [r7, #32]
 800131e:	693b      	ldr	r3, [r7, #16]
 8001320:	fa01 f303 	lsl.w	r3, r1, r3
 8001324:	431a      	orrs	r2, r3
 8001326:	697b      	ldr	r3, [r7, #20]
 8001328:	601a      	str	r2, [r3, #0]

      /*--------------------- EXTI Mode Configuration ------------------------*/
      /* Configure the External Interrupt or event for the current IO */
      if ((GPIO_Init->Mode & EXTI_MODE) == EXTI_MODE)
 800132a:	683b      	ldr	r3, [r7, #0]
 800132c:	685b      	ldr	r3, [r3, #4]
 800132e:	f003 5380 	and.w	r3, r3, #268435456	; 0x10000000
 8001332:	2b00      	cmp	r3, #0
 8001334:	f000 80b1 	beq.w	800149a <HAL_GPIO_Init+0x2e2>
      {
        /* Enable AFIO Clock */
        __HAL_RCC_AFIO_CLK_ENABLE();
 8001338:	4b4d      	ldr	r3, [pc, #308]	; (8001470 <HAL_GPIO_Init+0x2b8>)
 800133a:	699b      	ldr	r3, [r3, #24]
 800133c:	4a4c      	ldr	r2, [pc, #304]	; (8001470 <HAL_GPIO_Init+0x2b8>)
 800133e:	f043 0301 	orr.w	r3, r3, #1
 8001342:	6193      	str	r3, [r2, #24]
 8001344:	4b4a      	ldr	r3, [pc, #296]	; (8001470 <HAL_GPIO_Init+0x2b8>)
 8001346:	699b      	ldr	r3, [r3, #24]
 8001348:	f003 0301 	and.w	r3, r3, #1
 800134c:	60bb      	str	r3, [r7, #8]
 800134e:	68bb      	ldr	r3, [r7, #8]
        temp = AFIO->EXTICR[position >> 2u];
 8001350:	4a48      	ldr	r2, [pc, #288]	; (8001474 <HAL_GPIO_Init+0x2bc>)
 8001352:	6a7b      	ldr	r3, [r7, #36]	; 0x24
 8001354:	089b      	lsrs	r3, r3, #2
 8001356:	3302      	adds	r3, #2
 8001358:	f852 3023 	ldr.w	r3, [r2, r3, lsl #2]
 800135c:	60fb      	str	r3, [r7, #12]
        CLEAR_BIT(temp, (0x0Fu) << (4u * (position & 0x03u)));
 800135e:	6a7b      	ldr	r3, [r7, #36]	; 0x24
 8001360:	f003 0303 	and.w	r3, r3, #3
 8001364:	009b      	lsls	r3, r3, #2
 8001366:	220f      	movs	r2, #15
 8001368:	fa02 f303 	lsl.w	r3, r2, r3
 800136c:	43db      	mvns	r3, r3
 800136e:	68fa      	ldr	r2, [r7, #12]
 8001370:	4013      	ands	r3, r2
 8001372:	60fb      	str	r3, [r7, #12]
        SET_BIT(temp, (GPIO_GET_INDEX(GPIOx)) << (4u * (position & 0x03u)));
 8001374:	687b      	ldr	r3, [r7, #4]
 8001376:	4a40      	ldr	r2, [pc, #256]	; (8001478 <HAL_GPIO_Init+0x2c0>)
 8001378:	4293      	cmp	r3, r2
 800137a:	d013      	beq.n	80013a4 <HAL_GPIO_Init+0x1ec>
 800137c:	687b      	ldr	r3, [r7, #4]
 800137e:	4a3f      	ldr	r2, [pc, #252]	; (800147c <HAL_GPIO_Init+0x2c4>)
 8001380:	4293      	cmp	r3, r2
 8001382:	d00d      	beq.n	80013a0 <HAL_GPIO_Init+0x1e8>
 8001384:	687b      	ldr	r3, [r7, #4]
 8001386:	4a3e      	ldr	r2, [pc, #248]	; (8001480 <HAL_GPIO_Init+0x2c8>)
 8001388:	4293      	cmp	r3, r2
 800138a:	d007      	beq.n	800139c <HAL_GPIO_Init+0x1e4>
 800138c:	687b      	ldr	r3, [r7, #4]
 800138e:	4a3d      	ldr	r2, [pc, #244]	; (8001484 <HAL_GPIO_Init+0x2cc>)
 8001390:	4293      	cmp	r3, r2
 8001392:	d101      	bne.n	8001398 <HAL_GPIO_Init+0x1e0>
 8001394:	2303      	movs	r3, #3
 8001396:	e006      	b.n	80013a6 <HAL_GPIO_Init+0x1ee>
 8001398:	2304      	movs	r3, #4
 800139a:	e004      	b.n	80013a6 <HAL_GPIO_Init+0x1ee>
 800139c:	2302      	movs	r3, #2
 800139e:	e002      	b.n	80013a6 <HAL_GPIO_Init+0x1ee>
 80013a0:	2301      	movs	r3, #1
 80013a2:	e000      	b.n	80013a6 <HAL_GPIO_Init+0x1ee>
 80013a4:	2300      	movs	r3, #0
 80013a6:	6a7a      	ldr	r2, [r7, #36]	; 0x24
 80013a8:	f002 0203 	and.w	r2, r2, #3
 80013ac:	0092      	lsls	r2, r2, #2
 80013ae:	4093      	lsls	r3, r2
 80013b0:	68fa      	ldr	r2, [r7, #12]
 80013b2:	4313      	orrs	r3, r2
 80013b4:	60fb      	str	r3, [r7, #12]
        AFIO->EXTICR[position >> 2u] = temp;
 80013b6:	492f      	ldr	r1, [pc, #188]	; (8001474 <HAL_GPIO_Init+0x2bc>)
 80013b8:	6a7b      	ldr	r3, [r7, #36]	; 0x24
 80013ba:	089b      	lsrs	r3, r3, #2
 80013bc:	3302      	adds	r3, #2
 80013be:	68fa      	ldr	r2, [r7, #12]
 80013c0:	f841 2023 	str.w	r2, [r1, r3, lsl #2]


        /* Configure the interrupt mask */
        if ((GPIO_Init->Mode & GPIO_MODE_IT) == GPIO_MODE_IT)
 80013c4:	683b      	ldr	r3, [r7, #0]
 80013c6:	685b      	ldr	r3, [r3, #4]
 80013c8:	f403 3380 	and.w	r3, r3, #65536	; 0x10000
 80013cc:	2b00      	cmp	r3, #0
 80013ce:	d006      	beq.n	80013de <HAL_GPIO_Init+0x226>
        {
          SET_BIT(EXTI->IMR, iocurrent);
 80013d0:	4b2d      	ldr	r3, [pc, #180]	; (8001488 <HAL_GPIO_Init+0x2d0>)
 80013d2:	681a      	ldr	r2, [r3, #0]
 80013d4:	492c      	ldr	r1, [pc, #176]	; (8001488 <HAL_GPIO_Init+0x2d0>)
 80013d6:	69bb      	ldr	r3, [r7, #24]
 80013d8:	4313      	orrs	r3, r2
 80013da:	600b      	str	r3, [r1, #0]
 80013dc:	e006      	b.n	80013ec <HAL_GPIO_Init+0x234>
        }
        else
        {
          CLEAR_BIT(EXTI->IMR, iocurrent);
 80013de:	4b2a      	ldr	r3, [pc, #168]	; (8001488 <HAL_GPIO_Init+0x2d0>)
 80013e0:	681a      	ldr	r2, [r3, #0]
 80013e2:	69bb      	ldr	r3, [r7, #24]
 80013e4:	43db      	mvns	r3, r3
 80013e6:	4928      	ldr	r1, [pc, #160]	; (8001488 <HAL_GPIO_Init+0x2d0>)
 80013e8:	4013      	ands	r3, r2
 80013ea:	600b      	str	r3, [r1, #0]
        }

        /* Configure the event mask */
        if ((GPIO_Init->Mode & GPIO_MODE_EVT) == GPIO_MODE_EVT)
 80013ec:	683b      	ldr	r3, [r7, #0]
 80013ee:	685b      	ldr	r3, [r3, #4]
 80013f0:	f403 3300 	and.w	r3, r3, #131072	; 0x20000
 80013f4:	2b00      	cmp	r3, #0
 80013f6:	d006      	beq.n	8001406 <HAL_GPIO_Init+0x24e>
        {
          SET_BIT(EXTI->EMR, iocurrent);
 80013f8:	4b23      	ldr	r3, [pc, #140]	; (8001488 <HAL_GPIO_Init+0x2d0>)
 80013fa:	685a      	ldr	r2, [r3, #4]
 80013fc:	4922      	ldr	r1, [pc, #136]	; (8001488 <HAL_GPIO_Init+0x2d0>)
 80013fe:	69bb      	ldr	r3, [r7, #24]
 8001400:	4313      	orrs	r3, r2
 8001402:	604b      	str	r3, [r1, #4]
 8001404:	e006      	b.n	8001414 <HAL_GPIO_Init+0x25c>
        }
        else
        {
          CLEAR_BIT(EXTI->EMR, iocurrent);
 8001406:	4b20      	ldr	r3, [pc, #128]	; (8001488 <HAL_GPIO_Init+0x2d0>)
 8001408:	685a      	ldr	r2, [r3, #4]
 800140a:	69bb      	ldr	r3, [r7, #24]
 800140c:	43db      	mvns	r3, r3
 800140e:	491e      	ldr	r1, [pc, #120]	; (8001488 <HAL_GPIO_Init+0x2d0>)
 8001410:	4013      	ands	r3, r2
 8001412:	604b      	str	r3, [r1, #4]
        }

        /* Enable or disable the rising trigger */
        if ((GPIO_Init->Mode & RISING_EDGE) == RISING_EDGE)
 8001414:	683b      	ldr	r3, [r7, #0]
 8001416:	685b      	ldr	r3, [r3, #4]
 8001418:	f403 1380 	and.w	r3, r3, #1048576	; 0x100000
 800141c:	2b00      	cmp	r3, #0
 800141e:	d006      	beq.n	800142e <HAL_GPIO_Init+0x276>
        {
          SET_BIT(EXTI->RTSR, iocurrent);
 8001420:	4b19      	ldr	r3, [pc, #100]	; (8001488 <HAL_GPIO_Init+0x2d0>)
 8001422:	689a      	ldr	r2, [r3, #8]
 8001424:	4918      	ldr	r1, [pc, #96]	; (8001488 <HAL_GPIO_Init+0x2d0>)
 8001426:	69bb      	ldr	r3, [r7, #24]
 8001428:	4313      	orrs	r3, r2
 800142a:	608b      	str	r3, [r1, #8]
 800142c:	e006      	b.n	800143c <HAL_GPIO_Init+0x284>
        }
        else
        {
          CLEAR_BIT(EXTI->RTSR, iocurrent);
 800142e:	4b16      	ldr	r3, [pc, #88]	; (8001488 <HAL_GPIO_Init+0x2d0>)
 8001430:	689a      	ldr	r2, [r3, #8]
 8001432:	69bb      	ldr	r3, [r7, #24]
 8001434:	43db      	mvns	r3, r3
 8001436:	4914      	ldr	r1, [pc, #80]	; (8001488 <HAL_GPIO_Init+0x2d0>)
 8001438:	4013      	ands	r3, r2
 800143a:	608b      	str	r3, [r1, #8]
        }

        /* Enable or disable the falling trigger */
        if ((GPIO_Init->Mode & FALLING_EDGE) == FALLING_EDGE)
 800143c:	683b      	ldr	r3, [r7, #0]
 800143e:	685b      	ldr	r3, [r3, #4]
 8001440:	f403 1300 	and.w	r3, r3, #2097152	; 0x200000
 8001444:	2b00      	cmp	r3, #0
 8001446:	d021      	beq.n	800148c <HAL_GPIO_Init+0x2d4>
        {
          SET_BIT(EXTI->FTSR, iocurrent);
 8001448:	4b0f      	ldr	r3, [pc, #60]	; (8001488 <HAL_GPIO_Init+0x2d0>)
 800144a:	68da      	ldr	r2, [r3, #12]
 800144c:	490e      	ldr	r1, [pc, #56]	; (8001488 <HAL_GPIO_Init+0x2d0>)
 800144e:	69bb      	ldr	r3, [r7, #24]
 8001450:	4313      	orrs	r3, r2
 8001452:	60cb      	str	r3, [r1, #12]
 8001454:	e021      	b.n	800149a <HAL_GPIO_Init+0x2e2>
 8001456:	bf00      	nop
 8001458:	10320000 	.word	0x10320000
 800145c:	10310000 	.word	0x10310000
 8001460:	10220000 	.word	0x10220000
 8001464:	10210000 	.word	0x10210000
 8001468:	10120000 	.word	0x10120000
 800146c:	10110000 	.word	0x10110000
 8001470:	40021000 	.word	0x40021000
 8001474:	40010000 	.word	0x40010000
 8001478:	40010800 	.word	0x40010800
 800147c:	40010c00 	.word	0x40010c00
 8001480:	40011000 	.word	0x40011000
 8001484:	40011400 	.word	0x40011400
 8001488:	40010400 	.word	0x40010400
        }
        else
        {
          CLEAR_BIT(EXTI->FTSR, iocurrent);
 800148c:	4b0b      	ldr	r3, [pc, #44]	; (80014bc <HAL_GPIO_Init+0x304>)
 800148e:	68da      	ldr	r2, [r3, #12]
 8001490:	69bb      	ldr	r3, [r7, #24]
 8001492:	43db      	mvns	r3, r3
 8001494:	4909      	ldr	r1, [pc, #36]	; (80014bc <HAL_GPIO_Init+0x304>)
 8001496:	4013      	ands	r3, r2
 8001498:	60cb      	str	r3, [r1, #12]
        }
      }
    }

	position++;
 800149a:	6a7b      	ldr	r3, [r7, #36]	; 0x24
 800149c:	3301      	adds	r3, #1
 800149e:	627b      	str	r3, [r7, #36]	; 0x24
  while (((GPIO_Init->Pin) >> position) != 0x00u)
 80014a0:	683b      	ldr	r3, [r7, #0]
 80014a2:	681a      	ldr	r2, [r3, #0]
 80014a4:	6a7b      	ldr	r3, [r7, #36]	; 0x24
 80014a6:	fa22 f303 	lsr.w	r3, r2, r3
 80014aa:	2b00      	cmp	r3, #0
 80014ac:	f47f ae8e 	bne.w	80011cc <HAL_GPIO_Init+0x14>
  }
}
 80014b0:	bf00      	nop
 80014b2:	bf00      	nop
 80014b4:	372c      	adds	r7, #44	; 0x2c
 80014b6:	46bd      	mov	sp, r7
 80014b8:	bc80      	pop	{r7}
 80014ba:	4770      	bx	lr
 80014bc:	40010400 	.word	0x40010400

080014c0 <HAL_GPIO_WritePin>:
  *            @arg GPIO_PIN_RESET: to clear the port pin
  *            @arg GPIO_PIN_SET: to set the port pin
  * @retval None
  */
void HAL_GPIO_WritePin(GPIO_TypeDef *GPIOx, uint16_t GPIO_Pin, GPIO_PinState PinState)
{
 80014c0:	b480      	push	{r7}
 80014c2:	b083      	sub	sp, #12
 80014c4:	af00      	add	r7, sp, #0
 80014c6:	6078      	str	r0, [r7, #4]
 80014c8:	460b      	mov	r3, r1
 80014ca:	807b      	strh	r3, [r7, #2]
 80014cc:	4613      	mov	r3, r2
 80014ce:	707b      	strb	r3, [r7, #1]
  /* Check the parameters */
  assert_param(IS_GPIO_PIN(GPIO_Pin));
  assert_param(IS_GPIO_PIN_ACTION(PinState));

  if (PinState != GPIO_PIN_RESET)
 80014d0:	787b      	ldrb	r3, [r7, #1]
 80014d2:	2b00      	cmp	r3, #0
 80014d4:	d003      	beq.n	80014de <HAL_GPIO_WritePin+0x1e>
  {
    GPIOx->BSRR = GPIO_Pin;
 80014d6:	887a      	ldrh	r2, [r7, #2]
 80014d8:	687b      	ldr	r3, [r7, #4]
 80014da:	611a      	str	r2, [r3, #16]
  }
  else
  {
    GPIOx->BSRR = (uint32_t)GPIO_Pin << 16u;
  }
}
 80014dc:	e003      	b.n	80014e6 <HAL_GPIO_WritePin+0x26>
    GPIOx->BSRR = (uint32_t)GPIO_Pin << 16u;
 80014de:	887b      	ldrh	r3, [r7, #2]
 80014e0:	041a      	lsls	r2, r3, #16
 80014e2:	687b      	ldr	r3, [r7, #4]
 80014e4:	611a      	str	r2, [r3, #16]
}
 80014e6:	bf00      	nop
 80014e8:	370c      	adds	r7, #12
 80014ea:	46bd      	mov	sp, r7
 80014ec:	bc80      	pop	{r7}
 80014ee:	4770      	bx	lr

080014f0 <HAL_RCC_OscConfig>:
  *         supported by this macro. User should request a transition to HSE Off
  *         first and then HSE On or HSE Bypass.
  * @retval HAL status
  */
HAL_StatusTypeDef HAL_RCC_OscConfig(RCC_OscInitTypeDef  *RCC_OscInitStruct)
{
 80014f0:	b580      	push	{r7, lr}
 80014f2:	b086      	sub	sp, #24
 80014f4:	af00      	add	r7, sp, #0
 80014f6:	6078      	str	r0, [r7, #4]
  uint32_t tickstart;
  uint32_t pll_config;

  /* Check Null pointer */
  if (RCC_OscInitStruct == NULL)
 80014f8:	687b      	ldr	r3, [r7, #4]
 80014fa:	2b00      	cmp	r3, #0
 80014fc:	d101      	bne.n	8001502 <HAL_RCC_OscConfig+0x12>
  {
    return HAL_ERROR;
 80014fe:	2301      	movs	r3, #1
 8001500:	e26c      	b.n	80019dc <HAL_RCC_OscConfig+0x4ec>

  /* Check the parameters */
  assert_param(IS_RCC_OSCILLATORTYPE(RCC_OscInitStruct->OscillatorType));

  /*------------------------------- HSE Configuration ------------------------*/
  if (((RCC_OscInitStruct->OscillatorType) & RCC_OSCILLATORTYPE_HSE) == RCC_OSCILLATORTYPE_HSE)
 8001502:	687b      	ldr	r3, [r7, #4]
 8001504:	681b      	ldr	r3, [r3, #0]
 8001506:	f003 0301 	and.w	r3, r3, #1
 800150a:	2b00      	cmp	r3, #0
 800150c:	f000 8087 	beq.w	800161e <HAL_RCC_OscConfig+0x12e>
  {
    /* Check the parameters */
    assert_param(IS_RCC_HSE(RCC_OscInitStruct->HSEState));

    /* When the HSE is used as system clock or clock source for PLL in these cases it is not allowed to be disabled */
    if ((__HAL_RCC_GET_SYSCLK_SOURCE() == RCC_SYSCLKSOURCE_STATUS_HSE)
 8001510:	4b92      	ldr	r3, [pc, #584]	; (800175c <HAL_RCC_OscConfig+0x26c>)
 8001512:	685b      	ldr	r3, [r3, #4]
 8001514:	f003 030c 	and.w	r3, r3, #12
 8001518:	2b04      	cmp	r3, #4
 800151a:	d00c      	beq.n	8001536 <HAL_RCC_OscConfig+0x46>
        || ((__HAL_RCC_GET_SYSCLK_SOURCE() == RCC_SYSCLKSOURCE_STATUS_PLLCLK) && (__HAL_RCC_GET_PLL_OSCSOURCE() == RCC_PLLSOURCE_HSE)))
 800151c:	4b8f      	ldr	r3, [pc, #572]	; (800175c <HAL_RCC_OscConfig+0x26c>)
 800151e:	685b      	ldr	r3, [r3, #4]
 8001520:	f003 030c 	and.w	r3, r3, #12
 8001524:	2b08      	cmp	r3, #8
 8001526:	d112      	bne.n	800154e <HAL_RCC_OscConfig+0x5e>
 8001528:	4b8c      	ldr	r3, [pc, #560]	; (800175c <HAL_RCC_OscConfig+0x26c>)
 800152a:	685b      	ldr	r3, [r3, #4]
 800152c:	f403 3380 	and.w	r3, r3, #65536	; 0x10000
 8001530:	f5b3 3f80 	cmp.w	r3, #65536	; 0x10000
 8001534:	d10b      	bne.n	800154e <HAL_RCC_OscConfig+0x5e>
    {
      if ((__HAL_RCC_GET_FLAG(RCC_FLAG_HSERDY) != RESET) && (RCC_OscInitStruct->HSEState == RCC_HSE_OFF))
 8001536:	4b89      	ldr	r3, [pc, #548]	; (800175c <HAL_RCC_OscConfig+0x26c>)
 8001538:	681b      	ldr	r3, [r3, #0]
 800153a:	f403 3300 	and.w	r3, r3, #131072	; 0x20000
 800153e:	2b00      	cmp	r3, #0
 8001540:	d06c      	beq.n	800161c <HAL_RCC_OscConfig+0x12c>
 8001542:	687b      	ldr	r3, [r7, #4]
 8001544:	685b      	ldr	r3, [r3, #4]
 8001546:	2b00      	cmp	r3, #0
 8001548:	d168      	bne.n	800161c <HAL_RCC_OscConfig+0x12c>
      {
        return HAL_ERROR;
 800154a:	2301      	movs	r3, #1
 800154c:	e246      	b.n	80019dc <HAL_RCC_OscConfig+0x4ec>
      }
    }
    else
    {
      /* Set the new HSE configuration ---------------------------------------*/
      __HAL_RCC_HSE_CONFIG(RCC_OscInitStruct->HSEState);
 800154e:	687b      	ldr	r3, [r7, #4]
 8001550:	685b      	ldr	r3, [r3, #4]
 8001552:	f5b3 3f80 	cmp.w	r3, #65536	; 0x10000
 8001556:	d106      	bne.n	8001566 <HAL_RCC_OscConfig+0x76>
 8001558:	4b80      	ldr	r3, [pc, #512]	; (800175c <HAL_RCC_OscConfig+0x26c>)
 800155a:	681b      	ldr	r3, [r3, #0]
 800155c:	4a7f      	ldr	r2, [pc, #508]	; (800175c <HAL_RCC_OscConfig+0x26c>)
 800155e:	f443 3380 	orr.w	r3, r3, #65536	; 0x10000
 8001562:	6013      	str	r3, [r2, #0]
 8001564:	e02e      	b.n	80015c4 <HAL_RCC_OscConfig+0xd4>
 8001566:	687b      	ldr	r3, [r7, #4]
 8001568:	685b      	ldr	r3, [r3, #4]
 800156a:	2b00      	cmp	r3, #0
 800156c:	d10c      	bne.n	8001588 <HAL_RCC_OscConfig+0x98>
 800156e:	4b7b      	ldr	r3, [pc, #492]	; (800175c <HAL_RCC_OscConfig+0x26c>)
 8001570:	681b      	ldr	r3, [r3, #0]
 8001572:	4a7a      	ldr	r2, [pc, #488]	; (800175c <HAL_RCC_OscConfig+0x26c>)
 8001574:	f423 3380 	bic.w	r3, r3, #65536	; 0x10000
 8001578:	6013      	str	r3, [r2, #0]
 800157a:	4b78      	ldr	r3, [pc, #480]	; (800175c <HAL_RCC_OscConfig+0x26c>)
 800157c:	681b      	ldr	r3, [r3, #0]
 800157e:	4a77      	ldr	r2, [pc, #476]	; (800175c <HAL_RCC_OscConfig+0x26c>)
 8001580:	f423 2380 	bic.w	r3, r3, #262144	; 0x40000
 8001584:	6013      	str	r3, [r2, #0]
 8001586:	e01d      	b.n	80015c4 <HAL_RCC_OscConfig+0xd4>
 8001588:	687b      	ldr	r3, [r7, #4]
 800158a:	685b      	ldr	r3, [r3, #4]
 800158c:	f5b3 2fa0 	cmp.w	r3, #327680	; 0x50000
 8001590:	d10c      	bne.n	80015ac <HAL_RCC_OscConfig+0xbc>
 8001592:	4b72      	ldr	r3, [pc, #456]	; (800175c <HAL_RCC_OscConfig+0x26c>)
 8001594:	681b      	ldr	r3, [r3, #0]
 8001596:	4a71      	ldr	r2, [pc, #452]	; (800175c <HAL_RCC_OscConfig+0x26c>)
 8001598:	f443 2380 	orr.w	r3, r3, #262144	; 0x40000
 800159c:	6013      	str	r3, [r2, #0]
 800159e:	4b6f      	ldr	r3, [pc, #444]	; (800175c <HAL_RCC_OscConfig+0x26c>)
 80015a0:	681b      	ldr	r3, [r3, #0]
 80015a2:	4a6e      	ldr	r2, [pc, #440]	; (800175c <HAL_RCC_OscConfig+0x26c>)
 80015a4:	f443 3380 	orr.w	r3, r3, #65536	; 0x10000
 80015a8:	6013      	str	r3, [r2, #0]
 80015aa:	e00b      	b.n	80015c4 <HAL_RCC_OscConfig+0xd4>
 80015ac:	4b6b      	ldr	r3, [pc, #428]	; (800175c <HAL_RCC_OscConfig+0x26c>)
 80015ae:	681b      	ldr	r3, [r3, #0]
 80015b0:	4a6a      	ldr	r2, [pc, #424]	; (800175c <HAL_RCC_OscConfig+0x26c>)
 80015b2:	f423 3380 	bic.w	r3, r3, #65536	; 0x10000
 80015b6:	6013      	str	r3, [r2, #0]
 80015b8:	4b68      	ldr	r3, [pc, #416]	; (800175c <HAL_RCC_OscConfig+0x26c>)
 80015ba:	681b      	ldr	r3, [r3, #0]
 80015bc:	4a67      	ldr	r2, [pc, #412]	; (800175c <HAL_RCC_OscConfig+0x26c>)
 80015be:	f423 2380 	bic.w	r3, r3, #262144	; 0x40000
 80015c2:	6013      	str	r3, [r2, #0]


      /* Check the HSE State */
      if (RCC_OscInitStruct->HSEState != RCC_HSE_OFF)
 80015c4:	687b      	ldr	r3, [r7, #4]
 80015c6:	685b      	ldr	r3, [r3, #4]
 80015c8:	2b00      	cmp	r3, #0
 80015ca:	d013      	beq.n	80015f4 <HAL_RCC_OscConfig+0x104>
      {
        /* Get Start Tick */
        tickstart = HAL_GetTick();
 80015cc:	f7ff fcb8 	bl	8000f40 <HAL_GetTick>
 80015d0:	6138      	str	r0, [r7, #16]

        /* Wait till HSE is ready */
        while (__HAL_RCC_GET_FLAG(RCC_FLAG_HSERDY) == RESET)
 80015d2:	e008      	b.n	80015e6 <HAL_RCC_OscConfig+0xf6>
        {
          if ((HAL_GetTick() - tickstart) > HSE_TIMEOUT_VALUE)
 80015d4:	f7ff fcb4 	bl	8000f40 <HAL_GetTick>
 80015d8:	4602      	mov	r2, r0
 80015da:	693b      	ldr	r3, [r7, #16]
 80015dc:	1ad3      	subs	r3, r2, r3
 80015de:	2b64      	cmp	r3, #100	; 0x64
 80015e0:	d901      	bls.n	80015e6 <HAL_RCC_OscConfig+0xf6>
          {
            return HAL_TIMEOUT;
 80015e2:	2303      	movs	r3, #3
 80015e4:	e1fa      	b.n	80019dc <HAL_RCC_OscConfig+0x4ec>
        while (__HAL_RCC_GET_FLAG(RCC_FLAG_HSERDY) == RESET)
 80015e6:	4b5d      	ldr	r3, [pc, #372]	; (800175c <HAL_RCC_OscConfig+0x26c>)
 80015e8:	681b      	ldr	r3, [r3, #0]
 80015ea:	f403 3300 	and.w	r3, r3, #131072	; 0x20000
 80015ee:	2b00      	cmp	r3, #0
 80015f0:	d0f0      	beq.n	80015d4 <HAL_RCC_OscConfig+0xe4>
 80015f2:	e014      	b.n	800161e <HAL_RCC_OscConfig+0x12e>
        }
      }
      else
      {
        /* Get Start Tick */
        tickstart = HAL_GetTick();
 80015f4:	f7ff fca4 	bl	8000f40 <HAL_GetTick>
 80015f8:	6138      	str	r0, [r7, #16]

        /* Wait till HSE is disabled */
        while (__HAL_RCC_GET_FLAG(RCC_FLAG_HSERDY) != RESET)
 80015fa:	e008      	b.n	800160e <HAL_RCC_OscConfig+0x11e>
        {
          if ((HAL_GetTick() - tickstart) > HSE_TIMEOUT_VALUE)
 80015fc:	f7ff fca0 	bl	8000f40 <HAL_GetTick>
 8001600:	4602      	mov	r2, r0
 8001602:	693b      	ldr	r3, [r7, #16]
 8001604:	1ad3      	subs	r3, r2, r3
 8001606:	2b64      	cmp	r3, #100	; 0x64
 8001608:	d901      	bls.n	800160e <HAL_RCC_OscConfig+0x11e>
          {
            return HAL_TIMEOUT;
 800160a:	2303      	movs	r3, #3
 800160c:	e1e6      	b.n	80019dc <HAL_RCC_OscConfig+0x4ec>
        while (__HAL_RCC_GET_FLAG(RCC_FLAG_HSERDY) != RESET)
 800160e:	4b53      	ldr	r3, [pc, #332]	; (800175c <HAL_RCC_OscConfig+0x26c>)
 8001610:	681b      	ldr	r3, [r3, #0]
 8001612:	f403 3300 	and.w	r3, r3, #131072	; 0x20000
 8001616:	2b00      	cmp	r3, #0
 8001618:	d1f0      	bne.n	80015fc <HAL_RCC_OscConfig+0x10c>
 800161a:	e000      	b.n	800161e <HAL_RCC_OscConfig+0x12e>
      if ((__HAL_RCC_GET_FLAG(RCC_FLAG_HSERDY) != RESET) && (RCC_OscInitStruct->HSEState == RCC_HSE_OFF))
 800161c:	bf00      	nop
        }
      }
    }
  }
  /*----------------------------- HSI Configuration --------------------------*/
  if (((RCC_OscInitStruct->OscillatorType) & RCC_OSCILLATORTYPE_HSI) == RCC_OSCILLATORTYPE_HSI)
 800161e:	687b      	ldr	r3, [r7, #4]
 8001620:	681b      	ldr	r3, [r3, #0]
 8001622:	f003 0302 	and.w	r3, r3, #2
 8001626:	2b00      	cmp	r3, #0
 8001628:	d063      	beq.n	80016f2 <HAL_RCC_OscConfig+0x202>
    /* Check the parameters */
    assert_param(IS_RCC_HSI(RCC_OscInitStruct->HSIState));
    assert_param(IS_RCC_CALIBRATION_VALUE(RCC_OscInitStruct->HSICalibrationValue));

    /* Check if HSI is used as system clock or as PLL source when PLL is selected as system clock */
    if ((__HAL_RCC_GET_SYSCLK_SOURCE() == RCC_SYSCLKSOURCE_STATUS_HSI)
 800162a:	4b4c      	ldr	r3, [pc, #304]	; (800175c <HAL_RCC_OscConfig+0x26c>)
 800162c:	685b      	ldr	r3, [r3, #4]
 800162e:	f003 030c 	and.w	r3, r3, #12
 8001632:	2b00      	cmp	r3, #0
 8001634:	d00b      	beq.n	800164e <HAL_RCC_OscConfig+0x15e>
        || ((__HAL_RCC_GET_SYSCLK_SOURCE() == RCC_SYSCLKSOURCE_STATUS_PLLCLK) && (__HAL_RCC_GET_PLL_OSCSOURCE() == RCC_PLLSOURCE_HSI_DIV2)))
 8001636:	4b49      	ldr	r3, [pc, #292]	; (800175c <HAL_RCC_OscConfig+0x26c>)
 8001638:	685b      	ldr	r3, [r3, #4]
 800163a:	f003 030c 	and.w	r3, r3, #12
 800163e:	2b08      	cmp	r3, #8
 8001640:	d11c      	bne.n	800167c <HAL_RCC_OscConfig+0x18c>
 8001642:	4b46      	ldr	r3, [pc, #280]	; (800175c <HAL_RCC_OscConfig+0x26c>)
 8001644:	685b      	ldr	r3, [r3, #4]
 8001646:	f403 3380 	and.w	r3, r3, #65536	; 0x10000
 800164a:	2b00      	cmp	r3, #0
 800164c:	d116      	bne.n	800167c <HAL_RCC_OscConfig+0x18c>
    {
      /* When HSI is used as system clock it will not disabled */
      if ((__HAL_RCC_GET_FLAG(RCC_FLAG_HSIRDY) != RESET) && (RCC_OscInitStruct->HSIState != RCC_HSI_ON))
 800164e:	4b43      	ldr	r3, [pc, #268]	; (800175c <HAL_RCC_OscConfig+0x26c>)
 8001650:	681b      	ldr	r3, [r3, #0]
 8001652:	f003 0302 	and.w	r3, r3, #2
 8001656:	2b00      	cmp	r3, #0
 8001658:	d005      	beq.n	8001666 <HAL_RCC_OscConfig+0x176>
 800165a:	687b      	ldr	r3, [r7, #4]
 800165c:	691b      	ldr	r3, [r3, #16]
 800165e:	2b01      	cmp	r3, #1
 8001660:	d001      	beq.n	8001666 <HAL_RCC_OscConfig+0x176>
      {
        return HAL_ERROR;
 8001662:	2301      	movs	r3, #1
 8001664:	e1ba      	b.n	80019dc <HAL_RCC_OscConfig+0x4ec>
      }
      /* Otherwise, just the calibration is allowed */
      else
      {
        /* Adjusts the Internal High Speed oscillator (HSI) calibration value.*/
        __HAL_RCC_HSI_CALIBRATIONVALUE_ADJUST(RCC_OscInitStruct->HSICalibrationValue);
 8001666:	4b3d      	ldr	r3, [pc, #244]	; (800175c <HAL_RCC_OscConfig+0x26c>)
 8001668:	681b      	ldr	r3, [r3, #0]
 800166a:	f023 02f8 	bic.w	r2, r3, #248	; 0xf8
 800166e:	687b      	ldr	r3, [r7, #4]
 8001670:	695b      	ldr	r3, [r3, #20]
 8001672:	00db      	lsls	r3, r3, #3
 8001674:	4939      	ldr	r1, [pc, #228]	; (800175c <HAL_RCC_OscConfig+0x26c>)
 8001676:	4313      	orrs	r3, r2
 8001678:	600b      	str	r3, [r1, #0]
      if ((__HAL_RCC_GET_FLAG(RCC_FLAG_HSIRDY) != RESET) && (RCC_OscInitStruct->HSIState != RCC_HSI_ON))
 800167a:	e03a      	b.n	80016f2 <HAL_RCC_OscConfig+0x202>
      }
    }
    else
    {
      /* Check the HSI State */
      if (RCC_OscInitStruct->HSIState != RCC_HSI_OFF)
 800167c:	687b      	ldr	r3, [r7, #4]
 800167e:	691b      	ldr	r3, [r3, #16]
 8001680:	2b00      	cmp	r3, #0
 8001682:	d020      	beq.n	80016c6 <HAL_RCC_OscConfig+0x1d6>
      {
        /* Enable the Internal High Speed oscillator (HSI). */
        __HAL_RCC_HSI_ENABLE();
 8001684:	4b36      	ldr	r3, [pc, #216]	; (8001760 <HAL_RCC_OscConfig+0x270>)
 8001686:	2201      	movs	r2, #1
 8001688:	601a      	str	r2, [r3, #0]

        /* Get Start Tick */
        tickstart = HAL_GetTick();
 800168a:	f7ff fc59 	bl	8000f40 <HAL_GetTick>
 800168e:	6138      	str	r0, [r7, #16]

        /* Wait till HSI is ready */
        while (__HAL_RCC_GET_FLAG(RCC_FLAG_HSIRDY) == RESET)
 8001690:	e008      	b.n	80016a4 <HAL_RCC_OscConfig+0x1b4>
        {
          if ((HAL_GetTick() - tickstart) > HSI_TIMEOUT_VALUE)
 8001692:	f7ff fc55 	bl	8000f40 <HAL_GetTick>
 8001696:	4602      	mov	r2, r0
 8001698:	693b      	ldr	r3, [r7, #16]
 800169a:	1ad3      	subs	r3, r2, r3
 800169c:	2b02      	cmp	r3, #2
 800169e:	d901      	bls.n	80016a4 <HAL_RCC_OscConfig+0x1b4>
          {
            return HAL_TIMEOUT;
 80016a0:	2303      	movs	r3, #3
 80016a2:	e19b      	b.n	80019dc <HAL_RCC_OscConfig+0x4ec>
        while (__HAL_RCC_GET_FLAG(RCC_FLAG_HSIRDY) == RESET)
 80016a4:	4b2d      	ldr	r3, [pc, #180]	; (800175c <HAL_RCC_OscConfig+0x26c>)
 80016a6:	681b      	ldr	r3, [r3, #0]
 80016a8:	f003 0302 	and.w	r3, r3, #2
 80016ac:	2b00      	cmp	r3, #0
 80016ae:	d0f0      	beq.n	8001692 <HAL_RCC_OscConfig+0x1a2>
          }
        }

        /* Adjusts the Internal High Speed oscillator (HSI) calibration value.*/
        __HAL_RCC_HSI_CALIBRATIONVALUE_ADJUST(RCC_OscInitStruct->HSICalibrationValue);
 80016b0:	4b2a      	ldr	r3, [pc, #168]	; (800175c <HAL_RCC_OscConfig+0x26c>)
 80016b2:	681b      	ldr	r3, [r3, #0]
 80016b4:	f023 02f8 	bic.w	r2, r3, #248	; 0xf8
 80016b8:	687b      	ldr	r3, [r7, #4]
 80016ba:	695b      	ldr	r3, [r3, #20]
 80016bc:	00db      	lsls	r3, r3, #3
 80016be:	4927      	ldr	r1, [pc, #156]	; (800175c <HAL_RCC_OscConfig+0x26c>)
 80016c0:	4313      	orrs	r3, r2
 80016c2:	600b      	str	r3, [r1, #0]
 80016c4:	e015      	b.n	80016f2 <HAL_RCC_OscConfig+0x202>
      }
      else
      {
        /* Disable the Internal High Speed oscillator (HSI). */
        __HAL_RCC_HSI_DISABLE();
 80016c6:	4b26      	ldr	r3, [pc, #152]	; (8001760 <HAL_RCC_OscConfig+0x270>)
 80016c8:	2200      	movs	r2, #0
 80016ca:	601a      	str	r2, [r3, #0]

        /* Get Start Tick */
        tickstart = HAL_GetTick();
 80016cc:	f7ff fc38 	bl	8000f40 <HAL_GetTick>
 80016d0:	6138      	str	r0, [r7, #16]

        /* Wait till HSI is disabled */
        while (__HAL_RCC_GET_FLAG(RCC_FLAG_HSIRDY) != RESET)
 80016d2:	e008      	b.n	80016e6 <HAL_RCC_OscConfig+0x1f6>
        {
          if ((HAL_GetTick() - tickstart) > HSI_TIMEOUT_VALUE)
 80016d4:	f7ff fc34 	bl	8000f40 <HAL_GetTick>
 80016d8:	4602      	mov	r2, r0
 80016da:	693b      	ldr	r3, [r7, #16]
 80016dc:	1ad3      	subs	r3, r2, r3
 80016de:	2b02      	cmp	r3, #2
 80016e0:	d901      	bls.n	80016e6 <HAL_RCC_OscConfig+0x1f6>
          {
            return HAL_TIMEOUT;
 80016e2:	2303      	movs	r3, #3
 80016e4:	e17a      	b.n	80019dc <HAL_RCC_OscConfig+0x4ec>
        while (__HAL_RCC_GET_FLAG(RCC_FLAG_HSIRDY) != RESET)
 80016e6:	4b1d      	ldr	r3, [pc, #116]	; (800175c <HAL_RCC_OscConfig+0x26c>)
 80016e8:	681b      	ldr	r3, [r3, #0]
 80016ea:	f003 0302 	and.w	r3, r3, #2
 80016ee:	2b00      	cmp	r3, #0
 80016f0:	d1f0      	bne.n	80016d4 <HAL_RCC_OscConfig+0x1e4>
        }
      }
    }
  }
  /*------------------------------ LSI Configuration -------------------------*/
  if (((RCC_OscInitStruct->OscillatorType) & RCC_OSCILLATORTYPE_LSI) == RCC_OSCILLATORTYPE_LSI)
 80016f2:	687b      	ldr	r3, [r7, #4]
 80016f4:	681b      	ldr	r3, [r3, #0]
 80016f6:	f003 0308 	and.w	r3, r3, #8
 80016fa:	2b00      	cmp	r3, #0
 80016fc:	d03a      	beq.n	8001774 <HAL_RCC_OscConfig+0x284>
  {
    /* Check the parameters */
    assert_param(IS_RCC_LSI(RCC_OscInitStruct->LSIState));

    /* Check the LSI State */
    if (RCC_OscInitStruct->LSIState != RCC_LSI_OFF)
 80016fe:	687b      	ldr	r3, [r7, #4]
 8001700:	699b      	ldr	r3, [r3, #24]
 8001702:	2b00      	cmp	r3, #0
 8001704:	d019      	beq.n	800173a <HAL_RCC_OscConfig+0x24a>
    {
      /* Enable the Internal Low Speed oscillator (LSI). */
      __HAL_RCC_LSI_ENABLE();
 8001706:	4b17      	ldr	r3, [pc, #92]	; (8001764 <HAL_RCC_OscConfig+0x274>)
 8001708:	2201      	movs	r2, #1
 800170a:	601a      	str	r2, [r3, #0]

      /* Get Start Tick */
      tickstart = HAL_GetTick();
 800170c:	f7ff fc18 	bl	8000f40 <HAL_GetTick>
 8001710:	6138      	str	r0, [r7, #16]

      /* Wait till LSI is ready */
      while (__HAL_RCC_GET_FLAG(RCC_FLAG_LSIRDY) == RESET)
 8001712:	e008      	b.n	8001726 <HAL_RCC_OscConfig+0x236>
      {
        if ((HAL_GetTick() - tickstart) > LSI_TIMEOUT_VALUE)
 8001714:	f7ff fc14 	bl	8000f40 <HAL_GetTick>
 8001718:	4602      	mov	r2, r0
 800171a:	693b      	ldr	r3, [r7, #16]
 800171c:	1ad3      	subs	r3, r2, r3
 800171e:	2b02      	cmp	r3, #2
 8001720:	d901      	bls.n	8001726 <HAL_RCC_OscConfig+0x236>
        {
          return HAL_TIMEOUT;
 8001722:	2303      	movs	r3, #3
 8001724:	e15a      	b.n	80019dc <HAL_RCC_OscConfig+0x4ec>
      while (__HAL_RCC_GET_FLAG(RCC_FLAG_LSIRDY) == RESET)
 8001726:	4b0d      	ldr	r3, [pc, #52]	; (800175c <HAL_RCC_OscConfig+0x26c>)
 8001728:	6a5b      	ldr	r3, [r3, #36]	; 0x24
 800172a:	f003 0302 	and.w	r3, r3, #2
 800172e:	2b00      	cmp	r3, #0
 8001730:	d0f0      	beq.n	8001714 <HAL_RCC_OscConfig+0x224>
        }
      }
      /*  To have a fully stabilized clock in the specified range, a software delay of 1ms
          should be added.*/
      RCC_Delay(1);
 8001732:	2001      	movs	r0, #1
 8001734:	f000 fad8 	bl	8001ce8 <RCC_Delay>
 8001738:	e01c      	b.n	8001774 <HAL_RCC_OscConfig+0x284>
    }
    else
    {
      /* Disable the Internal Low Speed oscillator (LSI). */
      __HAL_RCC_LSI_DISABLE();
 800173a:	4b0a      	ldr	r3, [pc, #40]	; (8001764 <HAL_RCC_OscConfig+0x274>)
 800173c:	2200      	movs	r2, #0
 800173e:	601a      	str	r2, [r3, #0]

      /* Get Start Tick */
      tickstart = HAL_GetTick();
 8001740:	f7ff fbfe 	bl	8000f40 <HAL_GetTick>
 8001744:	6138      	str	r0, [r7, #16]

      /* Wait till LSI is disabled */
      while (__HAL_RCC_GET_FLAG(RCC_FLAG_LSIRDY) != RESET)
 8001746:	e00f      	b.n	8001768 <HAL_RCC_OscConfig+0x278>
      {
        if ((HAL_GetTick() - tickstart) > LSI_TIMEOUT_VALUE)
 8001748:	f7ff fbfa 	bl	8000f40 <HAL_GetTick>
 800174c:	4602      	mov	r2, r0
 800174e:	693b      	ldr	r3, [r7, #16]
 8001750:	1ad3      	subs	r3, r2, r3
 8001752:	2b02      	cmp	r3, #2
 8001754:	d908      	bls.n	8001768 <HAL_RCC_OscConfig+0x278>
        {
          return HAL_TIMEOUT;
 8001756:	2303      	movs	r3, #3
 8001758:	e140      	b.n	80019dc <HAL_RCC_OscConfig+0x4ec>
 800175a:	bf00      	nop
 800175c:	40021000 	.word	0x40021000
 8001760:	42420000 	.word	0x42420000
 8001764:	42420480 	.word	0x42420480
      while (__HAL_RCC_GET_FLAG(RCC_FLAG_LSIRDY) != RESET)
 8001768:	4b9e      	ldr	r3, [pc, #632]	; (80019e4 <HAL_RCC_OscConfig+0x4f4>)
 800176a:	6a5b      	ldr	r3, [r3, #36]	; 0x24
 800176c:	f003 0302 	and.w	r3, r3, #2
 8001770:	2b00      	cmp	r3, #0
 8001772:	d1e9      	bne.n	8001748 <HAL_RCC_OscConfig+0x258>
        }
      }
    }
  }
  /*------------------------------ LSE Configuration -------------------------*/
  if (((RCC_OscInitStruct->OscillatorType) & RCC_OSCILLATORTYPE_LSE) == RCC_OSCILLATORTYPE_LSE)
 8001774:	687b      	ldr	r3, [r7, #4]
 8001776:	681b      	ldr	r3, [r3, #0]
 8001778:	f003 0304 	and.w	r3, r3, #4
 800177c:	2b00      	cmp	r3, #0
 800177e:	f000 80a6 	beq.w	80018ce <HAL_RCC_OscConfig+0x3de>
  {
    FlagStatus       pwrclkchanged = RESET;
 8001782:	2300      	movs	r3, #0
 8001784:	75fb      	strb	r3, [r7, #23]
    /* Check the parameters */
    assert_param(IS_RCC_LSE(RCC_OscInitStruct->LSEState));

    /* Update LSE configuration in Backup Domain control register    */
    /* Requires to enable write access to Backup Domain of necessary */
    if (__HAL_RCC_PWR_IS_CLK_DISABLED())
 8001786:	4b97      	ldr	r3, [pc, #604]	; (80019e4 <HAL_RCC_OscConfig+0x4f4>)
 8001788:	69db      	ldr	r3, [r3, #28]
 800178a:	f003 5380 	and.w	r3, r3, #268435456	; 0x10000000
 800178e:	2b00      	cmp	r3, #0
 8001790:	d10d      	bne.n	80017ae <HAL_RCC_OscConfig+0x2be>
    {
      __HAL_RCC_PWR_CLK_ENABLE();
 8001792:	4b94      	ldr	r3, [pc, #592]	; (80019e4 <HAL_RCC_OscConfig+0x4f4>)
 8001794:	69db      	ldr	r3, [r3, #28]
 8001796:	4a93      	ldr	r2, [pc, #588]	; (80019e4 <HAL_RCC_OscConfig+0x4f4>)
 8001798:	f043 5380 	orr.w	r3, r3, #268435456	; 0x10000000
 800179c:	61d3      	str	r3, [r2, #28]
 800179e:	4b91      	ldr	r3, [pc, #580]	; (80019e4 <HAL_RCC_OscConfig+0x4f4>)
 80017a0:	69db      	ldr	r3, [r3, #28]
 80017a2:	f003 5380 	and.w	r3, r3, #268435456	; 0x10000000
 80017a6:	60bb      	str	r3, [r7, #8]
 80017a8:	68bb      	ldr	r3, [r7, #8]
      pwrclkchanged = SET;
 80017aa:	2301      	movs	r3, #1
 80017ac:	75fb      	strb	r3, [r7, #23]
    }

    if (HAL_IS_BIT_CLR(PWR->CR, PWR_CR_DBP))
 80017ae:	4b8e      	ldr	r3, [pc, #568]	; (80019e8 <HAL_RCC_OscConfig+0x4f8>)
 80017b0:	681b      	ldr	r3, [r3, #0]
 80017b2:	f403 7380 	and.w	r3, r3, #256	; 0x100
 80017b6:	2b00      	cmp	r3, #0
 80017b8:	d118      	bne.n	80017ec <HAL_RCC_OscConfig+0x2fc>
    {
      /* Enable write access to Backup domain */
      SET_BIT(PWR->CR, PWR_CR_DBP);
 80017ba:	4b8b      	ldr	r3, [pc, #556]	; (80019e8 <HAL_RCC_OscConfig+0x4f8>)
 80017bc:	681b      	ldr	r3, [r3, #0]
 80017be:	4a8a      	ldr	r2, [pc, #552]	; (80019e8 <HAL_RCC_OscConfig+0x4f8>)
 80017c0:	f443 7380 	orr.w	r3, r3, #256	; 0x100
 80017c4:	6013      	str	r3, [r2, #0]

      /* Wait for Backup domain Write protection disable */
      tickstart = HAL_GetTick();
 80017c6:	f7ff fbbb 	bl	8000f40 <HAL_GetTick>
 80017ca:	6138      	str	r0, [r7, #16]

      while (HAL_IS_BIT_CLR(PWR->CR, PWR_CR_DBP))
 80017cc:	e008      	b.n	80017e0 <HAL_RCC_OscConfig+0x2f0>
      {
        if ((HAL_GetTick() - tickstart) > RCC_DBP_TIMEOUT_VALUE)
 80017ce:	f7ff fbb7 	bl	8000f40 <HAL_GetTick>
 80017d2:	4602      	mov	r2, r0
 80017d4:	693b      	ldr	r3, [r7, #16]
 80017d6:	1ad3      	subs	r3, r2, r3
 80017d8:	2b64      	cmp	r3, #100	; 0x64
 80017da:	d901      	bls.n	80017e0 <HAL_RCC_OscConfig+0x2f0>
        {
          return HAL_TIMEOUT;
 80017dc:	2303      	movs	r3, #3
 80017de:	e0fd      	b.n	80019dc <HAL_RCC_OscConfig+0x4ec>
      while (HAL_IS_BIT_CLR(PWR->CR, PWR_CR_DBP))
 80017e0:	4b81      	ldr	r3, [pc, #516]	; (80019e8 <HAL_RCC_OscConfig+0x4f8>)
 80017e2:	681b      	ldr	r3, [r3, #0]
 80017e4:	f403 7380 	and.w	r3, r3, #256	; 0x100
 80017e8:	2b00      	cmp	r3, #0
 80017ea:	d0f0      	beq.n	80017ce <HAL_RCC_OscConfig+0x2de>
        }
      }
    }

    /* Set the new LSE configuration -----------------------------------------*/
    __HAL_RCC_LSE_CONFIG(RCC_OscInitStruct->LSEState);
 80017ec:	687b      	ldr	r3, [r7, #4]
 80017ee:	68db      	ldr	r3, [r3, #12]
 80017f0:	2b01      	cmp	r3, #1
 80017f2:	d106      	bne.n	8001802 <HAL_RCC_OscConfig+0x312>
 80017f4:	4b7b      	ldr	r3, [pc, #492]	; (80019e4 <HAL_RCC_OscConfig+0x4f4>)
 80017f6:	6a1b      	ldr	r3, [r3, #32]
 80017f8:	4a7a      	ldr	r2, [pc, #488]	; (80019e4 <HAL_RCC_OscConfig+0x4f4>)
 80017fa:	f043 0301 	orr.w	r3, r3, #1
 80017fe:	6213      	str	r3, [r2, #32]
 8001800:	e02d      	b.n	800185e <HAL_RCC_OscConfig+0x36e>
 8001802:	687b      	ldr	r3, [r7, #4]
 8001804:	68db      	ldr	r3, [r3, #12]
 8001806:	2b00      	cmp	r3, #0
 8001808:	d10c      	bne.n	8001824 <HAL_RCC_OscConfig+0x334>
 800180a:	4b76      	ldr	r3, [pc, #472]	; (80019e4 <HAL_RCC_OscConfig+0x4f4>)
 800180c:	6a1b      	ldr	r3, [r3, #32]
 800180e:	4a75      	ldr	r2, [pc, #468]	; (80019e4 <HAL_RCC_OscConfig+0x4f4>)
 8001810:	f023 0301 	bic.w	r3, r3, #1
 8001814:	6213      	str	r3, [r2, #32]
 8001816:	4b73      	ldr	r3, [pc, #460]	; (80019e4 <HAL_RCC_OscConfig+0x4f4>)
 8001818:	6a1b      	ldr	r3, [r3, #32]
 800181a:	4a72      	ldr	r2, [pc, #456]	; (80019e4 <HAL_RCC_OscConfig+0x4f4>)
 800181c:	f023 0304 	bic.w	r3, r3, #4
 8001820:	6213      	str	r3, [r2, #32]
 8001822:	e01c      	b.n	800185e <HAL_RCC_OscConfig+0x36e>
 8001824:	687b      	ldr	r3, [r7, #4]
 8001826:	68db      	ldr	r3, [r3, #12]
 8001828:	2b05      	cmp	r3, #5
 800182a:	d10c      	bne.n	8001846 <HAL_RCC_OscConfig+0x356>
 800182c:	4b6d      	ldr	r3, [pc, #436]	; (80019e4 <HAL_RCC_OscConfig+0x4f4>)
 800182e:	6a1b      	ldr	r3, [r3, #32]
 8001830:	4a6c      	ldr	r2, [pc, #432]	; (80019e4 <HAL_RCC_OscConfig+0x4f4>)
 8001832:	f043 0304 	orr.w	r3, r3, #4
 8001836:	6213      	str	r3, [r2, #32]
 8001838:	4b6a      	ldr	r3, [pc, #424]	; (80019e4 <HAL_RCC_OscConfig+0x4f4>)
 800183a:	6a1b      	ldr	r3, [r3, #32]
 800183c:	4a69      	ldr	r2, [pc, #420]	; (80019e4 <HAL_RCC_OscConfig+0x4f4>)
 800183e:	f043 0301 	orr.w	r3, r3, #1
 8001842:	6213      	str	r3, [r2, #32]
 8001844:	e00b      	b.n	800185e <HAL_RCC_OscConfig+0x36e>
 8001846:	4b67      	ldr	r3, [pc, #412]	; (80019e4 <HAL_RCC_OscConfig+0x4f4>)
 8001848:	6a1b      	ldr	r3, [r3, #32]
 800184a:	4a66      	ldr	r2, [pc, #408]	; (80019e4 <HAL_RCC_OscConfig+0x4f4>)
 800184c:	f023 0301 	bic.w	r3, r3, #1
 8001850:	6213      	str	r3, [r2, #32]
 8001852:	4b64      	ldr	r3, [pc, #400]	; (80019e4 <HAL_RCC_OscConfig+0x4f4>)
 8001854:	6a1b      	ldr	r3, [r3, #32]
 8001856:	4a63      	ldr	r2, [pc, #396]	; (80019e4 <HAL_RCC_OscConfig+0x4f4>)
 8001858:	f023 0304 	bic.w	r3, r3, #4
 800185c:	6213      	str	r3, [r2, #32]
    /* Check the LSE State */
    if (RCC_OscInitStruct->LSEState != RCC_LSE_OFF)
 800185e:	687b      	ldr	r3, [r7, #4]
 8001860:	68db      	ldr	r3, [r3, #12]
 8001862:	2b00      	cmp	r3, #0
 8001864:	d015      	beq.n	8001892 <HAL_RCC_OscConfig+0x3a2>
    {
      /* Get Start Tick */
      tickstart = HAL_GetTick();
 8001866:	f7ff fb6b 	bl	8000f40 <HAL_GetTick>
 800186a:	6138      	str	r0, [r7, #16]

      /* Wait till LSE is ready */
      while (__HAL_RCC_GET_FLAG(RCC_FLAG_LSERDY) == RESET)
 800186c:	e00a      	b.n	8001884 <HAL_RCC_OscConfig+0x394>
      {
        if ((HAL_GetTick() - tickstart) > RCC_LSE_TIMEOUT_VALUE)
 800186e:	f7ff fb67 	bl	8000f40 <HAL_GetTick>
 8001872:	4602      	mov	r2, r0
 8001874:	693b      	ldr	r3, [r7, #16]
 8001876:	1ad3      	subs	r3, r2, r3
 8001878:	f241 3288 	movw	r2, #5000	; 0x1388
 800187c:	4293      	cmp	r3, r2
 800187e:	d901      	bls.n	8001884 <HAL_RCC_OscConfig+0x394>
        {
          return HAL_TIMEOUT;
 8001880:	2303      	movs	r3, #3
 8001882:	e0ab      	b.n	80019dc <HAL_RCC_OscConfig+0x4ec>
      while (__HAL_RCC_GET_FLAG(RCC_FLAG_LSERDY) == RESET)
 8001884:	4b57      	ldr	r3, [pc, #348]	; (80019e4 <HAL_RCC_OscConfig+0x4f4>)
 8001886:	6a1b      	ldr	r3, [r3, #32]
 8001888:	f003 0302 	and.w	r3, r3, #2
 800188c:	2b00      	cmp	r3, #0
 800188e:	d0ee      	beq.n	800186e <HAL_RCC_OscConfig+0x37e>
 8001890:	e014      	b.n	80018bc <HAL_RCC_OscConfig+0x3cc>
      }
    }
    else
    {
      /* Get Start Tick */
      tickstart = HAL_GetTick();
 8001892:	f7ff fb55 	bl	8000f40 <HAL_GetTick>
 8001896:	6138      	str	r0, [r7, #16]

      /* Wait till LSE is disabled */
      while (__HAL_RCC_GET_FLAG(RCC_FLAG_LSERDY) != RESET)
 8001898:	e00a      	b.n	80018b0 <HAL_RCC_OscConfig+0x3c0>
      {
        if ((HAL_GetTick() - tickstart) > RCC_LSE_TIMEOUT_VALUE)
 800189a:	f7ff fb51 	bl	8000f40 <HAL_GetTick>
 800189e:	4602      	mov	r2, r0
 80018a0:	693b      	ldr	r3, [r7, #16]
 80018a2:	1ad3      	subs	r3, r2, r3
 80018a4:	f241 3288 	movw	r2, #5000	; 0x1388
 80018a8:	4293      	cmp	r3, r2
 80018aa:	d901      	bls.n	80018b0 <HAL_RCC_OscConfig+0x3c0>
        {
          return HAL_TIMEOUT;
 80018ac:	2303      	movs	r3, #3
 80018ae:	e095      	b.n	80019dc <HAL_RCC_OscConfig+0x4ec>
      while (__HAL_RCC_GET_FLAG(RCC_FLAG_LSERDY) != RESET)
 80018b0:	4b4c      	ldr	r3, [pc, #304]	; (80019e4 <HAL_RCC_OscConfig+0x4f4>)
 80018b2:	6a1b      	ldr	r3, [r3, #32]
 80018b4:	f003 0302 	and.w	r3, r3, #2
 80018b8:	2b00      	cmp	r3, #0
 80018ba:	d1ee      	bne.n	800189a <HAL_RCC_OscConfig+0x3aa>
        }
      }
    }

    /* Require to disable power clock if necessary */
    if (pwrclkchanged == SET)
 80018bc:	7dfb      	ldrb	r3, [r7, #23]
 80018be:	2b01      	cmp	r3, #1
 80018c0:	d105      	bne.n	80018ce <HAL_RCC_OscConfig+0x3de>
    {
      __HAL_RCC_PWR_CLK_DISABLE();
 80018c2:	4b48      	ldr	r3, [pc, #288]	; (80019e4 <HAL_RCC_OscConfig+0x4f4>)
 80018c4:	69db      	ldr	r3, [r3, #28]
 80018c6:	4a47      	ldr	r2, [pc, #284]	; (80019e4 <HAL_RCC_OscConfig+0x4f4>)
 80018c8:	f023 5380 	bic.w	r3, r3, #268435456	; 0x10000000
 80018cc:	61d3      	str	r3, [r2, #28]

#endif /* RCC_CR_PLL2ON */
  /*-------------------------------- PLL Configuration -----------------------*/
  /* Check the parameters */
  assert_param(IS_RCC_PLL(RCC_OscInitStruct->PLL.PLLState));
  if ((RCC_OscInitStruct->PLL.PLLState) != RCC_PLL_NONE)
 80018ce:	687b      	ldr	r3, [r7, #4]
 80018d0:	69db      	ldr	r3, [r3, #28]
 80018d2:	2b00      	cmp	r3, #0
 80018d4:	f000 8081 	beq.w	80019da <HAL_RCC_OscConfig+0x4ea>
  {
    /* Check if the PLL is used as system clock or not */
    if (__HAL_RCC_GET_SYSCLK_SOURCE() != RCC_SYSCLKSOURCE_STATUS_PLLCLK)
 80018d8:	4b42      	ldr	r3, [pc, #264]	; (80019e4 <HAL_RCC_OscConfig+0x4f4>)
 80018da:	685b      	ldr	r3, [r3, #4]
 80018dc:	f003 030c 	and.w	r3, r3, #12
 80018e0:	2b08      	cmp	r3, #8
 80018e2:	d061      	beq.n	80019a8 <HAL_RCC_OscConfig+0x4b8>
    {
      if ((RCC_OscInitStruct->PLL.PLLState) == RCC_PLL_ON)
 80018e4:	687b      	ldr	r3, [r7, #4]
 80018e6:	69db      	ldr	r3, [r3, #28]
 80018e8:	2b02      	cmp	r3, #2
 80018ea:	d146      	bne.n	800197a <HAL_RCC_OscConfig+0x48a>
        /* Check the parameters */
        assert_param(IS_RCC_PLLSOURCE(RCC_OscInitStruct->PLL.PLLSource));
        assert_param(IS_RCC_PLL_MUL(RCC_OscInitStruct->PLL.PLLMUL));

        /* Disable the main PLL. */
        __HAL_RCC_PLL_DISABLE();
 80018ec:	4b3f      	ldr	r3, [pc, #252]	; (80019ec <HAL_RCC_OscConfig+0x4fc>)
 80018ee:	2200      	movs	r2, #0
 80018f0:	601a      	str	r2, [r3, #0]

        /* Get Start Tick */
        tickstart = HAL_GetTick();
 80018f2:	f7ff fb25 	bl	8000f40 <HAL_GetTick>
 80018f6:	6138      	str	r0, [r7, #16]

        /* Wait till PLL is disabled */
        while (__HAL_RCC_GET_FLAG(RCC_FLAG_PLLRDY)  != RESET)
 80018f8:	e008      	b.n	800190c <HAL_RCC_OscConfig+0x41c>
        {
          if ((HAL_GetTick() - tickstart) > PLL_TIMEOUT_VALUE)
 80018fa:	f7ff fb21 	bl	8000f40 <HAL_GetTick>
 80018fe:	4602      	mov	r2, r0
 8001900:	693b      	ldr	r3, [r7, #16]
 8001902:	1ad3      	subs	r3, r2, r3
 8001904:	2b02      	cmp	r3, #2
 8001906:	d901      	bls.n	800190c <HAL_RCC_OscConfig+0x41c>
          {
            return HAL_TIMEOUT;
 8001908:	2303      	movs	r3, #3
 800190a:	e067      	b.n	80019dc <HAL_RCC_OscConfig+0x4ec>
        while (__HAL_RCC_GET_FLAG(RCC_FLAG_PLLRDY)  != RESET)
 800190c:	4b35      	ldr	r3, [pc, #212]	; (80019e4 <HAL_RCC_OscConfig+0x4f4>)
 800190e:	681b      	ldr	r3, [r3, #0]
 8001910:	f003 7300 	and.w	r3, r3, #33554432	; 0x2000000
 8001914:	2b00      	cmp	r3, #0
 8001916:	d1f0      	bne.n	80018fa <HAL_RCC_OscConfig+0x40a>
          }
        }

        /* Configure the HSE prediv factor --------------------------------*/
        /* It can be written only when the PLL is disabled. Not used in PLL source is different than HSE */
        if (RCC_OscInitStruct->PLL.PLLSource == RCC_PLLSOURCE_HSE)
 8001918:	687b      	ldr	r3, [r7, #4]
 800191a:	6a1b      	ldr	r3, [r3, #32]
 800191c:	f5b3 3f80 	cmp.w	r3, #65536	; 0x10000
 8001920:	d108      	bne.n	8001934 <HAL_RCC_OscConfig+0x444>
          /* Set PREDIV1 source */
          SET_BIT(RCC->CFGR2, RCC_OscInitStruct->Prediv1Source);
#endif /* RCC_CFGR2_PREDIV1SRC */

          /* Set PREDIV1 Value */
          __HAL_RCC_HSE_PREDIV_CONFIG(RCC_OscInitStruct->HSEPredivValue);
 8001922:	4b30      	ldr	r3, [pc, #192]	; (80019e4 <HAL_RCC_OscConfig+0x4f4>)
 8001924:	685b      	ldr	r3, [r3, #4]
 8001926:	f423 3200 	bic.w	r2, r3, #131072	; 0x20000
 800192a:	687b      	ldr	r3, [r7, #4]
 800192c:	689b      	ldr	r3, [r3, #8]
 800192e:	492d      	ldr	r1, [pc, #180]	; (80019e4 <HAL_RCC_OscConfig+0x4f4>)
 8001930:	4313      	orrs	r3, r2
 8001932:	604b      	str	r3, [r1, #4]
        }

        /* Configure the main PLL clock source and multiplication factors. */
        __HAL_RCC_PLL_CONFIG(RCC_OscInitStruct->PLL.PLLSource,
 8001934:	4b2b      	ldr	r3, [pc, #172]	; (80019e4 <HAL_RCC_OscConfig+0x4f4>)
 8001936:	685b      	ldr	r3, [r3, #4]
 8001938:	f423 1274 	bic.w	r2, r3, #3997696	; 0x3d0000
 800193c:	687b      	ldr	r3, [r7, #4]
 800193e:	6a19      	ldr	r1, [r3, #32]
 8001940:	687b      	ldr	r3, [r7, #4]
 8001942:	6a5b      	ldr	r3, [r3, #36]	; 0x24
 8001944:	430b      	orrs	r3, r1
 8001946:	4927      	ldr	r1, [pc, #156]	; (80019e4 <HAL_RCC_OscConfig+0x4f4>)
 8001948:	4313      	orrs	r3, r2
 800194a:	604b      	str	r3, [r1, #4]
                             RCC_OscInitStruct->PLL.PLLMUL);
        /* Enable the main PLL. */
        __HAL_RCC_PLL_ENABLE();
 800194c:	4b27      	ldr	r3, [pc, #156]	; (80019ec <HAL_RCC_OscConfig+0x4fc>)
 800194e:	2201      	movs	r2, #1
 8001950:	601a      	str	r2, [r3, #0]

        /* Get Start Tick */
        tickstart = HAL_GetTick();
 8001952:	f7ff faf5 	bl	8000f40 <HAL_GetTick>
 8001956:	6138      	str	r0, [r7, #16]

        /* Wait till PLL is ready */
        while (__HAL_RCC_GET_FLAG(RCC_FLAG_PLLRDY)  == RESET)
 8001958:	e008      	b.n	800196c <HAL_RCC_OscConfig+0x47c>
        {
          if ((HAL_GetTick() - tickstart) > PLL_TIMEOUT_VALUE)
 800195a:	f7ff faf1 	bl	8000f40 <HAL_GetTick>
 800195e:	4602      	mov	r2, r0
 8001960:	693b      	ldr	r3, [r7, #16]
 8001962:	1ad3      	subs	r3, r2, r3
 8001964:	2b02      	cmp	r3, #2
 8001966:	d901      	bls.n	800196c <HAL_RCC_OscConfig+0x47c>
          {
            return HAL_TIMEOUT;
 8001968:	2303      	movs	r3, #3
 800196a:	e037      	b.n	80019dc <HAL_RCC_OscConfig+0x4ec>
        while (__HAL_RCC_GET_FLAG(RCC_FLAG_PLLRDY)  == RESET)
 800196c:	4b1d      	ldr	r3, [pc, #116]	; (80019e4 <HAL_RCC_OscConfig+0x4f4>)
 800196e:	681b      	ldr	r3, [r3, #0]
 8001970:	f003 7300 	and.w	r3, r3, #33554432	; 0x2000000
 8001974:	2b00      	cmp	r3, #0
 8001976:	d0f0      	beq.n	800195a <HAL_RCC_OscConfig+0x46a>
 8001978:	e02f      	b.n	80019da <HAL_RCC_OscConfig+0x4ea>
        }
      }
      else
      {
        /* Disable the main PLL. */
        __HAL_RCC_PLL_DISABLE();
 800197a:	4b1c      	ldr	r3, [pc, #112]	; (80019ec <HAL_RCC_OscConfig+0x4fc>)
 800197c:	2200      	movs	r2, #0
 800197e:	601a      	str	r2, [r3, #0]

        /* Get Start Tick */
        tickstart = HAL_GetTick();
 8001980:	f7ff fade 	bl	8000f40 <HAL_GetTick>
 8001984:	6138      	str	r0, [r7, #16]

        /* Wait till PLL is disabled */
        while (__HAL_RCC_GET_FLAG(RCC_FLAG_PLLRDY)  != RESET)
 8001986:	e008      	b.n	800199a <HAL_RCC_OscConfig+0x4aa>
        {
          if ((HAL_GetTick() - tickstart) > PLL_TIMEOUT_VALUE)
 8001988:	f7ff fada 	bl	8000f40 <HAL_GetTick>
 800198c:	4602      	mov	r2, r0
 800198e:	693b      	ldr	r3, [r7, #16]
 8001990:	1ad3      	subs	r3, r2, r3
 8001992:	2b02      	cmp	r3, #2
 8001994:	d901      	bls.n	800199a <HAL_RCC_OscConfig+0x4aa>
          {
            return HAL_TIMEOUT;
 8001996:	2303      	movs	r3, #3
 8001998:	e020      	b.n	80019dc <HAL_RCC_OscConfig+0x4ec>
        while (__HAL_RCC_GET_FLAG(RCC_FLAG_PLLRDY)  != RESET)
 800199a:	4b12      	ldr	r3, [pc, #72]	; (80019e4 <HAL_RCC_OscConfig+0x4f4>)
 800199c:	681b      	ldr	r3, [r3, #0]
 800199e:	f003 7300 	and.w	r3, r3, #33554432	; 0x2000000
 80019a2:	2b00      	cmp	r3, #0
 80019a4:	d1f0      	bne.n	8001988 <HAL_RCC_OscConfig+0x498>
 80019a6:	e018      	b.n	80019da <HAL_RCC_OscConfig+0x4ea>
      }
    }
    else
    {
      /* Check if there is a request to disable the PLL used as System clock source */
      if ((RCC_OscInitStruct->PLL.PLLState) == RCC_PLL_OFF)
 80019a8:	687b      	ldr	r3, [r7, #4]
 80019aa:	69db      	ldr	r3, [r3, #28]
 80019ac:	2b01      	cmp	r3, #1
 80019ae:	d101      	bne.n	80019b4 <HAL_RCC_OscConfig+0x4c4>
      {
        return HAL_ERROR;
 80019b0:	2301      	movs	r3, #1
 80019b2:	e013      	b.n	80019dc <HAL_RCC_OscConfig+0x4ec>
      }
      else
      {
        /* Do not return HAL_ERROR if request repeats the current configuration */
        pll_config = RCC->CFGR;
 80019b4:	4b0b      	ldr	r3, [pc, #44]	; (80019e4 <HAL_RCC_OscConfig+0x4f4>)
 80019b6:	685b      	ldr	r3, [r3, #4]
 80019b8:	60fb      	str	r3, [r7, #12]
        if ((READ_BIT(pll_config, RCC_CFGR_PLLSRC) != RCC_OscInitStruct->PLL.PLLSource) ||
 80019ba:	68fb      	ldr	r3, [r7, #12]
 80019bc:	f403 3280 	and.w	r2, r3, #65536	; 0x10000
 80019c0:	687b      	ldr	r3, [r7, #4]
 80019c2:	6a1b      	ldr	r3, [r3, #32]
 80019c4:	429a      	cmp	r2, r3
 80019c6:	d106      	bne.n	80019d6 <HAL_RCC_OscConfig+0x4e6>
            (READ_BIT(pll_config, RCC_CFGR_PLLMULL) != RCC_OscInitStruct->PLL.PLLMUL))
 80019c8:	68fb      	ldr	r3, [r7, #12]
 80019ca:	f403 1270 	and.w	r2, r3, #3932160	; 0x3c0000
 80019ce:	687b      	ldr	r3, [r7, #4]
 80019d0:	6a5b      	ldr	r3, [r3, #36]	; 0x24
        if ((READ_BIT(pll_config, RCC_CFGR_PLLSRC) != RCC_OscInitStruct->PLL.PLLSource) ||
 80019d2:	429a      	cmp	r2, r3
 80019d4:	d001      	beq.n	80019da <HAL_RCC_OscConfig+0x4ea>
        {
          return HAL_ERROR;
 80019d6:	2301      	movs	r3, #1
 80019d8:	e000      	b.n	80019dc <HAL_RCC_OscConfig+0x4ec>
        }
      }
    }
  }

  return HAL_OK;
 80019da:	2300      	movs	r3, #0
}
 80019dc:	4618      	mov	r0, r3
 80019de:	3718      	adds	r7, #24
 80019e0:	46bd      	mov	sp, r7
 80019e2:	bd80      	pop	{r7, pc}
 80019e4:	40021000 	.word	0x40021000
 80019e8:	40007000 	.word	0x40007000
 80019ec:	42420060 	.word	0x42420060

080019f0 <HAL_RCC_ClockConfig>:
  *         You can use @ref HAL_RCC_GetClockConfig() function to know which clock is
  *         currently used as system clock source.
  * @retval HAL status
  */
HAL_StatusTypeDef HAL_RCC_ClockConfig(RCC_ClkInitTypeDef  *RCC_ClkInitStruct, uint32_t FLatency)
{
 80019f0:	b580      	push	{r7, lr}
 80019f2:	b084      	sub	sp, #16
 80019f4:	af00      	add	r7, sp, #0
 80019f6:	6078      	str	r0, [r7, #4]
 80019f8:	6039      	str	r1, [r7, #0]
  uint32_t tickstart;

  /* Check Null pointer */
  if (RCC_ClkInitStruct == NULL)
 80019fa:	687b      	ldr	r3, [r7, #4]
 80019fc:	2b00      	cmp	r3, #0
 80019fe:	d101      	bne.n	8001a04 <HAL_RCC_ClockConfig+0x14>
  {
    return HAL_ERROR;
 8001a00:	2301      	movs	r3, #1
 8001a02:	e0d0      	b.n	8001ba6 <HAL_RCC_ClockConfig+0x1b6>
  must be correctly programmed according to the frequency of the CPU clock
    (HCLK) of the device. */

#if defined(FLASH_ACR_LATENCY)
  /* Increasing the number of wait states because of higher CPU frequency */
  if (FLatency > __HAL_FLASH_GET_LATENCY())
 8001a04:	4b6a      	ldr	r3, [pc, #424]	; (8001bb0 <HAL_RCC_ClockConfig+0x1c0>)
 8001a06:	681b      	ldr	r3, [r3, #0]
 8001a08:	f003 0307 	and.w	r3, r3, #7
 8001a0c:	683a      	ldr	r2, [r7, #0]
 8001a0e:	429a      	cmp	r2, r3
 8001a10:	d910      	bls.n	8001a34 <HAL_RCC_ClockConfig+0x44>
  {
    /* Program the new number of wait states to the LATENCY bits in the FLASH_ACR register */
    __HAL_FLASH_SET_LATENCY(FLatency);
 8001a12:	4b67      	ldr	r3, [pc, #412]	; (8001bb0 <HAL_RCC_ClockConfig+0x1c0>)
 8001a14:	681b      	ldr	r3, [r3, #0]
 8001a16:	f023 0207 	bic.w	r2, r3, #7
 8001a1a:	4965      	ldr	r1, [pc, #404]	; (8001bb0 <HAL_RCC_ClockConfig+0x1c0>)
 8001a1c:	683b      	ldr	r3, [r7, #0]
 8001a1e:	4313      	orrs	r3, r2
 8001a20:	600b      	str	r3, [r1, #0]

    /* Check that the new number of wait states is taken into account to access the Flash
    memory by reading the FLASH_ACR register */
    if (__HAL_FLASH_GET_LATENCY() != FLatency)
 8001a22:	4b63      	ldr	r3, [pc, #396]	; (8001bb0 <HAL_RCC_ClockConfig+0x1c0>)
 8001a24:	681b      	ldr	r3, [r3, #0]
 8001a26:	f003 0307 	and.w	r3, r3, #7
 8001a2a:	683a      	ldr	r2, [r7, #0]
 8001a2c:	429a      	cmp	r2, r3
 8001a2e:	d001      	beq.n	8001a34 <HAL_RCC_ClockConfig+0x44>
  {
    return HAL_ERROR;
 8001a30:	2301      	movs	r3, #1
 8001a32:	e0b8      	b.n	8001ba6 <HAL_RCC_ClockConfig+0x1b6>
  }
}

#endif /* FLASH_ACR_LATENCY */
/*-------------------------- HCLK Configuration --------------------------*/
if (((RCC_ClkInitStruct->ClockType) & RCC_CLOCKTYPE_HCLK) == RCC_CLOCKTYPE_HCLK)
 8001a34:	687b      	ldr	r3, [r7, #4]
 8001a36:	681b      	ldr	r3, [r3, #0]
 8001a38:	f003 0302 	and.w	r3, r3, #2
 8001a3c:	2b00      	cmp	r3, #0
 8001a3e:	d020      	beq.n	8001a82 <HAL_RCC_ClockConfig+0x92>
  {
    /* Set the highest APBx dividers in order to ensure that we do not go through
    a non-spec phase whatever we decrease or increase HCLK. */
    if (((RCC_ClkInitStruct->ClockType) & RCC_CLOCKTYPE_PCLK1) == RCC_CLOCKTYPE_PCLK1)
 8001a40:	687b      	ldr	r3, [r7, #4]
 8001a42:	681b      	ldr	r3, [r3, #0]
 8001a44:	f003 0304 	and.w	r3, r3, #4
 8001a48:	2b00      	cmp	r3, #0
 8001a4a:	d005      	beq.n	8001a58 <HAL_RCC_ClockConfig+0x68>
    {
      MODIFY_REG(RCC->CFGR, RCC_CFGR_PPRE1, RCC_HCLK_DIV16);
 8001a4c:	4b59      	ldr	r3, [pc, #356]	; (8001bb4 <HAL_RCC_ClockConfig+0x1c4>)
 8001a4e:	685b      	ldr	r3, [r3, #4]
 8001a50:	4a58      	ldr	r2, [pc, #352]	; (8001bb4 <HAL_RCC_ClockConfig+0x1c4>)
 8001a52:	f443 63e0 	orr.w	r3, r3, #1792	; 0x700
 8001a56:	6053      	str	r3, [r2, #4]
    }

    if (((RCC_ClkInitStruct->ClockType) & RCC_CLOCKTYPE_PCLK2) == RCC_CLOCKTYPE_PCLK2)
 8001a58:	687b      	ldr	r3, [r7, #4]
 8001a5a:	681b      	ldr	r3, [r3, #0]
 8001a5c:	f003 0308 	and.w	r3, r3, #8
 8001a60:	2b00      	cmp	r3, #0
 8001a62:	d005      	beq.n	8001a70 <HAL_RCC_ClockConfig+0x80>
    {
      MODIFY_REG(RCC->CFGR, RCC_CFGR_PPRE2, (RCC_HCLK_DIV16 << 3));
 8001a64:	4b53      	ldr	r3, [pc, #332]	; (8001bb4 <HAL_RCC_ClockConfig+0x1c4>)
 8001a66:	685b      	ldr	r3, [r3, #4]
 8001a68:	4a52      	ldr	r2, [pc, #328]	; (8001bb4 <HAL_RCC_ClockConfig+0x1c4>)
 8001a6a:	f443 5360 	orr.w	r3, r3, #14336	; 0x3800
 8001a6e:	6053      	str	r3, [r2, #4]
    }

    /* Set the new HCLK clock divider */
    assert_param(IS_RCC_HCLK(RCC_ClkInitStruct->AHBCLKDivider));
    MODIFY_REG(RCC->CFGR, RCC_CFGR_HPRE, RCC_ClkInitStruct->AHBCLKDivider);
 8001a70:	4b50      	ldr	r3, [pc, #320]	; (8001bb4 <HAL_RCC_ClockConfig+0x1c4>)
 8001a72:	685b      	ldr	r3, [r3, #4]
 8001a74:	f023 02f0 	bic.w	r2, r3, #240	; 0xf0
 8001a78:	687b      	ldr	r3, [r7, #4]
 8001a7a:	689b      	ldr	r3, [r3, #8]
 8001a7c:	494d      	ldr	r1, [pc, #308]	; (8001bb4 <HAL_RCC_ClockConfig+0x1c4>)
 8001a7e:	4313      	orrs	r3, r2
 8001a80:	604b      	str	r3, [r1, #4]
  }

  /*------------------------- SYSCLK Configuration ---------------------------*/
  if (((RCC_ClkInitStruct->ClockType) & RCC_CLOCKTYPE_SYSCLK) == RCC_CLOCKTYPE_SYSCLK)
 8001a82:	687b      	ldr	r3, [r7, #4]
 8001a84:	681b      	ldr	r3, [r3, #0]
 8001a86:	f003 0301 	and.w	r3, r3, #1
 8001a8a:	2b00      	cmp	r3, #0
 8001a8c:	d040      	beq.n	8001b10 <HAL_RCC_ClockConfig+0x120>
  {
    assert_param(IS_RCC_SYSCLKSOURCE(RCC_ClkInitStruct->SYSCLKSource));

    /* HSE is selected as System Clock Source */
    if (RCC_ClkInitStruct->SYSCLKSource == RCC_SYSCLKSOURCE_HSE)
 8001a8e:	687b      	ldr	r3, [r7, #4]
 8001a90:	685b      	ldr	r3, [r3, #4]
 8001a92:	2b01      	cmp	r3, #1
 8001a94:	d107      	bne.n	8001aa6 <HAL_RCC_ClockConfig+0xb6>
    {
      /* Check the HSE ready flag */
      if (__HAL_RCC_GET_FLAG(RCC_FLAG_HSERDY) == RESET)
 8001a96:	4b47      	ldr	r3, [pc, #284]	; (8001bb4 <HAL_RCC_ClockConfig+0x1c4>)
 8001a98:	681b      	ldr	r3, [r3, #0]
 8001a9a:	f403 3300 	and.w	r3, r3, #131072	; 0x20000
 8001a9e:	2b00      	cmp	r3, #0
 8001aa0:	d115      	bne.n	8001ace <HAL_RCC_ClockConfig+0xde>
      {
        return HAL_ERROR;
 8001aa2:	2301      	movs	r3, #1
 8001aa4:	e07f      	b.n	8001ba6 <HAL_RCC_ClockConfig+0x1b6>
      }
    }
    /* PLL is selected as System Clock Source */
    else if (RCC_ClkInitStruct->SYSCLKSource == RCC_SYSCLKSOURCE_PLLCLK)
 8001aa6:	687b      	ldr	r3, [r7, #4]
 8001aa8:	685b      	ldr	r3, [r3, #4]
 8001aaa:	2b02      	cmp	r3, #2
 8001aac:	d107      	bne.n	8001abe <HAL_RCC_ClockConfig+0xce>
    {
      /* Check the PLL ready flag */
      if (__HAL_RCC_GET_FLAG(RCC_FLAG_PLLRDY) == RESET)
 8001aae:	4b41      	ldr	r3, [pc, #260]	; (8001bb4 <HAL_RCC_ClockConfig+0x1c4>)
 8001ab0:	681b      	ldr	r3, [r3, #0]
 8001ab2:	f003 7300 	and.w	r3, r3, #33554432	; 0x2000000
 8001ab6:	2b00      	cmp	r3, #0
 8001ab8:	d109      	bne.n	8001ace <HAL_RCC_ClockConfig+0xde>
      {
        return HAL_ERROR;
 8001aba:	2301      	movs	r3, #1
 8001abc:	e073      	b.n	8001ba6 <HAL_RCC_ClockConfig+0x1b6>
    }
    /* HSI is selected as System Clock Source */
    else
    {
      /* Check the HSI ready flag */
      if (__HAL_RCC_GET_FLAG(RCC_FLAG_HSIRDY) == RESET)
 8001abe:	4b3d      	ldr	r3, [pc, #244]	; (8001bb4 <HAL_RCC_ClockConfig+0x1c4>)
 8001ac0:	681b      	ldr	r3, [r3, #0]
 8001ac2:	f003 0302 	and.w	r3, r3, #2
 8001ac6:	2b00      	cmp	r3, #0
 8001ac8:	d101      	bne.n	8001ace <HAL_RCC_ClockConfig+0xde>
      {
        return HAL_ERROR;
 8001aca:	2301      	movs	r3, #1
 8001acc:	e06b      	b.n	8001ba6 <HAL_RCC_ClockConfig+0x1b6>
      }
    }
    __HAL_RCC_SYSCLK_CONFIG(RCC_ClkInitStruct->SYSCLKSource);
 8001ace:	4b39      	ldr	r3, [pc, #228]	; (8001bb4 <HAL_RCC_ClockConfig+0x1c4>)
 8001ad0:	685b      	ldr	r3, [r3, #4]
 8001ad2:	f023 0203 	bic.w	r2, r3, #3
 8001ad6:	687b      	ldr	r3, [r7, #4]
 8001ad8:	685b      	ldr	r3, [r3, #4]
 8001ada:	4936      	ldr	r1, [pc, #216]	; (8001bb4 <HAL_RCC_ClockConfig+0x1c4>)
 8001adc:	4313      	orrs	r3, r2
 8001ade:	604b      	str	r3, [r1, #4]

    /* Get Start Tick */
    tickstart = HAL_GetTick();
 8001ae0:	f7ff fa2e 	bl	8000f40 <HAL_GetTick>
 8001ae4:	60f8      	str	r0, [r7, #12]

    while (__HAL_RCC_GET_SYSCLK_SOURCE() != (RCC_ClkInitStruct->SYSCLKSource << RCC_CFGR_SWS_Pos))
 8001ae6:	e00a      	b.n	8001afe <HAL_RCC_ClockConfig+0x10e>
    {
      if ((HAL_GetTick() - tickstart) > CLOCKSWITCH_TIMEOUT_VALUE)
 8001ae8:	f7ff fa2a 	bl	8000f40 <HAL_GetTick>
 8001aec:	4602      	mov	r2, r0
 8001aee:	68fb      	ldr	r3, [r7, #12]
 8001af0:	1ad3      	subs	r3, r2, r3
 8001af2:	f241 3288 	movw	r2, #5000	; 0x1388
 8001af6:	4293      	cmp	r3, r2
 8001af8:	d901      	bls.n	8001afe <HAL_RCC_ClockConfig+0x10e>
      {
        return HAL_TIMEOUT;
 8001afa:	2303      	movs	r3, #3
 8001afc:	e053      	b.n	8001ba6 <HAL_RCC_ClockConfig+0x1b6>
    while (__HAL_RCC_GET_SYSCLK_SOURCE() != (RCC_ClkInitStruct->SYSCLKSource << RCC_CFGR_SWS_Pos))
 8001afe:	4b2d      	ldr	r3, [pc, #180]	; (8001bb4 <HAL_RCC_ClockConfig+0x1c4>)
 8001b00:	685b      	ldr	r3, [r3, #4]
 8001b02:	f003 020c 	and.w	r2, r3, #12
 8001b06:	687b      	ldr	r3, [r7, #4]
 8001b08:	685b      	ldr	r3, [r3, #4]
 8001b0a:	009b      	lsls	r3, r3, #2
 8001b0c:	429a      	cmp	r2, r3
 8001b0e:	d1eb      	bne.n	8001ae8 <HAL_RCC_ClockConfig+0xf8>
    }
  }

#if defined(FLASH_ACR_LATENCY)
  /* Decreasing the number of wait states because of lower CPU frequency */
  if (FLatency < __HAL_FLASH_GET_LATENCY())
 8001b10:	4b27      	ldr	r3, [pc, #156]	; (8001bb0 <HAL_RCC_ClockConfig+0x1c0>)
 8001b12:	681b      	ldr	r3, [r3, #0]
 8001b14:	f003 0307 	and.w	r3, r3, #7
 8001b18:	683a      	ldr	r2, [r7, #0]
 8001b1a:	429a      	cmp	r2, r3
 8001b1c:	d210      	bcs.n	8001b40 <HAL_RCC_ClockConfig+0x150>
  {
    /* Program the new number of wait states to the LATENCY bits in the FLASH_ACR register */
    __HAL_FLASH_SET_LATENCY(FLatency);
 8001b1e:	4b24      	ldr	r3, [pc, #144]	; (8001bb0 <HAL_RCC_ClockConfig+0x1c0>)
 8001b20:	681b      	ldr	r3, [r3, #0]
 8001b22:	f023 0207 	bic.w	r2, r3, #7
 8001b26:	4922      	ldr	r1, [pc, #136]	; (8001bb0 <HAL_RCC_ClockConfig+0x1c0>)
 8001b28:	683b      	ldr	r3, [r7, #0]
 8001b2a:	4313      	orrs	r3, r2
 8001b2c:	600b      	str	r3, [r1, #0]

    /* Check that the new number of wait states is taken into account to access the Flash
    memory by reading the FLASH_ACR register */
    if (__HAL_FLASH_GET_LATENCY() != FLatency)
 8001b2e:	4b20      	ldr	r3, [pc, #128]	; (8001bb0 <HAL_RCC_ClockConfig+0x1c0>)
 8001b30:	681b      	ldr	r3, [r3, #0]
 8001b32:	f003 0307 	and.w	r3, r3, #7
 8001b36:	683a      	ldr	r2, [r7, #0]
 8001b38:	429a      	cmp	r2, r3
 8001b3a:	d001      	beq.n	8001b40 <HAL_RCC_ClockConfig+0x150>
  {
    return HAL_ERROR;
 8001b3c:	2301      	movs	r3, #1
 8001b3e:	e032      	b.n	8001ba6 <HAL_RCC_ClockConfig+0x1b6>
  }
}
#endif /* FLASH_ACR_LATENCY */

/*-------------------------- PCLK1 Configuration ---------------------------*/
if (((RCC_ClkInitStruct->ClockType) & RCC_CLOCKTYPE_PCLK1) == RCC_CLOCKTYPE_PCLK1)
 8001b40:	687b      	ldr	r3, [r7, #4]
 8001b42:	681b      	ldr	r3, [r3, #0]
 8001b44:	f003 0304 	and.w	r3, r3, #4
 8001b48:	2b00      	cmp	r3, #0
 8001b4a:	d008      	beq.n	8001b5e <HAL_RCC_ClockConfig+0x16e>
  {
    assert_param(IS_RCC_PCLK(RCC_ClkInitStruct->APB1CLKDivider));
    MODIFY_REG(RCC->CFGR, RCC_CFGR_PPRE1, RCC_ClkInitStruct->APB1CLKDivider);
 8001b4c:	4b19      	ldr	r3, [pc, #100]	; (8001bb4 <HAL_RCC_ClockConfig+0x1c4>)
 8001b4e:	685b      	ldr	r3, [r3, #4]
 8001b50:	f423 62e0 	bic.w	r2, r3, #1792	; 0x700
 8001b54:	687b      	ldr	r3, [r7, #4]
 8001b56:	68db      	ldr	r3, [r3, #12]
 8001b58:	4916      	ldr	r1, [pc, #88]	; (8001bb4 <HAL_RCC_ClockConfig+0x1c4>)
 8001b5a:	4313      	orrs	r3, r2
 8001b5c:	604b      	str	r3, [r1, #4]
  }

  /*-------------------------- PCLK2 Configuration ---------------------------*/
  if (((RCC_ClkInitStruct->ClockType) & RCC_CLOCKTYPE_PCLK2) == RCC_CLOCKTYPE_PCLK2)
 8001b5e:	687b      	ldr	r3, [r7, #4]
 8001b60:	681b      	ldr	r3, [r3, #0]
 8001b62:	f003 0308 	and.w	r3, r3, #8
 8001b66:	2b00      	cmp	r3, #0
 8001b68:	d009      	beq.n	8001b7e <HAL_RCC_ClockConfig+0x18e>
  {
    assert_param(IS_RCC_PCLK(RCC_ClkInitStruct->APB2CLKDivider));
    MODIFY_REG(RCC->CFGR, RCC_CFGR_PPRE2, ((RCC_ClkInitStruct->APB2CLKDivider) << 3));
 8001b6a:	4b12      	ldr	r3, [pc, #72]	; (8001bb4 <HAL_RCC_ClockConfig+0x1c4>)
 8001b6c:	685b      	ldr	r3, [r3, #4]
 8001b6e:	f423 5260 	bic.w	r2, r3, #14336	; 0x3800
 8001b72:	687b      	ldr	r3, [r7, #4]
 8001b74:	691b      	ldr	r3, [r3, #16]
 8001b76:	00db      	lsls	r3, r3, #3
 8001b78:	490e      	ldr	r1, [pc, #56]	; (8001bb4 <HAL_RCC_ClockConfig+0x1c4>)
 8001b7a:	4313      	orrs	r3, r2
 8001b7c:	604b      	str	r3, [r1, #4]
  }

  /* Update the SystemCoreClock global variable */
  SystemCoreClock = HAL_RCC_GetSysClockFreq() >> AHBPrescTable[(RCC->CFGR & RCC_CFGR_HPRE) >> RCC_CFGR_HPRE_Pos];
 8001b7e:	f000 f821 	bl	8001bc4 <HAL_RCC_GetSysClockFreq>
 8001b82:	4602      	mov	r2, r0
 8001b84:	4b0b      	ldr	r3, [pc, #44]	; (8001bb4 <HAL_RCC_ClockConfig+0x1c4>)
 8001b86:	685b      	ldr	r3, [r3, #4]
 8001b88:	091b      	lsrs	r3, r3, #4
 8001b8a:	f003 030f 	and.w	r3, r3, #15
 8001b8e:	490a      	ldr	r1, [pc, #40]	; (8001bb8 <HAL_RCC_ClockConfig+0x1c8>)
 8001b90:	5ccb      	ldrb	r3, [r1, r3]
 8001b92:	fa22 f303 	lsr.w	r3, r2, r3
 8001b96:	4a09      	ldr	r2, [pc, #36]	; (8001bbc <HAL_RCC_ClockConfig+0x1cc>)
 8001b98:	6013      	str	r3, [r2, #0]

  /* Configure the source of time base considering new system clocks settings*/
  HAL_InitTick(uwTickPrio);
 8001b9a:	4b09      	ldr	r3, [pc, #36]	; (8001bc0 <HAL_RCC_ClockConfig+0x1d0>)
 8001b9c:	681b      	ldr	r3, [r3, #0]
 8001b9e:	4618      	mov	r0, r3
 8001ba0:	f7ff f98c 	bl	8000ebc <HAL_InitTick>

  return HAL_OK;
 8001ba4:	2300      	movs	r3, #0
}
 8001ba6:	4618      	mov	r0, r3
 8001ba8:	3710      	adds	r7, #16
 8001baa:	46bd      	mov	sp, r7
 8001bac:	bd80      	pop	{r7, pc}
 8001bae:	bf00      	nop
 8001bb0:	40022000 	.word	0x40022000
 8001bb4:	40021000 	.word	0x40021000
 8001bb8:	080045cc 	.word	0x080045cc
 8001bbc:	20000000 	.word	0x20000000
 8001bc0:	20000004 	.word	0x20000004

08001bc4 <HAL_RCC_GetSysClockFreq>:
  *         right SYSCLK value. Otherwise, any configuration based on this function will be incorrect.
  *
  * @retval SYSCLK frequency
  */
uint32_t HAL_RCC_GetSysClockFreq(void)
{
 8001bc4:	b490      	push	{r4, r7}
 8001bc6:	b08a      	sub	sp, #40	; 0x28
 8001bc8:	af00      	add	r7, sp, #0
#if defined(RCC_CFGR2_PREDIV1SRC)
  const uint8_t aPLLMULFactorTable[14] = {0, 0, 4, 5, 6, 7, 8, 9, 0, 0, 0, 0, 0, 13};
  const uint8_t aPredivFactorTable[16] = {1, 2, 3, 4, 5, 6, 7, 8, 9, 10, 11, 12, 13, 14, 15, 16};
#else
  const uint8_t aPLLMULFactorTable[16] = {2, 3, 4, 5, 6, 7, 8, 9, 10, 11, 12, 13, 14, 15, 16, 16};
 8001bca:	4b2a      	ldr	r3, [pc, #168]	; (8001c74 <HAL_RCC_GetSysClockFreq+0xb0>)
 8001bcc:	1d3c      	adds	r4, r7, #4
 8001bce:	cb0f      	ldmia	r3, {r0, r1, r2, r3}
 8001bd0:	e884 000f 	stmia.w	r4, {r0, r1, r2, r3}
#if defined(RCC_CFGR2_PREDIV1)
  const uint8_t aPredivFactorTable[16] = {1, 2, 3, 4, 5, 6, 7, 8, 9, 10, 11, 12, 13, 14, 15, 16};
#else
  const uint8_t aPredivFactorTable[2] = {1, 2};
 8001bd4:	f240 2301 	movw	r3, #513	; 0x201
 8001bd8:	803b      	strh	r3, [r7, #0]
#endif /*RCC_CFGR2_PREDIV1*/

#endif
  uint32_t tmpreg = 0U, prediv = 0U, pllclk = 0U, pllmul = 0U;
 8001bda:	2300      	movs	r3, #0
 8001bdc:	61fb      	str	r3, [r7, #28]
 8001bde:	2300      	movs	r3, #0
 8001be0:	61bb      	str	r3, [r7, #24]
 8001be2:	2300      	movs	r3, #0
 8001be4:	627b      	str	r3, [r7, #36]	; 0x24
 8001be6:	2300      	movs	r3, #0
 8001be8:	617b      	str	r3, [r7, #20]
  uint32_t sysclockfreq = 0U;
 8001bea:	2300      	movs	r3, #0
 8001bec:	623b      	str	r3, [r7, #32]
#if defined(RCC_CFGR2_PREDIV1SRC)
  uint32_t prediv2 = 0U, pll2mul = 0U;
#endif /*RCC_CFGR2_PREDIV1SRC*/

  tmpreg = RCC->CFGR;
 8001bee:	4b22      	ldr	r3, [pc, #136]	; (8001c78 <HAL_RCC_GetSysClockFreq+0xb4>)
 8001bf0:	685b      	ldr	r3, [r3, #4]
 8001bf2:	61fb      	str	r3, [r7, #28]

  /* Get SYSCLK source -------------------------------------------------------*/
  switch (tmpreg & RCC_CFGR_SWS)
 8001bf4:	69fb      	ldr	r3, [r7, #28]
 8001bf6:	f003 030c 	and.w	r3, r3, #12
 8001bfa:	2b04      	cmp	r3, #4
 8001bfc:	d002      	beq.n	8001c04 <HAL_RCC_GetSysClockFreq+0x40>
 8001bfe:	2b08      	cmp	r3, #8
 8001c00:	d003      	beq.n	8001c0a <HAL_RCC_GetSysClockFreq+0x46>
 8001c02:	e02d      	b.n	8001c60 <HAL_RCC_GetSysClockFreq+0x9c>
  {
    case RCC_SYSCLKSOURCE_STATUS_HSE:  /* HSE used as system clock */
    {
      sysclockfreq = HSE_VALUE;
 8001c04:	4b1d      	ldr	r3, [pc, #116]	; (8001c7c <HAL_RCC_GetSysClockFreq+0xb8>)
 8001c06:	623b      	str	r3, [r7, #32]
      break;
 8001c08:	e02d      	b.n	8001c66 <HAL_RCC_GetSysClockFreq+0xa2>
    }
    case RCC_SYSCLKSOURCE_STATUS_PLLCLK:  /* PLL used as system clock */
    {
      pllmul = aPLLMULFactorTable[(uint32_t)(tmpreg & RCC_CFGR_PLLMULL) >> RCC_CFGR_PLLMULL_Pos];
 8001c0a:	69fb      	ldr	r3, [r7, #28]
 8001c0c:	0c9b      	lsrs	r3, r3, #18
 8001c0e:	f003 030f 	and.w	r3, r3, #15
 8001c12:	f107 0228 	add.w	r2, r7, #40	; 0x28
 8001c16:	4413      	add	r3, r2
 8001c18:	f813 3c24 	ldrb.w	r3, [r3, #-36]
 8001c1c:	617b      	str	r3, [r7, #20]
      if ((tmpreg & RCC_CFGR_PLLSRC) != RCC_PLLSOURCE_HSI_DIV2)
 8001c1e:	69fb      	ldr	r3, [r7, #28]
 8001c20:	f403 3380 	and.w	r3, r3, #65536	; 0x10000
 8001c24:	2b00      	cmp	r3, #0
 8001c26:	d013      	beq.n	8001c50 <HAL_RCC_GetSysClockFreq+0x8c>
      {
#if defined(RCC_CFGR2_PREDIV1)
        prediv = aPredivFactorTable[(uint32_t)(RCC->CFGR2 & RCC_CFGR2_PREDIV1) >> RCC_CFGR2_PREDIV1_Pos];
#else
        prediv = aPredivFactorTable[(uint32_t)(RCC->CFGR & RCC_CFGR_PLLXTPRE) >> RCC_CFGR_PLLXTPRE_Pos];
 8001c28:	4b13      	ldr	r3, [pc, #76]	; (8001c78 <HAL_RCC_GetSysClockFreq+0xb4>)
 8001c2a:	685b      	ldr	r3, [r3, #4]
 8001c2c:	0c5b      	lsrs	r3, r3, #17
 8001c2e:	f003 0301 	and.w	r3, r3, #1
 8001c32:	f107 0228 	add.w	r2, r7, #40	; 0x28
 8001c36:	4413      	add	r3, r2
 8001c38:	f813 3c28 	ldrb.w	r3, [r3, #-40]
 8001c3c:	61bb      	str	r3, [r7, #24]
        {
          pllclk = pllclk / 2;
        }
#else
        /* HSE used as PLL clock source : PLLCLK = HSE/PREDIV1 * PLLMUL */
        pllclk = (uint32_t)((HSE_VALUE  * pllmul) / prediv);
 8001c3e:	697b      	ldr	r3, [r7, #20]
 8001c40:	4a0e      	ldr	r2, [pc, #56]	; (8001c7c <HAL_RCC_GetSysClockFreq+0xb8>)
 8001c42:	fb02 f203 	mul.w	r2, r2, r3
 8001c46:	69bb      	ldr	r3, [r7, #24]
 8001c48:	fbb2 f3f3 	udiv	r3, r2, r3
 8001c4c:	627b      	str	r3, [r7, #36]	; 0x24
 8001c4e:	e004      	b.n	8001c5a <HAL_RCC_GetSysClockFreq+0x96>
#endif /*RCC_CFGR2_PREDIV1SRC*/
      }
      else
      {
        /* HSI used as PLL clock source : PLLCLK = HSI/2 * PLLMUL */
        pllclk = (uint32_t)((HSI_VALUE >> 1) * pllmul);
 8001c50:	697b      	ldr	r3, [r7, #20]
 8001c52:	4a0b      	ldr	r2, [pc, #44]	; (8001c80 <HAL_RCC_GetSysClockFreq+0xbc>)
 8001c54:	fb02 f303 	mul.w	r3, r2, r3
 8001c58:	627b      	str	r3, [r7, #36]	; 0x24
      }
      sysclockfreq = pllclk;
 8001c5a:	6a7b      	ldr	r3, [r7, #36]	; 0x24
 8001c5c:	623b      	str	r3, [r7, #32]
      break;
 8001c5e:	e002      	b.n	8001c66 <HAL_RCC_GetSysClockFreq+0xa2>
    }
    case RCC_SYSCLKSOURCE_STATUS_HSI:  /* HSI used as system clock source */
    default: /* HSI used as system clock */
    {
      sysclockfreq = HSI_VALUE;
 8001c60:	4b06      	ldr	r3, [pc, #24]	; (8001c7c <HAL_RCC_GetSysClockFreq+0xb8>)
 8001c62:	623b      	str	r3, [r7, #32]
      break;
 8001c64:	bf00      	nop
    }
  }
  return sysclockfreq;
 8001c66:	6a3b      	ldr	r3, [r7, #32]
}
 8001c68:	4618      	mov	r0, r3
 8001c6a:	3728      	adds	r7, #40	; 0x28
 8001c6c:	46bd      	mov	sp, r7
 8001c6e:	bc90      	pop	{r4, r7}
 8001c70:	4770      	bx	lr
 8001c72:	bf00      	nop
 8001c74:	080045bc 	.word	0x080045bc
 8001c78:	40021000 	.word	0x40021000
 8001c7c:	007a1200 	.word	0x007a1200
 8001c80:	003d0900 	.word	0x003d0900

08001c84 <HAL_RCC_GetHCLKFreq>:
  * @note   The SystemCoreClock CMSIS variable is used to store System Clock Frequency
  *         and updated within this function
  * @retval HCLK frequency
  */
uint32_t HAL_RCC_GetHCLKFreq(void)
{
 8001c84:	b480      	push	{r7}
 8001c86:	af00      	add	r7, sp, #0
  return SystemCoreClock;
 8001c88:	4b02      	ldr	r3, [pc, #8]	; (8001c94 <HAL_RCC_GetHCLKFreq+0x10>)
 8001c8a:	681b      	ldr	r3, [r3, #0]
}
 8001c8c:	4618      	mov	r0, r3
 8001c8e:	46bd      	mov	sp, r7
 8001c90:	bc80      	pop	{r7}
 8001c92:	4770      	bx	lr
 8001c94:	20000000 	.word	0x20000000

08001c98 <HAL_RCC_GetPCLK1Freq>:
  * @note   Each time PCLK1 changes, this function must be called to update the
  *         right PCLK1 value. Otherwise, any configuration based on this function will be incorrect.
  * @retval PCLK1 frequency
  */
uint32_t HAL_RCC_GetPCLK1Freq(void)
{
 8001c98:	b580      	push	{r7, lr}
 8001c9a:	af00      	add	r7, sp, #0
  /* Get HCLK source and Compute PCLK1 frequency ---------------------------*/
  return (HAL_RCC_GetHCLKFreq() >> APBPrescTable[(RCC->CFGR & RCC_CFGR_PPRE1) >> RCC_CFGR_PPRE1_Pos]);
 8001c9c:	f7ff fff2 	bl	8001c84 <HAL_RCC_GetHCLKFreq>
 8001ca0:	4602      	mov	r2, r0
 8001ca2:	4b05      	ldr	r3, [pc, #20]	; (8001cb8 <HAL_RCC_GetPCLK1Freq+0x20>)
 8001ca4:	685b      	ldr	r3, [r3, #4]
 8001ca6:	0a1b      	lsrs	r3, r3, #8
 8001ca8:	f003 0307 	and.w	r3, r3, #7
 8001cac:	4903      	ldr	r1, [pc, #12]	; (8001cbc <HAL_RCC_GetPCLK1Freq+0x24>)
 8001cae:	5ccb      	ldrb	r3, [r1, r3]
 8001cb0:	fa22 f303 	lsr.w	r3, r2, r3
}
 8001cb4:	4618      	mov	r0, r3
 8001cb6:	bd80      	pop	{r7, pc}
 8001cb8:	40021000 	.word	0x40021000
 8001cbc:	080045dc 	.word	0x080045dc

08001cc0 <HAL_RCC_GetPCLK2Freq>:
  * @note   Each time PCLK2 changes, this function must be called to update the
  *         right PCLK2 value. Otherwise, any configuration based on this function will be incorrect.
  * @retval PCLK2 frequency
  */
uint32_t HAL_RCC_GetPCLK2Freq(void)
{
 8001cc0:	b580      	push	{r7, lr}
 8001cc2:	af00      	add	r7, sp, #0
  /* Get HCLK source and Compute PCLK2 frequency ---------------------------*/
  return (HAL_RCC_GetHCLKFreq() >> APBPrescTable[(RCC->CFGR & RCC_CFGR_PPRE2) >> RCC_CFGR_PPRE2_Pos]);
 8001cc4:	f7ff ffde 	bl	8001c84 <HAL_RCC_GetHCLKFreq>
 8001cc8:	4602      	mov	r2, r0
 8001cca:	4b05      	ldr	r3, [pc, #20]	; (8001ce0 <HAL_RCC_GetPCLK2Freq+0x20>)
 8001ccc:	685b      	ldr	r3, [r3, #4]
 8001cce:	0adb      	lsrs	r3, r3, #11
 8001cd0:	f003 0307 	and.w	r3, r3, #7
 8001cd4:	4903      	ldr	r1, [pc, #12]	; (8001ce4 <HAL_RCC_GetPCLK2Freq+0x24>)
 8001cd6:	5ccb      	ldrb	r3, [r1, r3]
 8001cd8:	fa22 f303 	lsr.w	r3, r2, r3
}
 8001cdc:	4618      	mov	r0, r3
 8001cde:	bd80      	pop	{r7, pc}
 8001ce0:	40021000 	.word	0x40021000
 8001ce4:	080045dc 	.word	0x080045dc

08001ce8 <RCC_Delay>:
  * @brief  This function provides delay (in milliseconds) based on CPU cycles method.
  * @param  mdelay: specifies the delay time length, in milliseconds.
  * @retval None
  */
static void RCC_Delay(uint32_t mdelay)
{
 8001ce8:	b480      	push	{r7}
 8001cea:	b085      	sub	sp, #20
 8001cec:	af00      	add	r7, sp, #0
 8001cee:	6078      	str	r0, [r7, #4]
  __IO uint32_t Delay = mdelay * (SystemCoreClock / 8U / 1000U);
 8001cf0:	4b0a      	ldr	r3, [pc, #40]	; (8001d1c <RCC_Delay+0x34>)
 8001cf2:	681b      	ldr	r3, [r3, #0]
 8001cf4:	4a0a      	ldr	r2, [pc, #40]	; (8001d20 <RCC_Delay+0x38>)
 8001cf6:	fba2 2303 	umull	r2, r3, r2, r3
 8001cfa:	0a5b      	lsrs	r3, r3, #9
 8001cfc:	687a      	ldr	r2, [r7, #4]
 8001cfe:	fb02 f303 	mul.w	r3, r2, r3
 8001d02:	60fb      	str	r3, [r7, #12]
  do
  {
    __NOP();
 8001d04:	bf00      	nop
  }
  while (Delay --);
 8001d06:	68fb      	ldr	r3, [r7, #12]
 8001d08:	1e5a      	subs	r2, r3, #1
 8001d0a:	60fa      	str	r2, [r7, #12]
 8001d0c:	2b00      	cmp	r3, #0
 8001d0e:	d1f9      	bne.n	8001d04 <RCC_Delay+0x1c>
}
 8001d10:	bf00      	nop
 8001d12:	bf00      	nop
 8001d14:	3714      	adds	r7, #20
 8001d16:	46bd      	mov	sp, r7
 8001d18:	bc80      	pop	{r7}
 8001d1a:	4770      	bx	lr
 8001d1c:	20000000 	.word	0x20000000
 8001d20:	10624dd3 	.word	0x10624dd3

08001d24 <HAL_SPI_Init>:
  * @param  hspi pointer to a SPI_HandleTypeDef structure that contains
  *               the configuration information for SPI module.
  * @retval HAL status
  */
HAL_StatusTypeDef HAL_SPI_Init(SPI_HandleTypeDef *hspi)
{
 8001d24:	b580      	push	{r7, lr}
 8001d26:	b082      	sub	sp, #8
 8001d28:	af00      	add	r7, sp, #0
 8001d2a:	6078      	str	r0, [r7, #4]
  /* Check the SPI handle allocation */
  if (hspi == NULL)
 8001d2c:	687b      	ldr	r3, [r7, #4]
 8001d2e:	2b00      	cmp	r3, #0
 8001d30:	d101      	bne.n	8001d36 <HAL_SPI_Init+0x12>
  {
    return HAL_ERROR;
 8001d32:	2301      	movs	r3, #1
 8001d34:	e076      	b.n	8001e24 <HAL_SPI_Init+0x100>
  assert_param(IS_SPI_BAUDRATE_PRESCALER(hspi->Init.BaudRatePrescaler));
  assert_param(IS_SPI_FIRST_BIT(hspi->Init.FirstBit));
  /* TI mode is not supported on this device.
     TIMode parameter is mandatory equal to SPI_TIMODE_DISABLE */
  assert_param(IS_SPI_TIMODE(hspi->Init.TIMode));
  if (hspi->Init.TIMode == SPI_TIMODE_DISABLE)
 8001d36:	687b      	ldr	r3, [r7, #4]
 8001d38:	6a5b      	ldr	r3, [r3, #36]	; 0x24
 8001d3a:	2b00      	cmp	r3, #0
 8001d3c:	d108      	bne.n	8001d50 <HAL_SPI_Init+0x2c>
  {
    assert_param(IS_SPI_CPOL(hspi->Init.CLKPolarity));
    assert_param(IS_SPI_CPHA(hspi->Init.CLKPhase));

    if (hspi->Init.Mode == SPI_MODE_MASTER)
 8001d3e:	687b      	ldr	r3, [r7, #4]
 8001d40:	685b      	ldr	r3, [r3, #4]
 8001d42:	f5b3 7f82 	cmp.w	r3, #260	; 0x104
 8001d46:	d009      	beq.n	8001d5c <HAL_SPI_Init+0x38>
      assert_param(IS_SPI_BAUDRATE_PRESCALER(hspi->Init.BaudRatePrescaler));
    }
    else
    {
      /* Baudrate prescaler not use in Motoraola Slave mode. force to default value */
      hspi->Init.BaudRatePrescaler = SPI_BAUDRATEPRESCALER_2;
 8001d48:	687b      	ldr	r3, [r7, #4]
 8001d4a:	2200      	movs	r2, #0
 8001d4c:	61da      	str	r2, [r3, #28]
 8001d4e:	e005      	b.n	8001d5c <HAL_SPI_Init+0x38>
  else
  {
    assert_param(IS_SPI_BAUDRATE_PRESCALER(hspi->Init.BaudRatePrescaler));

    /* Force polarity and phase to TI protocaol requirements */
    hspi->Init.CLKPolarity = SPI_POLARITY_LOW;
 8001d50:	687b      	ldr	r3, [r7, #4]
 8001d52:	2200      	movs	r2, #0
 8001d54:	611a      	str	r2, [r3, #16]
    hspi->Init.CLKPhase    = SPI_PHASE_1EDGE;
 8001d56:	687b      	ldr	r3, [r7, #4]
 8001d58:	2200      	movs	r2, #0
 8001d5a:	615a      	str	r2, [r3, #20]
  if (hspi->Init.CRCCalculation == SPI_CRCCALCULATION_ENABLE)
  {
    assert_param(IS_SPI_CRC_POLYNOMIAL(hspi->Init.CRCPolynomial));
  }
#else
  hspi->Init.CRCCalculation = SPI_CRCCALCULATION_DISABLE;
 8001d5c:	687b      	ldr	r3, [r7, #4]
 8001d5e:	2200      	movs	r2, #0
 8001d60:	629a      	str	r2, [r3, #40]	; 0x28
#endif /* USE_SPI_CRC */

  if (hspi->State == HAL_SPI_STATE_RESET)
 8001d62:	687b      	ldr	r3, [r7, #4]
 8001d64:	f893 3051 	ldrb.w	r3, [r3, #81]	; 0x51
 8001d68:	b2db      	uxtb	r3, r3
 8001d6a:	2b00      	cmp	r3, #0
 8001d6c:	d106      	bne.n	8001d7c <HAL_SPI_Init+0x58>
  {
    /* Allocate lock resource and initialize it */
    hspi->Lock = HAL_UNLOCKED;
 8001d6e:	687b      	ldr	r3, [r7, #4]
 8001d70:	2200      	movs	r2, #0
 8001d72:	f883 2050 	strb.w	r2, [r3, #80]	; 0x50

    /* Init the low level hardware : GPIO, CLOCK, NVIC... */
    hspi->MspInitCallback(hspi);
#else
    /* Init the low level hardware : GPIO, CLOCK, NVIC... */
    HAL_SPI_MspInit(hspi);
 8001d76:	6878      	ldr	r0, [r7, #4]
 8001d78:	f7fe fdbe 	bl	80008f8 <HAL_SPI_MspInit>
#endif /* USE_HAL_SPI_REGISTER_CALLBACKS */
  }

  hspi->State = HAL_SPI_STATE_BUSY;
 8001d7c:	687b      	ldr	r3, [r7, #4]
 8001d7e:	2202      	movs	r2, #2
 8001d80:	f883 2051 	strb.w	r2, [r3, #81]	; 0x51

  /* Disable the selected SPI peripheral */
  __HAL_SPI_DISABLE(hspi);
 8001d84:	687b      	ldr	r3, [r7, #4]
 8001d86:	681b      	ldr	r3, [r3, #0]
 8001d88:	681a      	ldr	r2, [r3, #0]
 8001d8a:	687b      	ldr	r3, [r7, #4]
 8001d8c:	681b      	ldr	r3, [r3, #0]
 8001d8e:	f022 0240 	bic.w	r2, r2, #64	; 0x40
 8001d92:	601a      	str	r2, [r3, #0]

  /*----------------------- SPIx CR1 & CR2 Configuration ---------------------*/
  /* Configure : SPI Mode, Communication Mode, Data size, Clock polarity and phase, NSS management,
  Communication speed, First bit and CRC calculation state */
  WRITE_REG(hspi->Instance->CR1, ((hspi->Init.Mode & (SPI_CR1_MSTR | SPI_CR1_SSI)) |
 8001d94:	687b      	ldr	r3, [r7, #4]
 8001d96:	685b      	ldr	r3, [r3, #4]
 8001d98:	f403 7282 	and.w	r2, r3, #260	; 0x104
 8001d9c:	687b      	ldr	r3, [r7, #4]
 8001d9e:	689b      	ldr	r3, [r3, #8]
 8001da0:	f403 4304 	and.w	r3, r3, #33792	; 0x8400
 8001da4:	431a      	orrs	r2, r3
 8001da6:	687b      	ldr	r3, [r7, #4]
 8001da8:	68db      	ldr	r3, [r3, #12]
 8001daa:	f403 6300 	and.w	r3, r3, #2048	; 0x800
 8001dae:	431a      	orrs	r2, r3
 8001db0:	687b      	ldr	r3, [r7, #4]
 8001db2:	691b      	ldr	r3, [r3, #16]
 8001db4:	f003 0302 	and.w	r3, r3, #2
 8001db8:	431a      	orrs	r2, r3
 8001dba:	687b      	ldr	r3, [r7, #4]
 8001dbc:	695b      	ldr	r3, [r3, #20]
 8001dbe:	f003 0301 	and.w	r3, r3, #1
 8001dc2:	431a      	orrs	r2, r3
 8001dc4:	687b      	ldr	r3, [r7, #4]
 8001dc6:	699b      	ldr	r3, [r3, #24]
 8001dc8:	f403 7300 	and.w	r3, r3, #512	; 0x200
 8001dcc:	431a      	orrs	r2, r3
 8001dce:	687b      	ldr	r3, [r7, #4]
 8001dd0:	69db      	ldr	r3, [r3, #28]
 8001dd2:	f003 0338 	and.w	r3, r3, #56	; 0x38
 8001dd6:	431a      	orrs	r2, r3
 8001dd8:	687b      	ldr	r3, [r7, #4]
 8001dda:	6a1b      	ldr	r3, [r3, #32]
 8001ddc:	f003 0380 	and.w	r3, r3, #128	; 0x80
 8001de0:	ea42 0103 	orr.w	r1, r2, r3
 8001de4:	687b      	ldr	r3, [r7, #4]
 8001de6:	6a9b      	ldr	r3, [r3, #40]	; 0x28
 8001de8:	f403 5200 	and.w	r2, r3, #8192	; 0x2000
 8001dec:	687b      	ldr	r3, [r7, #4]
 8001dee:	681b      	ldr	r3, [r3, #0]
 8001df0:	430a      	orrs	r2, r1
 8001df2:	601a      	str	r2, [r3, #0]
                                  (hspi->Init.BaudRatePrescaler & SPI_CR1_BR_Msk) |
                                  (hspi->Init.FirstBit  & SPI_CR1_LSBFIRST) |
                                  (hspi->Init.CRCCalculation & SPI_CR1_CRCEN)));

  /* Configure : NSS management */
  WRITE_REG(hspi->Instance->CR2, ((hspi->Init.NSS >> 16U) & SPI_CR2_SSOE));
 8001df4:	687b      	ldr	r3, [r7, #4]
 8001df6:	699b      	ldr	r3, [r3, #24]
 8001df8:	0c1a      	lsrs	r2, r3, #16
 8001dfa:	687b      	ldr	r3, [r7, #4]
 8001dfc:	681b      	ldr	r3, [r3, #0]
 8001dfe:	f002 0204 	and.w	r2, r2, #4
 8001e02:	605a      	str	r2, [r3, #4]
  }
#endif /* USE_SPI_CRC */

#if defined(SPI_I2SCFGR_I2SMOD)
  /* Activate the SPI mode (Make sure that I2SMOD bit in I2SCFGR register is reset) */
  CLEAR_BIT(hspi->Instance->I2SCFGR, SPI_I2SCFGR_I2SMOD);
 8001e04:	687b      	ldr	r3, [r7, #4]
 8001e06:	681b      	ldr	r3, [r3, #0]
 8001e08:	69da      	ldr	r2, [r3, #28]
 8001e0a:	687b      	ldr	r3, [r7, #4]
 8001e0c:	681b      	ldr	r3, [r3, #0]
 8001e0e:	f422 6200 	bic.w	r2, r2, #2048	; 0x800
 8001e12:	61da      	str	r2, [r3, #28]
#endif /* SPI_I2SCFGR_I2SMOD */

  hspi->ErrorCode = HAL_SPI_ERROR_NONE;
 8001e14:	687b      	ldr	r3, [r7, #4]
 8001e16:	2200      	movs	r2, #0
 8001e18:	655a      	str	r2, [r3, #84]	; 0x54
  hspi->State     = HAL_SPI_STATE_READY;
 8001e1a:	687b      	ldr	r3, [r7, #4]
 8001e1c:	2201      	movs	r2, #1
 8001e1e:	f883 2051 	strb.w	r2, [r3, #81]	; 0x51

  return HAL_OK;
 8001e22:	2300      	movs	r3, #0
}
 8001e24:	4618      	mov	r0, r3
 8001e26:	3708      	adds	r7, #8
 8001e28:	46bd      	mov	sp, r7
 8001e2a:	bd80      	pop	{r7, pc}

08001e2c <HAL_SPI_TransmitReceive>:
  * @param  Timeout Timeout duration
  * @retval HAL status
  */
HAL_StatusTypeDef HAL_SPI_TransmitReceive(SPI_HandleTypeDef *hspi, uint8_t *pTxData, uint8_t *pRxData, uint16_t Size,
                                          uint32_t Timeout)
{
 8001e2c:	b580      	push	{r7, lr}
 8001e2e:	b08c      	sub	sp, #48	; 0x30
 8001e30:	af00      	add	r7, sp, #0
 8001e32:	60f8      	str	r0, [r7, #12]
 8001e34:	60b9      	str	r1, [r7, #8]
 8001e36:	607a      	str	r2, [r7, #4]
 8001e38:	807b      	strh	r3, [r7, #2]
#if (USE_SPI_CRC != 0U)
  __IO uint32_t tmpreg = 0U;
#endif /* USE_SPI_CRC */

  /* Variable used to alternate Rx and Tx during transfer */
  uint32_t             txallowed = 1U;
 8001e3a:	2301      	movs	r3, #1
 8001e3c:	62fb      	str	r3, [r7, #44]	; 0x2c
  HAL_StatusTypeDef    errorcode = HAL_OK;
 8001e3e:	2300      	movs	r3, #0
 8001e40:	f887 302b 	strb.w	r3, [r7, #43]	; 0x2b

  /* Check Direction parameter */
  assert_param(IS_SPI_DIRECTION_2LINES(hspi->Init.Direction));

  /* Process Locked */
  __HAL_LOCK(hspi);
 8001e44:	68fb      	ldr	r3, [r7, #12]
 8001e46:	f893 3050 	ldrb.w	r3, [r3, #80]	; 0x50
 8001e4a:	2b01      	cmp	r3, #1
 8001e4c:	d101      	bne.n	8001e52 <HAL_SPI_TransmitReceive+0x26>
 8001e4e:	2302      	movs	r3, #2
 8001e50:	e18a      	b.n	8002168 <HAL_SPI_TransmitReceive+0x33c>
 8001e52:	68fb      	ldr	r3, [r7, #12]
 8001e54:	2201      	movs	r2, #1
 8001e56:	f883 2050 	strb.w	r2, [r3, #80]	; 0x50

  /* Init tickstart for timeout management*/
  tickstart = HAL_GetTick();
 8001e5a:	f7ff f871 	bl	8000f40 <HAL_GetTick>
 8001e5e:	6278      	str	r0, [r7, #36]	; 0x24

  /* Init temporary variables */
  tmp_state           = hspi->State;
 8001e60:	68fb      	ldr	r3, [r7, #12]
 8001e62:	f893 3051 	ldrb.w	r3, [r3, #81]	; 0x51
 8001e66:	f887 3023 	strb.w	r3, [r7, #35]	; 0x23
  tmp_mode            = hspi->Init.Mode;
 8001e6a:	68fb      	ldr	r3, [r7, #12]
 8001e6c:	685b      	ldr	r3, [r3, #4]
 8001e6e:	61fb      	str	r3, [r7, #28]
  initial_TxXferCount = Size;
 8001e70:	887b      	ldrh	r3, [r7, #2]
 8001e72:	837b      	strh	r3, [r7, #26]

  if (!((tmp_state == HAL_SPI_STATE_READY) || \
 8001e74:	f897 3023 	ldrb.w	r3, [r7, #35]	; 0x23
 8001e78:	2b01      	cmp	r3, #1
 8001e7a:	d00f      	beq.n	8001e9c <HAL_SPI_TransmitReceive+0x70>
 8001e7c:	69fb      	ldr	r3, [r7, #28]
 8001e7e:	f5b3 7f82 	cmp.w	r3, #260	; 0x104
 8001e82:	d107      	bne.n	8001e94 <HAL_SPI_TransmitReceive+0x68>
        ((tmp_mode == SPI_MODE_MASTER) && (hspi->Init.Direction == SPI_DIRECTION_2LINES) && (tmp_state == HAL_SPI_STATE_BUSY_RX))))
 8001e84:	68fb      	ldr	r3, [r7, #12]
 8001e86:	689b      	ldr	r3, [r3, #8]
 8001e88:	2b00      	cmp	r3, #0
 8001e8a:	d103      	bne.n	8001e94 <HAL_SPI_TransmitReceive+0x68>
 8001e8c:	f897 3023 	ldrb.w	r3, [r7, #35]	; 0x23
 8001e90:	2b04      	cmp	r3, #4
 8001e92:	d003      	beq.n	8001e9c <HAL_SPI_TransmitReceive+0x70>
  {
    errorcode = HAL_BUSY;
 8001e94:	2302      	movs	r3, #2
 8001e96:	f887 302b 	strb.w	r3, [r7, #43]	; 0x2b
    goto error;
 8001e9a:	e15b      	b.n	8002154 <HAL_SPI_TransmitReceive+0x328>
  }

  if ((pTxData == NULL) || (pRxData == NULL) || (Size == 0U))
 8001e9c:	68bb      	ldr	r3, [r7, #8]
 8001e9e:	2b00      	cmp	r3, #0
 8001ea0:	d005      	beq.n	8001eae <HAL_SPI_TransmitReceive+0x82>
 8001ea2:	687b      	ldr	r3, [r7, #4]
 8001ea4:	2b00      	cmp	r3, #0
 8001ea6:	d002      	beq.n	8001eae <HAL_SPI_TransmitReceive+0x82>
 8001ea8:	887b      	ldrh	r3, [r7, #2]
 8001eaa:	2b00      	cmp	r3, #0
 8001eac:	d103      	bne.n	8001eb6 <HAL_SPI_TransmitReceive+0x8a>
  {
    errorcode = HAL_ERROR;
 8001eae:	2301      	movs	r3, #1
 8001eb0:	f887 302b 	strb.w	r3, [r7, #43]	; 0x2b
    goto error;
 8001eb4:	e14e      	b.n	8002154 <HAL_SPI_TransmitReceive+0x328>
  }

  /* Don't overwrite in case of HAL_SPI_STATE_BUSY_RX */
  if (hspi->State != HAL_SPI_STATE_BUSY_RX)
 8001eb6:	68fb      	ldr	r3, [r7, #12]
 8001eb8:	f893 3051 	ldrb.w	r3, [r3, #81]	; 0x51
 8001ebc:	b2db      	uxtb	r3, r3
 8001ebe:	2b04      	cmp	r3, #4
 8001ec0:	d003      	beq.n	8001eca <HAL_SPI_TransmitReceive+0x9e>
  {
    hspi->State = HAL_SPI_STATE_BUSY_TX_RX;
 8001ec2:	68fb      	ldr	r3, [r7, #12]
 8001ec4:	2205      	movs	r2, #5
 8001ec6:	f883 2051 	strb.w	r2, [r3, #81]	; 0x51
  }

  /* Set the transaction information */
  hspi->ErrorCode   = HAL_SPI_ERROR_NONE;
 8001eca:	68fb      	ldr	r3, [r7, #12]
 8001ecc:	2200      	movs	r2, #0
 8001ece:	655a      	str	r2, [r3, #84]	; 0x54
  hspi->pRxBuffPtr  = (uint8_t *)pRxData;
 8001ed0:	68fb      	ldr	r3, [r7, #12]
 8001ed2:	687a      	ldr	r2, [r7, #4]
 8001ed4:	639a      	str	r2, [r3, #56]	; 0x38
  hspi->RxXferCount = Size;
 8001ed6:	68fb      	ldr	r3, [r7, #12]
 8001ed8:	887a      	ldrh	r2, [r7, #2]
 8001eda:	87da      	strh	r2, [r3, #62]	; 0x3e
  hspi->RxXferSize  = Size;
 8001edc:	68fb      	ldr	r3, [r7, #12]
 8001ede:	887a      	ldrh	r2, [r7, #2]
 8001ee0:	879a      	strh	r2, [r3, #60]	; 0x3c
  hspi->pTxBuffPtr  = (uint8_t *)pTxData;
 8001ee2:	68fb      	ldr	r3, [r7, #12]
 8001ee4:	68ba      	ldr	r2, [r7, #8]
 8001ee6:	631a      	str	r2, [r3, #48]	; 0x30
  hspi->TxXferCount = Size;
 8001ee8:	68fb      	ldr	r3, [r7, #12]
 8001eea:	887a      	ldrh	r2, [r7, #2]
 8001eec:	86da      	strh	r2, [r3, #54]	; 0x36
  hspi->TxXferSize  = Size;
 8001eee:	68fb      	ldr	r3, [r7, #12]
 8001ef0:	887a      	ldrh	r2, [r7, #2]
 8001ef2:	869a      	strh	r2, [r3, #52]	; 0x34

  /*Init field not used in handle to zero */
  hspi->RxISR       = NULL;
 8001ef4:	68fb      	ldr	r3, [r7, #12]
 8001ef6:	2200      	movs	r2, #0
 8001ef8:	641a      	str	r2, [r3, #64]	; 0x40
  hspi->TxISR       = NULL;
 8001efa:	68fb      	ldr	r3, [r7, #12]
 8001efc:	2200      	movs	r2, #0
 8001efe:	645a      	str	r2, [r3, #68]	; 0x44
    SPI_RESET_CRC(hspi);
  }
#endif /* USE_SPI_CRC */

  /* Check if the SPI is already enabled */
  if ((hspi->Instance->CR1 & SPI_CR1_SPE) != SPI_CR1_SPE)
 8001f00:	68fb      	ldr	r3, [r7, #12]
 8001f02:	681b      	ldr	r3, [r3, #0]
 8001f04:	681b      	ldr	r3, [r3, #0]
 8001f06:	f003 0340 	and.w	r3, r3, #64	; 0x40
 8001f0a:	2b40      	cmp	r3, #64	; 0x40
 8001f0c:	d007      	beq.n	8001f1e <HAL_SPI_TransmitReceive+0xf2>
  {
    /* Enable SPI peripheral */
    __HAL_SPI_ENABLE(hspi);
 8001f0e:	68fb      	ldr	r3, [r7, #12]
 8001f10:	681b      	ldr	r3, [r3, #0]
 8001f12:	681a      	ldr	r2, [r3, #0]
 8001f14:	68fb      	ldr	r3, [r7, #12]
 8001f16:	681b      	ldr	r3, [r3, #0]
 8001f18:	f042 0240 	orr.w	r2, r2, #64	; 0x40
 8001f1c:	601a      	str	r2, [r3, #0]
  }

  /* Transmit and Receive data in 16 Bit mode */
  if (hspi->Init.DataSize == SPI_DATASIZE_16BIT)
 8001f1e:	68fb      	ldr	r3, [r7, #12]
 8001f20:	68db      	ldr	r3, [r3, #12]
 8001f22:	f5b3 6f00 	cmp.w	r3, #2048	; 0x800
 8001f26:	d178      	bne.n	800201a <HAL_SPI_TransmitReceive+0x1ee>
  {
    if ((hspi->Init.Mode == SPI_MODE_SLAVE) || (initial_TxXferCount == 0x01U))
 8001f28:	68fb      	ldr	r3, [r7, #12]
 8001f2a:	685b      	ldr	r3, [r3, #4]
 8001f2c:	2b00      	cmp	r3, #0
 8001f2e:	d002      	beq.n	8001f36 <HAL_SPI_TransmitReceive+0x10a>
 8001f30:	8b7b      	ldrh	r3, [r7, #26]
 8001f32:	2b01      	cmp	r3, #1
 8001f34:	d166      	bne.n	8002004 <HAL_SPI_TransmitReceive+0x1d8>
    {
      hspi->Instance->DR = *((uint16_t *)hspi->pTxBuffPtr);
 8001f36:	68fb      	ldr	r3, [r7, #12]
 8001f38:	6b1b      	ldr	r3, [r3, #48]	; 0x30
 8001f3a:	881a      	ldrh	r2, [r3, #0]
 8001f3c:	68fb      	ldr	r3, [r7, #12]
 8001f3e:	681b      	ldr	r3, [r3, #0]
 8001f40:	60da      	str	r2, [r3, #12]
      hspi->pTxBuffPtr += sizeof(uint16_t);
 8001f42:	68fb      	ldr	r3, [r7, #12]
 8001f44:	6b1b      	ldr	r3, [r3, #48]	; 0x30
 8001f46:	1c9a      	adds	r2, r3, #2
 8001f48:	68fb      	ldr	r3, [r7, #12]
 8001f4a:	631a      	str	r2, [r3, #48]	; 0x30
      hspi->TxXferCount--;
 8001f4c:	68fb      	ldr	r3, [r7, #12]
 8001f4e:	8edb      	ldrh	r3, [r3, #54]	; 0x36
 8001f50:	b29b      	uxth	r3, r3
 8001f52:	3b01      	subs	r3, #1
 8001f54:	b29a      	uxth	r2, r3
 8001f56:	68fb      	ldr	r3, [r7, #12]
 8001f58:	86da      	strh	r2, [r3, #54]	; 0x36
    }
    while ((hspi->TxXferCount > 0U) || (hspi->RxXferCount > 0U))
 8001f5a:	e053      	b.n	8002004 <HAL_SPI_TransmitReceive+0x1d8>
    {
      /* Check TXE flag */
      if ((__HAL_SPI_GET_FLAG(hspi, SPI_FLAG_TXE)) && (hspi->TxXferCount > 0U) && (txallowed == 1U))
 8001f5c:	68fb      	ldr	r3, [r7, #12]
 8001f5e:	681b      	ldr	r3, [r3, #0]
 8001f60:	689b      	ldr	r3, [r3, #8]
 8001f62:	f003 0302 	and.w	r3, r3, #2
 8001f66:	2b02      	cmp	r3, #2
 8001f68:	d11b      	bne.n	8001fa2 <HAL_SPI_TransmitReceive+0x176>
 8001f6a:	68fb      	ldr	r3, [r7, #12]
 8001f6c:	8edb      	ldrh	r3, [r3, #54]	; 0x36
 8001f6e:	b29b      	uxth	r3, r3
 8001f70:	2b00      	cmp	r3, #0
 8001f72:	d016      	beq.n	8001fa2 <HAL_SPI_TransmitReceive+0x176>
 8001f74:	6afb      	ldr	r3, [r7, #44]	; 0x2c
 8001f76:	2b01      	cmp	r3, #1
 8001f78:	d113      	bne.n	8001fa2 <HAL_SPI_TransmitReceive+0x176>
      {
        hspi->Instance->DR = *((uint16_t *)hspi->pTxBuffPtr);
 8001f7a:	68fb      	ldr	r3, [r7, #12]
 8001f7c:	6b1b      	ldr	r3, [r3, #48]	; 0x30
 8001f7e:	881a      	ldrh	r2, [r3, #0]
 8001f80:	68fb      	ldr	r3, [r7, #12]
 8001f82:	681b      	ldr	r3, [r3, #0]
 8001f84:	60da      	str	r2, [r3, #12]
        hspi->pTxBuffPtr += sizeof(uint16_t);
 8001f86:	68fb      	ldr	r3, [r7, #12]
 8001f88:	6b1b      	ldr	r3, [r3, #48]	; 0x30
 8001f8a:	1c9a      	adds	r2, r3, #2
 8001f8c:	68fb      	ldr	r3, [r7, #12]
 8001f8e:	631a      	str	r2, [r3, #48]	; 0x30
        hspi->TxXferCount--;
 8001f90:	68fb      	ldr	r3, [r7, #12]
 8001f92:	8edb      	ldrh	r3, [r3, #54]	; 0x36
 8001f94:	b29b      	uxth	r3, r3
 8001f96:	3b01      	subs	r3, #1
 8001f98:	b29a      	uxth	r2, r3
 8001f9a:	68fb      	ldr	r3, [r7, #12]
 8001f9c:	86da      	strh	r2, [r3, #54]	; 0x36
        /* Next Data is a reception (Rx). Tx not allowed */
        txallowed = 0U;
 8001f9e:	2300      	movs	r3, #0
 8001fa0:	62fb      	str	r3, [r7, #44]	; 0x2c
        }
#endif /* USE_SPI_CRC */
      }

      /* Check RXNE flag */
      if ((__HAL_SPI_GET_FLAG(hspi, SPI_FLAG_RXNE)) && (hspi->RxXferCount > 0U))
 8001fa2:	68fb      	ldr	r3, [r7, #12]
 8001fa4:	681b      	ldr	r3, [r3, #0]
 8001fa6:	689b      	ldr	r3, [r3, #8]
 8001fa8:	f003 0301 	and.w	r3, r3, #1
 8001fac:	2b01      	cmp	r3, #1
 8001fae:	d119      	bne.n	8001fe4 <HAL_SPI_TransmitReceive+0x1b8>
 8001fb0:	68fb      	ldr	r3, [r7, #12]
 8001fb2:	8fdb      	ldrh	r3, [r3, #62]	; 0x3e
 8001fb4:	b29b      	uxth	r3, r3
 8001fb6:	2b00      	cmp	r3, #0
 8001fb8:	d014      	beq.n	8001fe4 <HAL_SPI_TransmitReceive+0x1b8>
      {
        *((uint16_t *)hspi->pRxBuffPtr) = (uint16_t)hspi->Instance->DR;
 8001fba:	68fb      	ldr	r3, [r7, #12]
 8001fbc:	681b      	ldr	r3, [r3, #0]
 8001fbe:	68da      	ldr	r2, [r3, #12]
 8001fc0:	68fb      	ldr	r3, [r7, #12]
 8001fc2:	6b9b      	ldr	r3, [r3, #56]	; 0x38
 8001fc4:	b292      	uxth	r2, r2
 8001fc6:	801a      	strh	r2, [r3, #0]
        hspi->pRxBuffPtr += sizeof(uint16_t);
 8001fc8:	68fb      	ldr	r3, [r7, #12]
 8001fca:	6b9b      	ldr	r3, [r3, #56]	; 0x38
 8001fcc:	1c9a      	adds	r2, r3, #2
 8001fce:	68fb      	ldr	r3, [r7, #12]
 8001fd0:	639a      	str	r2, [r3, #56]	; 0x38
        hspi->RxXferCount--;
 8001fd2:	68fb      	ldr	r3, [r7, #12]
 8001fd4:	8fdb      	ldrh	r3, [r3, #62]	; 0x3e
 8001fd6:	b29b      	uxth	r3, r3
 8001fd8:	3b01      	subs	r3, #1
 8001fda:	b29a      	uxth	r2, r3
 8001fdc:	68fb      	ldr	r3, [r7, #12]
 8001fde:	87da      	strh	r2, [r3, #62]	; 0x3e
        /* Next Data is a Transmission (Tx). Tx is allowed */
        txallowed = 1U;
 8001fe0:	2301      	movs	r3, #1
 8001fe2:	62fb      	str	r3, [r7, #44]	; 0x2c
      }
      if (((HAL_GetTick() - tickstart) >=  Timeout) && (Timeout != HAL_MAX_DELAY))
 8001fe4:	f7fe ffac 	bl	8000f40 <HAL_GetTick>
 8001fe8:	4602      	mov	r2, r0
 8001fea:	6a7b      	ldr	r3, [r7, #36]	; 0x24
 8001fec:	1ad3      	subs	r3, r2, r3
 8001fee:	6bba      	ldr	r2, [r7, #56]	; 0x38
 8001ff0:	429a      	cmp	r2, r3
 8001ff2:	d807      	bhi.n	8002004 <HAL_SPI_TransmitReceive+0x1d8>
 8001ff4:	6bbb      	ldr	r3, [r7, #56]	; 0x38
 8001ff6:	f1b3 3fff 	cmp.w	r3, #4294967295
 8001ffa:	d003      	beq.n	8002004 <HAL_SPI_TransmitReceive+0x1d8>
      {
        errorcode = HAL_TIMEOUT;
 8001ffc:	2303      	movs	r3, #3
 8001ffe:	f887 302b 	strb.w	r3, [r7, #43]	; 0x2b
        goto error;
 8002002:	e0a7      	b.n	8002154 <HAL_SPI_TransmitReceive+0x328>
    while ((hspi->TxXferCount > 0U) || (hspi->RxXferCount > 0U))
 8002004:	68fb      	ldr	r3, [r7, #12]
 8002006:	8edb      	ldrh	r3, [r3, #54]	; 0x36
 8002008:	b29b      	uxth	r3, r3
 800200a:	2b00      	cmp	r3, #0
 800200c:	d1a6      	bne.n	8001f5c <HAL_SPI_TransmitReceive+0x130>
 800200e:	68fb      	ldr	r3, [r7, #12]
 8002010:	8fdb      	ldrh	r3, [r3, #62]	; 0x3e
 8002012:	b29b      	uxth	r3, r3
 8002014:	2b00      	cmp	r3, #0
 8002016:	d1a1      	bne.n	8001f5c <HAL_SPI_TransmitReceive+0x130>
 8002018:	e07c      	b.n	8002114 <HAL_SPI_TransmitReceive+0x2e8>
    }
  }
  /* Transmit and Receive data in 8 Bit mode */
  else
  {
    if ((hspi->Init.Mode == SPI_MODE_SLAVE) || (initial_TxXferCount == 0x01U))
 800201a:	68fb      	ldr	r3, [r7, #12]
 800201c:	685b      	ldr	r3, [r3, #4]
 800201e:	2b00      	cmp	r3, #0
 8002020:	d002      	beq.n	8002028 <HAL_SPI_TransmitReceive+0x1fc>
 8002022:	8b7b      	ldrh	r3, [r7, #26]
 8002024:	2b01      	cmp	r3, #1
 8002026:	d16b      	bne.n	8002100 <HAL_SPI_TransmitReceive+0x2d4>
    {
      *((__IO uint8_t *)&hspi->Instance->DR) = (*hspi->pTxBuffPtr);
 8002028:	68fb      	ldr	r3, [r7, #12]
 800202a:	6b1a      	ldr	r2, [r3, #48]	; 0x30
 800202c:	68fb      	ldr	r3, [r7, #12]
 800202e:	681b      	ldr	r3, [r3, #0]
 8002030:	330c      	adds	r3, #12
 8002032:	7812      	ldrb	r2, [r2, #0]
 8002034:	701a      	strb	r2, [r3, #0]
      hspi->pTxBuffPtr += sizeof(uint8_t);
 8002036:	68fb      	ldr	r3, [r7, #12]
 8002038:	6b1b      	ldr	r3, [r3, #48]	; 0x30
 800203a:	1c5a      	adds	r2, r3, #1
 800203c:	68fb      	ldr	r3, [r7, #12]
 800203e:	631a      	str	r2, [r3, #48]	; 0x30
      hspi->TxXferCount--;
 8002040:	68fb      	ldr	r3, [r7, #12]
 8002042:	8edb      	ldrh	r3, [r3, #54]	; 0x36
 8002044:	b29b      	uxth	r3, r3
 8002046:	3b01      	subs	r3, #1
 8002048:	b29a      	uxth	r2, r3
 800204a:	68fb      	ldr	r3, [r7, #12]
 800204c:	86da      	strh	r2, [r3, #54]	; 0x36
    }
    while ((hspi->TxXferCount > 0U) || (hspi->RxXferCount > 0U))
 800204e:	e057      	b.n	8002100 <HAL_SPI_TransmitReceive+0x2d4>
    {
      /* Check TXE flag */
      if ((__HAL_SPI_GET_FLAG(hspi, SPI_FLAG_TXE)) && (hspi->TxXferCount > 0U) && (txallowed == 1U))
 8002050:	68fb      	ldr	r3, [r7, #12]
 8002052:	681b      	ldr	r3, [r3, #0]
 8002054:	689b      	ldr	r3, [r3, #8]
 8002056:	f003 0302 	and.w	r3, r3, #2
 800205a:	2b02      	cmp	r3, #2
 800205c:	d11c      	bne.n	8002098 <HAL_SPI_TransmitReceive+0x26c>
 800205e:	68fb      	ldr	r3, [r7, #12]
 8002060:	8edb      	ldrh	r3, [r3, #54]	; 0x36
 8002062:	b29b      	uxth	r3, r3
 8002064:	2b00      	cmp	r3, #0
 8002066:	d017      	beq.n	8002098 <HAL_SPI_TransmitReceive+0x26c>
 8002068:	6afb      	ldr	r3, [r7, #44]	; 0x2c
 800206a:	2b01      	cmp	r3, #1
 800206c:	d114      	bne.n	8002098 <HAL_SPI_TransmitReceive+0x26c>
      {
        *(__IO uint8_t *)&hspi->Instance->DR = (*hspi->pTxBuffPtr);
 800206e:	68fb      	ldr	r3, [r7, #12]
 8002070:	6b1a      	ldr	r2, [r3, #48]	; 0x30
 8002072:	68fb      	ldr	r3, [r7, #12]
 8002074:	681b      	ldr	r3, [r3, #0]
 8002076:	330c      	adds	r3, #12
 8002078:	7812      	ldrb	r2, [r2, #0]
 800207a:	701a      	strb	r2, [r3, #0]
        hspi->pTxBuffPtr++;
 800207c:	68fb      	ldr	r3, [r7, #12]
 800207e:	6b1b      	ldr	r3, [r3, #48]	; 0x30
 8002080:	1c5a      	adds	r2, r3, #1
 8002082:	68fb      	ldr	r3, [r7, #12]
 8002084:	631a      	str	r2, [r3, #48]	; 0x30
        hspi->TxXferCount--;
 8002086:	68fb      	ldr	r3, [r7, #12]
 8002088:	8edb      	ldrh	r3, [r3, #54]	; 0x36
 800208a:	b29b      	uxth	r3, r3
 800208c:	3b01      	subs	r3, #1
 800208e:	b29a      	uxth	r2, r3
 8002090:	68fb      	ldr	r3, [r7, #12]
 8002092:	86da      	strh	r2, [r3, #54]	; 0x36
        /* Next Data is a reception (Rx). Tx not allowed */
        txallowed = 0U;
 8002094:	2300      	movs	r3, #0
 8002096:	62fb      	str	r3, [r7, #44]	; 0x2c
        }
#endif /* USE_SPI_CRC */
      }

      /* Wait until RXNE flag is reset */
      if ((__HAL_SPI_GET_FLAG(hspi, SPI_FLAG_RXNE)) && (hspi->RxXferCount > 0U))
 8002098:	68fb      	ldr	r3, [r7, #12]
 800209a:	681b      	ldr	r3, [r3, #0]
 800209c:	689b      	ldr	r3, [r3, #8]
 800209e:	f003 0301 	and.w	r3, r3, #1
 80020a2:	2b01      	cmp	r3, #1
 80020a4:	d119      	bne.n	80020da <HAL_SPI_TransmitReceive+0x2ae>
 80020a6:	68fb      	ldr	r3, [r7, #12]
 80020a8:	8fdb      	ldrh	r3, [r3, #62]	; 0x3e
 80020aa:	b29b      	uxth	r3, r3
 80020ac:	2b00      	cmp	r3, #0
 80020ae:	d014      	beq.n	80020da <HAL_SPI_TransmitReceive+0x2ae>
      {
        (*(uint8_t *)hspi->pRxBuffPtr) = hspi->Instance->DR;
 80020b0:	68fb      	ldr	r3, [r7, #12]
 80020b2:	681b      	ldr	r3, [r3, #0]
 80020b4:	68da      	ldr	r2, [r3, #12]
 80020b6:	68fb      	ldr	r3, [r7, #12]
 80020b8:	6b9b      	ldr	r3, [r3, #56]	; 0x38
 80020ba:	b2d2      	uxtb	r2, r2
 80020bc:	701a      	strb	r2, [r3, #0]
        hspi->pRxBuffPtr++;
 80020be:	68fb      	ldr	r3, [r7, #12]
 80020c0:	6b9b      	ldr	r3, [r3, #56]	; 0x38
 80020c2:	1c5a      	adds	r2, r3, #1
 80020c4:	68fb      	ldr	r3, [r7, #12]
 80020c6:	639a      	str	r2, [r3, #56]	; 0x38
        hspi->RxXferCount--;
 80020c8:	68fb      	ldr	r3, [r7, #12]
 80020ca:	8fdb      	ldrh	r3, [r3, #62]	; 0x3e
 80020cc:	b29b      	uxth	r3, r3
 80020ce:	3b01      	subs	r3, #1
 80020d0:	b29a      	uxth	r2, r3
 80020d2:	68fb      	ldr	r3, [r7, #12]
 80020d4:	87da      	strh	r2, [r3, #62]	; 0x3e
        /* Next Data is a Transmission (Tx). Tx is allowed */
        txallowed = 1U;
 80020d6:	2301      	movs	r3, #1
 80020d8:	62fb      	str	r3, [r7, #44]	; 0x2c
      }
      if ((((HAL_GetTick() - tickstart) >=  Timeout) && ((Timeout != HAL_MAX_DELAY))) || (Timeout == 0U))
 80020da:	f7fe ff31 	bl	8000f40 <HAL_GetTick>
 80020de:	4602      	mov	r2, r0
 80020e0:	6a7b      	ldr	r3, [r7, #36]	; 0x24
 80020e2:	1ad3      	subs	r3, r2, r3
 80020e4:	6bba      	ldr	r2, [r7, #56]	; 0x38
 80020e6:	429a      	cmp	r2, r3
 80020e8:	d803      	bhi.n	80020f2 <HAL_SPI_TransmitReceive+0x2c6>
 80020ea:	6bbb      	ldr	r3, [r7, #56]	; 0x38
 80020ec:	f1b3 3fff 	cmp.w	r3, #4294967295
 80020f0:	d102      	bne.n	80020f8 <HAL_SPI_TransmitReceive+0x2cc>
 80020f2:	6bbb      	ldr	r3, [r7, #56]	; 0x38
 80020f4:	2b00      	cmp	r3, #0
 80020f6:	d103      	bne.n	8002100 <HAL_SPI_TransmitReceive+0x2d4>
      {
        errorcode = HAL_TIMEOUT;
 80020f8:	2303      	movs	r3, #3
 80020fa:	f887 302b 	strb.w	r3, [r7, #43]	; 0x2b
        goto error;
 80020fe:	e029      	b.n	8002154 <HAL_SPI_TransmitReceive+0x328>
    while ((hspi->TxXferCount > 0U) || (hspi->RxXferCount > 0U))
 8002100:	68fb      	ldr	r3, [r7, #12]
 8002102:	8edb      	ldrh	r3, [r3, #54]	; 0x36
 8002104:	b29b      	uxth	r3, r3
 8002106:	2b00      	cmp	r3, #0
 8002108:	d1a2      	bne.n	8002050 <HAL_SPI_TransmitReceive+0x224>
 800210a:	68fb      	ldr	r3, [r7, #12]
 800210c:	8fdb      	ldrh	r3, [r3, #62]	; 0x3e
 800210e:	b29b      	uxth	r3, r3
 8002110:	2b00      	cmp	r3, #0
 8002112:	d19d      	bne.n	8002050 <HAL_SPI_TransmitReceive+0x224>
    }
  }
#endif /* USE_SPI_CRC */

  /* Check the end of the transaction */
  if (SPI_EndRxTxTransaction(hspi, Timeout, tickstart) != HAL_OK)
 8002114:	6a7a      	ldr	r2, [r7, #36]	; 0x24
 8002116:	6bb9      	ldr	r1, [r7, #56]	; 0x38
 8002118:	68f8      	ldr	r0, [r7, #12]
 800211a:	f000 f8b1 	bl	8002280 <SPI_EndRxTxTransaction>
 800211e:	4603      	mov	r3, r0
 8002120:	2b00      	cmp	r3, #0
 8002122:	d006      	beq.n	8002132 <HAL_SPI_TransmitReceive+0x306>
  {
    errorcode = HAL_ERROR;
 8002124:	2301      	movs	r3, #1
 8002126:	f887 302b 	strb.w	r3, [r7, #43]	; 0x2b
    hspi->ErrorCode = HAL_SPI_ERROR_FLAG;
 800212a:	68fb      	ldr	r3, [r7, #12]
 800212c:	2220      	movs	r2, #32
 800212e:	655a      	str	r2, [r3, #84]	; 0x54
    goto error;
 8002130:	e010      	b.n	8002154 <HAL_SPI_TransmitReceive+0x328>
  }

  /* Clear overrun flag in 2 Lines communication mode because received is not read */
  if (hspi->Init.Direction == SPI_DIRECTION_2LINES)
 8002132:	68fb      	ldr	r3, [r7, #12]
 8002134:	689b      	ldr	r3, [r3, #8]
 8002136:	2b00      	cmp	r3, #0
 8002138:	d10b      	bne.n	8002152 <HAL_SPI_TransmitReceive+0x326>
  {
    __HAL_SPI_CLEAR_OVRFLAG(hspi);
 800213a:	2300      	movs	r3, #0
 800213c:	617b      	str	r3, [r7, #20]
 800213e:	68fb      	ldr	r3, [r7, #12]
 8002140:	681b      	ldr	r3, [r3, #0]
 8002142:	68db      	ldr	r3, [r3, #12]
 8002144:	617b      	str	r3, [r7, #20]
 8002146:	68fb      	ldr	r3, [r7, #12]
 8002148:	681b      	ldr	r3, [r3, #0]
 800214a:	689b      	ldr	r3, [r3, #8]
 800214c:	617b      	str	r3, [r7, #20]
 800214e:	697b      	ldr	r3, [r7, #20]
 8002150:	e000      	b.n	8002154 <HAL_SPI_TransmitReceive+0x328>
  }

error :
 8002152:	bf00      	nop
  hspi->State = HAL_SPI_STATE_READY;
 8002154:	68fb      	ldr	r3, [r7, #12]
 8002156:	2201      	movs	r2, #1
 8002158:	f883 2051 	strb.w	r2, [r3, #81]	; 0x51
  __HAL_UNLOCK(hspi);
 800215c:	68fb      	ldr	r3, [r7, #12]
 800215e:	2200      	movs	r2, #0
 8002160:	f883 2050 	strb.w	r2, [r3, #80]	; 0x50
  return errorcode;
 8002164:	f897 302b 	ldrb.w	r3, [r7, #43]	; 0x2b
}
 8002168:	4618      	mov	r0, r3
 800216a:	3730      	adds	r7, #48	; 0x30
 800216c:	46bd      	mov	sp, r7
 800216e:	bd80      	pop	{r7, pc}

08002170 <SPI_WaitFlagStateUntilTimeout>:
  * @param  Tickstart tick start value
  * @retval HAL status
  */
static HAL_StatusTypeDef SPI_WaitFlagStateUntilTimeout(SPI_HandleTypeDef *hspi, uint32_t Flag, FlagStatus State,
                                                       uint32_t Timeout, uint32_t Tickstart)
{
 8002170:	b580      	push	{r7, lr}
 8002172:	b088      	sub	sp, #32
 8002174:	af00      	add	r7, sp, #0
 8002176:	60f8      	str	r0, [r7, #12]
 8002178:	60b9      	str	r1, [r7, #8]
 800217a:	603b      	str	r3, [r7, #0]
 800217c:	4613      	mov	r3, r2
 800217e:	71fb      	strb	r3, [r7, #7]
  __IO uint32_t count;
  uint32_t tmp_timeout;
  uint32_t tmp_tickstart;

  /* Adjust Timeout value  in case of end of transfer */
  tmp_timeout   = Timeout - (HAL_GetTick() - Tickstart);
 8002180:	f7fe fede 	bl	8000f40 <HAL_GetTick>
 8002184:	4602      	mov	r2, r0
 8002186:	6abb      	ldr	r3, [r7, #40]	; 0x28
 8002188:	1a9b      	subs	r3, r3, r2
 800218a:	683a      	ldr	r2, [r7, #0]
 800218c:	4413      	add	r3, r2
 800218e:	61fb      	str	r3, [r7, #28]
  tmp_tickstart = HAL_GetTick();
 8002190:	f7fe fed6 	bl	8000f40 <HAL_GetTick>
 8002194:	61b8      	str	r0, [r7, #24]

  /* Calculate Timeout based on a software loop to avoid blocking issue if Systick is disabled */
  count = tmp_timeout * ((SystemCoreClock * 32U) >> 20U);
 8002196:	4b39      	ldr	r3, [pc, #228]	; (800227c <SPI_WaitFlagStateUntilTimeout+0x10c>)
 8002198:	681b      	ldr	r3, [r3, #0]
 800219a:	015b      	lsls	r3, r3, #5
 800219c:	0d1b      	lsrs	r3, r3, #20
 800219e:	69fa      	ldr	r2, [r7, #28]
 80021a0:	fb02 f303 	mul.w	r3, r2, r3
 80021a4:	617b      	str	r3, [r7, #20]

  while ((__HAL_SPI_GET_FLAG(hspi, Flag) ? SET : RESET) != State)
 80021a6:	e054      	b.n	8002252 <SPI_WaitFlagStateUntilTimeout+0xe2>
  {
    if (Timeout != HAL_MAX_DELAY)
 80021a8:	683b      	ldr	r3, [r7, #0]
 80021aa:	f1b3 3fff 	cmp.w	r3, #4294967295
 80021ae:	d050      	beq.n	8002252 <SPI_WaitFlagStateUntilTimeout+0xe2>
    {
      if (((HAL_GetTick() - tmp_tickstart) >= tmp_timeout) || (tmp_timeout == 0U))
 80021b0:	f7fe fec6 	bl	8000f40 <HAL_GetTick>
 80021b4:	4602      	mov	r2, r0
 80021b6:	69bb      	ldr	r3, [r7, #24]
 80021b8:	1ad3      	subs	r3, r2, r3
 80021ba:	69fa      	ldr	r2, [r7, #28]
 80021bc:	429a      	cmp	r2, r3
 80021be:	d902      	bls.n	80021c6 <SPI_WaitFlagStateUntilTimeout+0x56>
 80021c0:	69fb      	ldr	r3, [r7, #28]
 80021c2:	2b00      	cmp	r3, #0
 80021c4:	d13d      	bne.n	8002242 <SPI_WaitFlagStateUntilTimeout+0xd2>
        /* Disable the SPI and reset the CRC: the CRC value should be cleared
           on both master and slave sides in order to resynchronize the master
           and slave for their respective CRC calculation */

        /* Disable TXE, RXNE and ERR interrupts for the interrupt process */
        __HAL_SPI_DISABLE_IT(hspi, (SPI_IT_TXE | SPI_IT_RXNE | SPI_IT_ERR));
 80021c6:	68fb      	ldr	r3, [r7, #12]
 80021c8:	681b      	ldr	r3, [r3, #0]
 80021ca:	685a      	ldr	r2, [r3, #4]
 80021cc:	68fb      	ldr	r3, [r7, #12]
 80021ce:	681b      	ldr	r3, [r3, #0]
 80021d0:	f022 02e0 	bic.w	r2, r2, #224	; 0xe0
 80021d4:	605a      	str	r2, [r3, #4]

        if ((hspi->Init.Mode == SPI_MODE_MASTER) && ((hspi->Init.Direction == SPI_DIRECTION_1LINE)
 80021d6:	68fb      	ldr	r3, [r7, #12]
 80021d8:	685b      	ldr	r3, [r3, #4]
 80021da:	f5b3 7f82 	cmp.w	r3, #260	; 0x104
 80021de:	d111      	bne.n	8002204 <SPI_WaitFlagStateUntilTimeout+0x94>
 80021e0:	68fb      	ldr	r3, [r7, #12]
 80021e2:	689b      	ldr	r3, [r3, #8]
 80021e4:	f5b3 4f00 	cmp.w	r3, #32768	; 0x8000
 80021e8:	d004      	beq.n	80021f4 <SPI_WaitFlagStateUntilTimeout+0x84>
                                                     || (hspi->Init.Direction == SPI_DIRECTION_2LINES_RXONLY)))
 80021ea:	68fb      	ldr	r3, [r7, #12]
 80021ec:	689b      	ldr	r3, [r3, #8]
 80021ee:	f5b3 6f80 	cmp.w	r3, #1024	; 0x400
 80021f2:	d107      	bne.n	8002204 <SPI_WaitFlagStateUntilTimeout+0x94>
        {
          /* Disable SPI peripheral */
          __HAL_SPI_DISABLE(hspi);
 80021f4:	68fb      	ldr	r3, [r7, #12]
 80021f6:	681b      	ldr	r3, [r3, #0]
 80021f8:	681a      	ldr	r2, [r3, #0]
 80021fa:	68fb      	ldr	r3, [r7, #12]
 80021fc:	681b      	ldr	r3, [r3, #0]
 80021fe:	f022 0240 	bic.w	r2, r2, #64	; 0x40
 8002202:	601a      	str	r2, [r3, #0]
        }

        /* Reset CRC Calculation */
        if (hspi->Init.CRCCalculation == SPI_CRCCALCULATION_ENABLE)
 8002204:	68fb      	ldr	r3, [r7, #12]
 8002206:	6a9b      	ldr	r3, [r3, #40]	; 0x28
 8002208:	f5b3 5f00 	cmp.w	r3, #8192	; 0x2000
 800220c:	d10f      	bne.n	800222e <SPI_WaitFlagStateUntilTimeout+0xbe>
        {
          SPI_RESET_CRC(hspi);
 800220e:	68fb      	ldr	r3, [r7, #12]
 8002210:	681b      	ldr	r3, [r3, #0]
 8002212:	681a      	ldr	r2, [r3, #0]
 8002214:	68fb      	ldr	r3, [r7, #12]
 8002216:	681b      	ldr	r3, [r3, #0]
 8002218:	f422 5200 	bic.w	r2, r2, #8192	; 0x2000
 800221c:	601a      	str	r2, [r3, #0]
 800221e:	68fb      	ldr	r3, [r7, #12]
 8002220:	681b      	ldr	r3, [r3, #0]
 8002222:	681a      	ldr	r2, [r3, #0]
 8002224:	68fb      	ldr	r3, [r7, #12]
 8002226:	681b      	ldr	r3, [r3, #0]
 8002228:	f442 5200 	orr.w	r2, r2, #8192	; 0x2000
 800222c:	601a      	str	r2, [r3, #0]
        }

        hspi->State = HAL_SPI_STATE_READY;
 800222e:	68fb      	ldr	r3, [r7, #12]
 8002230:	2201      	movs	r2, #1
 8002232:	f883 2051 	strb.w	r2, [r3, #81]	; 0x51

        /* Process Unlocked */
        __HAL_UNLOCK(hspi);
 8002236:	68fb      	ldr	r3, [r7, #12]
 8002238:	2200      	movs	r2, #0
 800223a:	f883 2050 	strb.w	r2, [r3, #80]	; 0x50

        return HAL_TIMEOUT;
 800223e:	2303      	movs	r3, #3
 8002240:	e017      	b.n	8002272 <SPI_WaitFlagStateUntilTimeout+0x102>
      }
      /* If Systick is disabled or not incremented, deactivate timeout to go in disable loop procedure */
      if(count == 0U)
 8002242:	697b      	ldr	r3, [r7, #20]
 8002244:	2b00      	cmp	r3, #0
 8002246:	d101      	bne.n	800224c <SPI_WaitFlagStateUntilTimeout+0xdc>
      {
        tmp_timeout = 0U;
 8002248:	2300      	movs	r3, #0
 800224a:	61fb      	str	r3, [r7, #28]
      }
      count--;
 800224c:	697b      	ldr	r3, [r7, #20]
 800224e:	3b01      	subs	r3, #1
 8002250:	617b      	str	r3, [r7, #20]
  while ((__HAL_SPI_GET_FLAG(hspi, Flag) ? SET : RESET) != State)
 8002252:	68fb      	ldr	r3, [r7, #12]
 8002254:	681b      	ldr	r3, [r3, #0]
 8002256:	689a      	ldr	r2, [r3, #8]
 8002258:	68bb      	ldr	r3, [r7, #8]
 800225a:	4013      	ands	r3, r2
 800225c:	68ba      	ldr	r2, [r7, #8]
 800225e:	429a      	cmp	r2, r3
 8002260:	bf0c      	ite	eq
 8002262:	2301      	moveq	r3, #1
 8002264:	2300      	movne	r3, #0
 8002266:	b2db      	uxtb	r3, r3
 8002268:	461a      	mov	r2, r3
 800226a:	79fb      	ldrb	r3, [r7, #7]
 800226c:	429a      	cmp	r2, r3
 800226e:	d19b      	bne.n	80021a8 <SPI_WaitFlagStateUntilTimeout+0x38>
    }
  }

  return HAL_OK;
 8002270:	2300      	movs	r3, #0
}
 8002272:	4618      	mov	r0, r3
 8002274:	3720      	adds	r7, #32
 8002276:	46bd      	mov	sp, r7
 8002278:	bd80      	pop	{r7, pc}
 800227a:	bf00      	nop
 800227c:	20000000 	.word	0x20000000

08002280 <SPI_EndRxTxTransaction>:
  * @param  Timeout Timeout duration
  * @param  Tickstart tick start value
  * @retval HAL status
  */
static HAL_StatusTypeDef SPI_EndRxTxTransaction(SPI_HandleTypeDef *hspi, uint32_t Timeout, uint32_t Tickstart)
{
 8002280:	b580      	push	{r7, lr}
 8002282:	b086      	sub	sp, #24
 8002284:	af02      	add	r7, sp, #8
 8002286:	60f8      	str	r0, [r7, #12]
 8002288:	60b9      	str	r1, [r7, #8]
 800228a:	607a      	str	r2, [r7, #4]
  /* Control the BSY flag */
  if (SPI_WaitFlagStateUntilTimeout(hspi, SPI_FLAG_BSY, RESET, Timeout, Tickstart) != HAL_OK)
 800228c:	687b      	ldr	r3, [r7, #4]
 800228e:	9300      	str	r3, [sp, #0]
 8002290:	68bb      	ldr	r3, [r7, #8]
 8002292:	2200      	movs	r2, #0
 8002294:	2180      	movs	r1, #128	; 0x80
 8002296:	68f8      	ldr	r0, [r7, #12]
 8002298:	f7ff ff6a 	bl	8002170 <SPI_WaitFlagStateUntilTimeout>
 800229c:	4603      	mov	r3, r0
 800229e:	2b00      	cmp	r3, #0
 80022a0:	d007      	beq.n	80022b2 <SPI_EndRxTxTransaction+0x32>
  {
    SET_BIT(hspi->ErrorCode, HAL_SPI_ERROR_FLAG);
 80022a2:	68fb      	ldr	r3, [r7, #12]
 80022a4:	6d5b      	ldr	r3, [r3, #84]	; 0x54
 80022a6:	f043 0220 	orr.w	r2, r3, #32
 80022aa:	68fb      	ldr	r3, [r7, #12]
 80022ac:	655a      	str	r2, [r3, #84]	; 0x54
    return HAL_TIMEOUT;
 80022ae:	2303      	movs	r3, #3
 80022b0:	e000      	b.n	80022b4 <SPI_EndRxTxTransaction+0x34>
  }
  return HAL_OK;
 80022b2:	2300      	movs	r3, #0
}
 80022b4:	4618      	mov	r0, r3
 80022b6:	3710      	adds	r7, #16
 80022b8:	46bd      	mov	sp, r7
 80022ba:	bd80      	pop	{r7, pc}

080022bc <HAL_TIM_Base_Init>:
  *         Ex: call @ref HAL_TIM_Base_DeInit() before HAL_TIM_Base_Init()
  * @param  htim TIM Base handle
  * @retval HAL status
  */
HAL_StatusTypeDef HAL_TIM_Base_Init(TIM_HandleTypeDef *htim)
{
 80022bc:	b580      	push	{r7, lr}
 80022be:	b082      	sub	sp, #8
 80022c0:	af00      	add	r7, sp, #0
 80022c2:	6078      	str	r0, [r7, #4]
  /* Check the TIM handle allocation */
  if (htim == NULL)
 80022c4:	687b      	ldr	r3, [r7, #4]
 80022c6:	2b00      	cmp	r3, #0
 80022c8:	d101      	bne.n	80022ce <HAL_TIM_Base_Init+0x12>
  {
    return HAL_ERROR;
 80022ca:	2301      	movs	r3, #1
 80022cc:	e041      	b.n	8002352 <HAL_TIM_Base_Init+0x96>
  assert_param(IS_TIM_INSTANCE(htim->Instance));
  assert_param(IS_TIM_COUNTER_MODE(htim->Init.CounterMode));
  assert_param(IS_TIM_CLOCKDIVISION_DIV(htim->Init.ClockDivision));
  assert_param(IS_TIM_AUTORELOAD_PRELOAD(htim->Init.AutoReloadPreload));

  if (htim->State == HAL_TIM_STATE_RESET)
 80022ce:	687b      	ldr	r3, [r7, #4]
 80022d0:	f893 303d 	ldrb.w	r3, [r3, #61]	; 0x3d
 80022d4:	b2db      	uxtb	r3, r3
 80022d6:	2b00      	cmp	r3, #0
 80022d8:	d106      	bne.n	80022e8 <HAL_TIM_Base_Init+0x2c>
  {
    /* Allocate lock resource and initialize it */
    htim->Lock = HAL_UNLOCKED;
 80022da:	687b      	ldr	r3, [r7, #4]
 80022dc:	2200      	movs	r2, #0
 80022de:	f883 203c 	strb.w	r2, [r3, #60]	; 0x3c
    }
    /* Init the low level hardware : GPIO, CLOCK, NVIC */
    htim->Base_MspInitCallback(htim);
#else
    /* Init the low level hardware : GPIO, CLOCK, NVIC */
    HAL_TIM_Base_MspInit(htim);
 80022e2:	6878      	ldr	r0, [r7, #4]
 80022e4:	f7fe fce0 	bl	8000ca8 <HAL_TIM_Base_MspInit>
#endif /* USE_HAL_TIM_REGISTER_CALLBACKS */
  }

  /* Set the TIM state */
  htim->State = HAL_TIM_STATE_BUSY;
 80022e8:	687b      	ldr	r3, [r7, #4]
 80022ea:	2202      	movs	r2, #2
 80022ec:	f883 203d 	strb.w	r2, [r3, #61]	; 0x3d

  /* Set the Time Base configuration */
  TIM_Base_SetConfig(htim->Instance, &htim->Init);
 80022f0:	687b      	ldr	r3, [r7, #4]
 80022f2:	681a      	ldr	r2, [r3, #0]
 80022f4:	687b      	ldr	r3, [r7, #4]
 80022f6:	3304      	adds	r3, #4
 80022f8:	4619      	mov	r1, r3
 80022fa:	4610      	mov	r0, r2
 80022fc:	f000 fb3e 	bl	800297c <TIM_Base_SetConfig>

  /* Initialize the DMA burst operation state */
  htim->DMABurstState = HAL_DMA_BURST_STATE_READY;
 8002300:	687b      	ldr	r3, [r7, #4]
 8002302:	2201      	movs	r2, #1
 8002304:	f883 2046 	strb.w	r2, [r3, #70]	; 0x46

  /* Initialize the TIM channels state */
  TIM_CHANNEL_STATE_SET_ALL(htim, HAL_TIM_CHANNEL_STATE_READY);
 8002308:	687b      	ldr	r3, [r7, #4]
 800230a:	2201      	movs	r2, #1
 800230c:	f883 203e 	strb.w	r2, [r3, #62]	; 0x3e
 8002310:	687b      	ldr	r3, [r7, #4]
 8002312:	2201      	movs	r2, #1
 8002314:	f883 203f 	strb.w	r2, [r3, #63]	; 0x3f
 8002318:	687b      	ldr	r3, [r7, #4]
 800231a:	2201      	movs	r2, #1
 800231c:	f883 2040 	strb.w	r2, [r3, #64]	; 0x40
 8002320:	687b      	ldr	r3, [r7, #4]
 8002322:	2201      	movs	r2, #1
 8002324:	f883 2041 	strb.w	r2, [r3, #65]	; 0x41
  TIM_CHANNEL_N_STATE_SET_ALL(htim, HAL_TIM_CHANNEL_STATE_READY);
 8002328:	687b      	ldr	r3, [r7, #4]
 800232a:	2201      	movs	r2, #1
 800232c:	f883 2042 	strb.w	r2, [r3, #66]	; 0x42
 8002330:	687b      	ldr	r3, [r7, #4]
 8002332:	2201      	movs	r2, #1
 8002334:	f883 2043 	strb.w	r2, [r3, #67]	; 0x43
 8002338:	687b      	ldr	r3, [r7, #4]
 800233a:	2201      	movs	r2, #1
 800233c:	f883 2044 	strb.w	r2, [r3, #68]	; 0x44
 8002340:	687b      	ldr	r3, [r7, #4]
 8002342:	2201      	movs	r2, #1
 8002344:	f883 2045 	strb.w	r2, [r3, #69]	; 0x45

  /* Initialize the TIM state*/
  htim->State = HAL_TIM_STATE_READY;
 8002348:	687b      	ldr	r3, [r7, #4]
 800234a:	2201      	movs	r2, #1
 800234c:	f883 203d 	strb.w	r2, [r3, #61]	; 0x3d

  return HAL_OK;
 8002350:	2300      	movs	r3, #0
}
 8002352:	4618      	mov	r0, r3
 8002354:	3708      	adds	r7, #8
 8002356:	46bd      	mov	sp, r7
 8002358:	bd80      	pop	{r7, pc}

0800235a <HAL_TIM_PWM_Init>:
  *         Ex: call @ref HAL_TIM_PWM_DeInit() before HAL_TIM_PWM_Init()
  * @param  htim TIM PWM handle
  * @retval HAL status
  */
HAL_StatusTypeDef HAL_TIM_PWM_Init(TIM_HandleTypeDef *htim)
{
 800235a:	b580      	push	{r7, lr}
 800235c:	b082      	sub	sp, #8
 800235e:	af00      	add	r7, sp, #0
 8002360:	6078      	str	r0, [r7, #4]
  /* Check the TIM handle allocation */
  if (htim == NULL)
 8002362:	687b      	ldr	r3, [r7, #4]
 8002364:	2b00      	cmp	r3, #0
 8002366:	d101      	bne.n	800236c <HAL_TIM_PWM_Init+0x12>
  {
    return HAL_ERROR;
 8002368:	2301      	movs	r3, #1
 800236a:	e041      	b.n	80023f0 <HAL_TIM_PWM_Init+0x96>
  assert_param(IS_TIM_INSTANCE(htim->Instance));
  assert_param(IS_TIM_COUNTER_MODE(htim->Init.CounterMode));
  assert_param(IS_TIM_CLOCKDIVISION_DIV(htim->Init.ClockDivision));
  assert_param(IS_TIM_AUTORELOAD_PRELOAD(htim->Init.AutoReloadPreload));

  if (htim->State == HAL_TIM_STATE_RESET)
 800236c:	687b      	ldr	r3, [r7, #4]
 800236e:	f893 303d 	ldrb.w	r3, [r3, #61]	; 0x3d
 8002372:	b2db      	uxtb	r3, r3
 8002374:	2b00      	cmp	r3, #0
 8002376:	d106      	bne.n	8002386 <HAL_TIM_PWM_Init+0x2c>
  {
    /* Allocate lock resource and initialize it */
    htim->Lock = HAL_UNLOCKED;
 8002378:	687b      	ldr	r3, [r7, #4]
 800237a:	2200      	movs	r2, #0
 800237c:	f883 203c 	strb.w	r2, [r3, #60]	; 0x3c
    }
    /* Init the low level hardware : GPIO, CLOCK, NVIC */
    htim->PWM_MspInitCallback(htim);
#else
    /* Init the low level hardware : GPIO, CLOCK, NVIC and DMA */
    HAL_TIM_PWM_MspInit(htim);
 8002380:	6878      	ldr	r0, [r7, #4]
 8002382:	f000 f839 	bl	80023f8 <HAL_TIM_PWM_MspInit>
#endif /* USE_HAL_TIM_REGISTER_CALLBACKS */
  }

  /* Set the TIM state */
  htim->State = HAL_TIM_STATE_BUSY;
 8002386:	687b      	ldr	r3, [r7, #4]
 8002388:	2202      	movs	r2, #2
 800238a:	f883 203d 	strb.w	r2, [r3, #61]	; 0x3d

  /* Init the base time for the PWM */
  TIM_Base_SetConfig(htim->Instance, &htim->Init);
 800238e:	687b      	ldr	r3, [r7, #4]
 8002390:	681a      	ldr	r2, [r3, #0]
 8002392:	687b      	ldr	r3, [r7, #4]
 8002394:	3304      	adds	r3, #4
 8002396:	4619      	mov	r1, r3
 8002398:	4610      	mov	r0, r2
 800239a:	f000 faef 	bl	800297c <TIM_Base_SetConfig>

  /* Initialize the DMA burst operation state */
  htim->DMABurstState = HAL_DMA_BURST_STATE_READY;
 800239e:	687b      	ldr	r3, [r7, #4]
 80023a0:	2201      	movs	r2, #1
 80023a2:	f883 2046 	strb.w	r2, [r3, #70]	; 0x46

  /* Initialize the TIM channels state */
  TIM_CHANNEL_STATE_SET_ALL(htim, HAL_TIM_CHANNEL_STATE_READY);
 80023a6:	687b      	ldr	r3, [r7, #4]
 80023a8:	2201      	movs	r2, #1
 80023aa:	f883 203e 	strb.w	r2, [r3, #62]	; 0x3e
 80023ae:	687b      	ldr	r3, [r7, #4]
 80023b0:	2201      	movs	r2, #1
 80023b2:	f883 203f 	strb.w	r2, [r3, #63]	; 0x3f
 80023b6:	687b      	ldr	r3, [r7, #4]
 80023b8:	2201      	movs	r2, #1
 80023ba:	f883 2040 	strb.w	r2, [r3, #64]	; 0x40
 80023be:	687b      	ldr	r3, [r7, #4]
 80023c0:	2201      	movs	r2, #1
 80023c2:	f883 2041 	strb.w	r2, [r3, #65]	; 0x41
  TIM_CHANNEL_N_STATE_SET_ALL(htim, HAL_TIM_CHANNEL_STATE_READY);
 80023c6:	687b      	ldr	r3, [r7, #4]
 80023c8:	2201      	movs	r2, #1
 80023ca:	f883 2042 	strb.w	r2, [r3, #66]	; 0x42
 80023ce:	687b      	ldr	r3, [r7, #4]
 80023d0:	2201      	movs	r2, #1
 80023d2:	f883 2043 	strb.w	r2, [r3, #67]	; 0x43
 80023d6:	687b      	ldr	r3, [r7, #4]
 80023d8:	2201      	movs	r2, #1
 80023da:	f883 2044 	strb.w	r2, [r3, #68]	; 0x44
 80023de:	687b      	ldr	r3, [r7, #4]
 80023e0:	2201      	movs	r2, #1
 80023e2:	f883 2045 	strb.w	r2, [r3, #69]	; 0x45

  /* Initialize the TIM state*/
  htim->State = HAL_TIM_STATE_READY;
 80023e6:	687b      	ldr	r3, [r7, #4]
 80023e8:	2201      	movs	r2, #1
 80023ea:	f883 203d 	strb.w	r2, [r3, #61]	; 0x3d

  return HAL_OK;
 80023ee:	2300      	movs	r3, #0
}
 80023f0:	4618      	mov	r0, r3
 80023f2:	3708      	adds	r7, #8
 80023f4:	46bd      	mov	sp, r7
 80023f6:	bd80      	pop	{r7, pc}

080023f8 <HAL_TIM_PWM_MspInit>:
  * @brief  Initializes the TIM PWM MSP.
  * @param  htim TIM PWM handle
  * @retval None
  */
__weak void HAL_TIM_PWM_MspInit(TIM_HandleTypeDef *htim)
{
 80023f8:	b480      	push	{r7}
 80023fa:	b083      	sub	sp, #12
 80023fc:	af00      	add	r7, sp, #0
 80023fe:	6078      	str	r0, [r7, #4]
  UNUSED(htim);

  /* NOTE : This function should not be modified, when the callback is needed,
            the HAL_TIM_PWM_MspInit could be implemented in the user file
   */
}
 8002400:	bf00      	nop
 8002402:	370c      	adds	r7, #12
 8002404:	46bd      	mov	sp, r7
 8002406:	bc80      	pop	{r7}
 8002408:	4770      	bx	lr

0800240a <HAL_TIM_IRQHandler>:
  * @brief  This function handles TIM interrupts requests.
  * @param  htim TIM  handle
  * @retval None
  */
void HAL_TIM_IRQHandler(TIM_HandleTypeDef *htim)
{
 800240a:	b580      	push	{r7, lr}
 800240c:	b082      	sub	sp, #8
 800240e:	af00      	add	r7, sp, #0
 8002410:	6078      	str	r0, [r7, #4]
  /* Capture compare 1 event */
  if (__HAL_TIM_GET_FLAG(htim, TIM_FLAG_CC1) != RESET)
 8002412:	687b      	ldr	r3, [r7, #4]
 8002414:	681b      	ldr	r3, [r3, #0]
 8002416:	691b      	ldr	r3, [r3, #16]
 8002418:	f003 0302 	and.w	r3, r3, #2
 800241c:	2b02      	cmp	r3, #2
 800241e:	d122      	bne.n	8002466 <HAL_TIM_IRQHandler+0x5c>
  {
    if (__HAL_TIM_GET_IT_SOURCE(htim, TIM_IT_CC1) != RESET)
 8002420:	687b      	ldr	r3, [r7, #4]
 8002422:	681b      	ldr	r3, [r3, #0]
 8002424:	68db      	ldr	r3, [r3, #12]
 8002426:	f003 0302 	and.w	r3, r3, #2
 800242a:	2b02      	cmp	r3, #2
 800242c:	d11b      	bne.n	8002466 <HAL_TIM_IRQHandler+0x5c>
    {
      {
        __HAL_TIM_CLEAR_IT(htim, TIM_IT_CC1);
 800242e:	687b      	ldr	r3, [r7, #4]
 8002430:	681b      	ldr	r3, [r3, #0]
 8002432:	f06f 0202 	mvn.w	r2, #2
 8002436:	611a      	str	r2, [r3, #16]
        htim->Channel = HAL_TIM_ACTIVE_CHANNEL_1;
 8002438:	687b      	ldr	r3, [r7, #4]
 800243a:	2201      	movs	r2, #1
 800243c:	771a      	strb	r2, [r3, #28]

        /* Input capture event */
        if ((htim->Instance->CCMR1 & TIM_CCMR1_CC1S) != 0x00U)
 800243e:	687b      	ldr	r3, [r7, #4]
 8002440:	681b      	ldr	r3, [r3, #0]
 8002442:	699b      	ldr	r3, [r3, #24]
 8002444:	f003 0303 	and.w	r3, r3, #3
 8002448:	2b00      	cmp	r3, #0
 800244a:	d003      	beq.n	8002454 <HAL_TIM_IRQHandler+0x4a>
        {
#if (USE_HAL_TIM_REGISTER_CALLBACKS == 1)
          htim->IC_CaptureCallback(htim);
#else
          HAL_TIM_IC_CaptureCallback(htim);
 800244c:	6878      	ldr	r0, [r7, #4]
 800244e:	f000 fa79 	bl	8002944 <HAL_TIM_IC_CaptureCallback>
 8002452:	e005      	b.n	8002460 <HAL_TIM_IRQHandler+0x56>
        {
#if (USE_HAL_TIM_REGISTER_CALLBACKS == 1)
          htim->OC_DelayElapsedCallback(htim);
          htim->PWM_PulseFinishedCallback(htim);
#else
          HAL_TIM_OC_DelayElapsedCallback(htim);
 8002454:	6878      	ldr	r0, [r7, #4]
 8002456:	f000 fa6c 	bl	8002932 <HAL_TIM_OC_DelayElapsedCallback>
          HAL_TIM_PWM_PulseFinishedCallback(htim);
 800245a:	6878      	ldr	r0, [r7, #4]
 800245c:	f000 fa7b 	bl	8002956 <HAL_TIM_PWM_PulseFinishedCallback>
#endif /* USE_HAL_TIM_REGISTER_CALLBACKS */
        }
        htim->Channel = HAL_TIM_ACTIVE_CHANNEL_CLEARED;
 8002460:	687b      	ldr	r3, [r7, #4]
 8002462:	2200      	movs	r2, #0
 8002464:	771a      	strb	r2, [r3, #28]
      }
    }
  }
  /* Capture compare 2 event */
  if (__HAL_TIM_GET_FLAG(htim, TIM_FLAG_CC2) != RESET)
 8002466:	687b      	ldr	r3, [r7, #4]
 8002468:	681b      	ldr	r3, [r3, #0]
 800246a:	691b      	ldr	r3, [r3, #16]
 800246c:	f003 0304 	and.w	r3, r3, #4
 8002470:	2b04      	cmp	r3, #4
 8002472:	d122      	bne.n	80024ba <HAL_TIM_IRQHandler+0xb0>
  {
    if (__HAL_TIM_GET_IT_SOURCE(htim, TIM_IT_CC2) != RESET)
 8002474:	687b      	ldr	r3, [r7, #4]
 8002476:	681b      	ldr	r3, [r3, #0]
 8002478:	68db      	ldr	r3, [r3, #12]
 800247a:	f003 0304 	and.w	r3, r3, #4
 800247e:	2b04      	cmp	r3, #4
 8002480:	d11b      	bne.n	80024ba <HAL_TIM_IRQHandler+0xb0>
    {
      __HAL_TIM_CLEAR_IT(htim, TIM_IT_CC2);
 8002482:	687b      	ldr	r3, [r7, #4]
 8002484:	681b      	ldr	r3, [r3, #0]
 8002486:	f06f 0204 	mvn.w	r2, #4
 800248a:	611a      	str	r2, [r3, #16]
      htim->Channel = HAL_TIM_ACTIVE_CHANNEL_2;
 800248c:	687b      	ldr	r3, [r7, #4]
 800248e:	2202      	movs	r2, #2
 8002490:	771a      	strb	r2, [r3, #28]
      /* Input capture event */
      if ((htim->Instance->CCMR1 & TIM_CCMR1_CC2S) != 0x00U)
 8002492:	687b      	ldr	r3, [r7, #4]
 8002494:	681b      	ldr	r3, [r3, #0]
 8002496:	699b      	ldr	r3, [r3, #24]
 8002498:	f403 7340 	and.w	r3, r3, #768	; 0x300
 800249c:	2b00      	cmp	r3, #0
 800249e:	d003      	beq.n	80024a8 <HAL_TIM_IRQHandler+0x9e>
      {
#if (USE_HAL_TIM_REGISTER_CALLBACKS == 1)
        htim->IC_CaptureCallback(htim);
#else
        HAL_TIM_IC_CaptureCallback(htim);
 80024a0:	6878      	ldr	r0, [r7, #4]
 80024a2:	f000 fa4f 	bl	8002944 <HAL_TIM_IC_CaptureCallback>
 80024a6:	e005      	b.n	80024b4 <HAL_TIM_IRQHandler+0xaa>
      {
#if (USE_HAL_TIM_REGISTER_CALLBACKS == 1)
        htim->OC_DelayElapsedCallback(htim);
        htim->PWM_PulseFinishedCallback(htim);
#else
        HAL_TIM_OC_DelayElapsedCallback(htim);
 80024a8:	6878      	ldr	r0, [r7, #4]
 80024aa:	f000 fa42 	bl	8002932 <HAL_TIM_OC_DelayElapsedCallback>
        HAL_TIM_PWM_PulseFinishedCallback(htim);
 80024ae:	6878      	ldr	r0, [r7, #4]
 80024b0:	f000 fa51 	bl	8002956 <HAL_TIM_PWM_PulseFinishedCallback>
#endif /* USE_HAL_TIM_REGISTER_CALLBACKS */
      }
      htim->Channel = HAL_TIM_ACTIVE_CHANNEL_CLEARED;
 80024b4:	687b      	ldr	r3, [r7, #4]
 80024b6:	2200      	movs	r2, #0
 80024b8:	771a      	strb	r2, [r3, #28]
    }
  }
  /* Capture compare 3 event */
  if (__HAL_TIM_GET_FLAG(htim, TIM_FLAG_CC3) != RESET)
 80024ba:	687b      	ldr	r3, [r7, #4]
 80024bc:	681b      	ldr	r3, [r3, #0]
 80024be:	691b      	ldr	r3, [r3, #16]
 80024c0:	f003 0308 	and.w	r3, r3, #8
 80024c4:	2b08      	cmp	r3, #8
 80024c6:	d122      	bne.n	800250e <HAL_TIM_IRQHandler+0x104>
  {
    if (__HAL_TIM_GET_IT_SOURCE(htim, TIM_IT_CC3) != RESET)
 80024c8:	687b      	ldr	r3, [r7, #4]
 80024ca:	681b      	ldr	r3, [r3, #0]
 80024cc:	68db      	ldr	r3, [r3, #12]
 80024ce:	f003 0308 	and.w	r3, r3, #8
 80024d2:	2b08      	cmp	r3, #8
 80024d4:	d11b      	bne.n	800250e <HAL_TIM_IRQHandler+0x104>
    {
      __HAL_TIM_CLEAR_IT(htim, TIM_IT_CC3);
 80024d6:	687b      	ldr	r3, [r7, #4]
 80024d8:	681b      	ldr	r3, [r3, #0]
 80024da:	f06f 0208 	mvn.w	r2, #8
 80024de:	611a      	str	r2, [r3, #16]
      htim->Channel = HAL_TIM_ACTIVE_CHANNEL_3;
 80024e0:	687b      	ldr	r3, [r7, #4]
 80024e2:	2204      	movs	r2, #4
 80024e4:	771a      	strb	r2, [r3, #28]
      /* Input capture event */
      if ((htim->Instance->CCMR2 & TIM_CCMR2_CC3S) != 0x00U)
 80024e6:	687b      	ldr	r3, [r7, #4]
 80024e8:	681b      	ldr	r3, [r3, #0]
 80024ea:	69db      	ldr	r3, [r3, #28]
 80024ec:	f003 0303 	and.w	r3, r3, #3
 80024f0:	2b00      	cmp	r3, #0
 80024f2:	d003      	beq.n	80024fc <HAL_TIM_IRQHandler+0xf2>
      {
#if (USE_HAL_TIM_REGISTER_CALLBACKS == 1)
        htim->IC_CaptureCallback(htim);
#else
        HAL_TIM_IC_CaptureCallback(htim);
 80024f4:	6878      	ldr	r0, [r7, #4]
 80024f6:	f000 fa25 	bl	8002944 <HAL_TIM_IC_CaptureCallback>
 80024fa:	e005      	b.n	8002508 <HAL_TIM_IRQHandler+0xfe>
      {
#if (USE_HAL_TIM_REGISTER_CALLBACKS == 1)
        htim->OC_DelayElapsedCallback(htim);
        htim->PWM_PulseFinishedCallback(htim);
#else
        HAL_TIM_OC_DelayElapsedCallback(htim);
 80024fc:	6878      	ldr	r0, [r7, #4]
 80024fe:	f000 fa18 	bl	8002932 <HAL_TIM_OC_DelayElapsedCallback>
        HAL_TIM_PWM_PulseFinishedCallback(htim);
 8002502:	6878      	ldr	r0, [r7, #4]
 8002504:	f000 fa27 	bl	8002956 <HAL_TIM_PWM_PulseFinishedCallback>
#endif /* USE_HAL_TIM_REGISTER_CALLBACKS */
      }
      htim->Channel = HAL_TIM_ACTIVE_CHANNEL_CLEARED;
 8002508:	687b      	ldr	r3, [r7, #4]
 800250a:	2200      	movs	r2, #0
 800250c:	771a      	strb	r2, [r3, #28]
    }
  }
  /* Capture compare 4 event */
  if (__HAL_TIM_GET_FLAG(htim, TIM_FLAG_CC4) != RESET)
 800250e:	687b      	ldr	r3, [r7, #4]
 8002510:	681b      	ldr	r3, [r3, #0]
 8002512:	691b      	ldr	r3, [r3, #16]
 8002514:	f003 0310 	and.w	r3, r3, #16
 8002518:	2b10      	cmp	r3, #16
 800251a:	d122      	bne.n	8002562 <HAL_TIM_IRQHandler+0x158>
  {
    if (__HAL_TIM_GET_IT_SOURCE(htim, TIM_IT_CC4) != RESET)
 800251c:	687b      	ldr	r3, [r7, #4]
 800251e:	681b      	ldr	r3, [r3, #0]
 8002520:	68db      	ldr	r3, [r3, #12]
 8002522:	f003 0310 	and.w	r3, r3, #16
 8002526:	2b10      	cmp	r3, #16
 8002528:	d11b      	bne.n	8002562 <HAL_TIM_IRQHandler+0x158>
    {
      __HAL_TIM_CLEAR_IT(htim, TIM_IT_CC4);
 800252a:	687b      	ldr	r3, [r7, #4]
 800252c:	681b      	ldr	r3, [r3, #0]
 800252e:	f06f 0210 	mvn.w	r2, #16
 8002532:	611a      	str	r2, [r3, #16]
      htim->Channel = HAL_TIM_ACTIVE_CHANNEL_4;
 8002534:	687b      	ldr	r3, [r7, #4]
 8002536:	2208      	movs	r2, #8
 8002538:	771a      	strb	r2, [r3, #28]
      /* Input capture event */
      if ((htim->Instance->CCMR2 & TIM_CCMR2_CC4S) != 0x00U)
 800253a:	687b      	ldr	r3, [r7, #4]
 800253c:	681b      	ldr	r3, [r3, #0]
 800253e:	69db      	ldr	r3, [r3, #28]
 8002540:	f403 7340 	and.w	r3, r3, #768	; 0x300
 8002544:	2b00      	cmp	r3, #0
 8002546:	d003      	beq.n	8002550 <HAL_TIM_IRQHandler+0x146>
      {
#if (USE_HAL_TIM_REGISTER_CALLBACKS == 1)
        htim->IC_CaptureCallback(htim);
#else
        HAL_TIM_IC_CaptureCallback(htim);
 8002548:	6878      	ldr	r0, [r7, #4]
 800254a:	f000 f9fb 	bl	8002944 <HAL_TIM_IC_CaptureCallback>
 800254e:	e005      	b.n	800255c <HAL_TIM_IRQHandler+0x152>
      {
#if (USE_HAL_TIM_REGISTER_CALLBACKS == 1)
        htim->OC_DelayElapsedCallback(htim);
        htim->PWM_PulseFinishedCallback(htim);
#else
        HAL_TIM_OC_DelayElapsedCallback(htim);
 8002550:	6878      	ldr	r0, [r7, #4]
 8002552:	f000 f9ee 	bl	8002932 <HAL_TIM_OC_DelayElapsedCallback>
        HAL_TIM_PWM_PulseFinishedCallback(htim);
 8002556:	6878      	ldr	r0, [r7, #4]
 8002558:	f000 f9fd 	bl	8002956 <HAL_TIM_PWM_PulseFinishedCallback>
#endif /* USE_HAL_TIM_REGISTER_CALLBACKS */
      }
      htim->Channel = HAL_TIM_ACTIVE_CHANNEL_CLEARED;
 800255c:	687b      	ldr	r3, [r7, #4]
 800255e:	2200      	movs	r2, #0
 8002560:	771a      	strb	r2, [r3, #28]
    }
  }
  /* TIM Update event */
  if (__HAL_TIM_GET_FLAG(htim, TIM_FLAG_UPDATE) != RESET)
 8002562:	687b      	ldr	r3, [r7, #4]
 8002564:	681b      	ldr	r3, [r3, #0]
 8002566:	691b      	ldr	r3, [r3, #16]
 8002568:	f003 0301 	and.w	r3, r3, #1
 800256c:	2b01      	cmp	r3, #1
 800256e:	d10e      	bne.n	800258e <HAL_TIM_IRQHandler+0x184>
  {
    if (__HAL_TIM_GET_IT_SOURCE(htim, TIM_IT_UPDATE) != RESET)
 8002570:	687b      	ldr	r3, [r7, #4]
 8002572:	681b      	ldr	r3, [r3, #0]
 8002574:	68db      	ldr	r3, [r3, #12]
 8002576:	f003 0301 	and.w	r3, r3, #1
 800257a:	2b01      	cmp	r3, #1
 800257c:	d107      	bne.n	800258e <HAL_TIM_IRQHandler+0x184>
    {
      __HAL_TIM_CLEAR_IT(htim, TIM_IT_UPDATE);
 800257e:	687b      	ldr	r3, [r7, #4]
 8002580:	681b      	ldr	r3, [r3, #0]
 8002582:	f06f 0201 	mvn.w	r2, #1
 8002586:	611a      	str	r2, [r3, #16]
#if (USE_HAL_TIM_REGISTER_CALLBACKS == 1)
      htim->PeriodElapsedCallback(htim);
#else
      HAL_TIM_PeriodElapsedCallback(htim);
 8002588:	6878      	ldr	r0, [r7, #4]
 800258a:	f000 f9c9 	bl	8002920 <HAL_TIM_PeriodElapsedCallback>
#endif /* USE_HAL_TIM_REGISTER_CALLBACKS */
    }
  }
  /* TIM Break input event */
  if (__HAL_TIM_GET_FLAG(htim, TIM_FLAG_BREAK) != RESET)
 800258e:	687b      	ldr	r3, [r7, #4]
 8002590:	681b      	ldr	r3, [r3, #0]
 8002592:	691b      	ldr	r3, [r3, #16]
 8002594:	f003 0380 	and.w	r3, r3, #128	; 0x80
 8002598:	2b80      	cmp	r3, #128	; 0x80
 800259a:	d10e      	bne.n	80025ba <HAL_TIM_IRQHandler+0x1b0>
  {
    if (__HAL_TIM_GET_IT_SOURCE(htim, TIM_IT_BREAK) != RESET)
 800259c:	687b      	ldr	r3, [r7, #4]
 800259e:	681b      	ldr	r3, [r3, #0]
 80025a0:	68db      	ldr	r3, [r3, #12]
 80025a2:	f003 0380 	and.w	r3, r3, #128	; 0x80
 80025a6:	2b80      	cmp	r3, #128	; 0x80
 80025a8:	d107      	bne.n	80025ba <HAL_TIM_IRQHandler+0x1b0>
    {
      __HAL_TIM_CLEAR_IT(htim, TIM_IT_BREAK);
 80025aa:	687b      	ldr	r3, [r7, #4]
 80025ac:	681b      	ldr	r3, [r3, #0]
 80025ae:	f06f 0280 	mvn.w	r2, #128	; 0x80
 80025b2:	611a      	str	r2, [r3, #16]
#if (USE_HAL_TIM_REGISTER_CALLBACKS == 1)
      htim->BreakCallback(htim);
#else
      HAL_TIMEx_BreakCallback(htim);
 80025b4:	6878      	ldr	r0, [r7, #4]
 80025b6:	f000 fcc8 	bl	8002f4a <HAL_TIMEx_BreakCallback>
#endif /* USE_HAL_TIM_REGISTER_CALLBACKS */
    }
  }
  /* TIM Trigger detection event */
  if (__HAL_TIM_GET_FLAG(htim, TIM_FLAG_TRIGGER) != RESET)
 80025ba:	687b      	ldr	r3, [r7, #4]
 80025bc:	681b      	ldr	r3, [r3, #0]
 80025be:	691b      	ldr	r3, [r3, #16]
 80025c0:	f003 0340 	and.w	r3, r3, #64	; 0x40
 80025c4:	2b40      	cmp	r3, #64	; 0x40
 80025c6:	d10e      	bne.n	80025e6 <HAL_TIM_IRQHandler+0x1dc>
  {
    if (__HAL_TIM_GET_IT_SOURCE(htim, TIM_IT_TRIGGER) != RESET)
 80025c8:	687b      	ldr	r3, [r7, #4]
 80025ca:	681b      	ldr	r3, [r3, #0]
 80025cc:	68db      	ldr	r3, [r3, #12]
 80025ce:	f003 0340 	and.w	r3, r3, #64	; 0x40
 80025d2:	2b40      	cmp	r3, #64	; 0x40
 80025d4:	d107      	bne.n	80025e6 <HAL_TIM_IRQHandler+0x1dc>
    {
      __HAL_TIM_CLEAR_IT(htim, TIM_IT_TRIGGER);
 80025d6:	687b      	ldr	r3, [r7, #4]
 80025d8:	681b      	ldr	r3, [r3, #0]
 80025da:	f06f 0240 	mvn.w	r2, #64	; 0x40
 80025de:	611a      	str	r2, [r3, #16]
#if (USE_HAL_TIM_REGISTER_CALLBACKS == 1)
      htim->TriggerCallback(htim);
#else
      HAL_TIM_TriggerCallback(htim);
 80025e0:	6878      	ldr	r0, [r7, #4]
 80025e2:	f000 f9c1 	bl	8002968 <HAL_TIM_TriggerCallback>
#endif /* USE_HAL_TIM_REGISTER_CALLBACKS */
    }
  }
  /* TIM commutation event */
  if (__HAL_TIM_GET_FLAG(htim, TIM_FLAG_COM) != RESET)
 80025e6:	687b      	ldr	r3, [r7, #4]
 80025e8:	681b      	ldr	r3, [r3, #0]
 80025ea:	691b      	ldr	r3, [r3, #16]
 80025ec:	f003 0320 	and.w	r3, r3, #32
 80025f0:	2b20      	cmp	r3, #32
 80025f2:	d10e      	bne.n	8002612 <HAL_TIM_IRQHandler+0x208>
  {
    if (__HAL_TIM_GET_IT_SOURCE(htim, TIM_IT_COM) != RESET)
 80025f4:	687b      	ldr	r3, [r7, #4]
 80025f6:	681b      	ldr	r3, [r3, #0]
 80025f8:	68db      	ldr	r3, [r3, #12]
 80025fa:	f003 0320 	and.w	r3, r3, #32
 80025fe:	2b20      	cmp	r3, #32
 8002600:	d107      	bne.n	8002612 <HAL_TIM_IRQHandler+0x208>
    {
      __HAL_TIM_CLEAR_IT(htim, TIM_FLAG_COM);
 8002602:	687b      	ldr	r3, [r7, #4]
 8002604:	681b      	ldr	r3, [r3, #0]
 8002606:	f06f 0220 	mvn.w	r2, #32
 800260a:	611a      	str	r2, [r3, #16]
#if (USE_HAL_TIM_REGISTER_CALLBACKS == 1)
      htim->CommutationCallback(htim);
#else
      HAL_TIMEx_CommutCallback(htim);
 800260c:	6878      	ldr	r0, [r7, #4]
 800260e:	f000 fc93 	bl	8002f38 <HAL_TIMEx_CommutCallback>
#endif /* USE_HAL_TIM_REGISTER_CALLBACKS */
    }
  }
}
 8002612:	bf00      	nop
 8002614:	3708      	adds	r7, #8
 8002616:	46bd      	mov	sp, r7
 8002618:	bd80      	pop	{r7, pc}
	...

0800261c <HAL_TIM_PWM_ConfigChannel>:
  * @retval HAL status
  */
HAL_StatusTypeDef HAL_TIM_PWM_ConfigChannel(TIM_HandleTypeDef *htim,
                                            TIM_OC_InitTypeDef *sConfig,
                                            uint32_t Channel)
{
 800261c:	b580      	push	{r7, lr}
 800261e:	b084      	sub	sp, #16
 8002620:	af00      	add	r7, sp, #0
 8002622:	60f8      	str	r0, [r7, #12]
 8002624:	60b9      	str	r1, [r7, #8]
 8002626:	607a      	str	r2, [r7, #4]
  assert_param(IS_TIM_PWM_MODE(sConfig->OCMode));
  assert_param(IS_TIM_OC_POLARITY(sConfig->OCPolarity));
  assert_param(IS_TIM_FAST_STATE(sConfig->OCFastMode));

  /* Process Locked */
  __HAL_LOCK(htim);
 8002628:	68fb      	ldr	r3, [r7, #12]
 800262a:	f893 303c 	ldrb.w	r3, [r3, #60]	; 0x3c
 800262e:	2b01      	cmp	r3, #1
 8002630:	d101      	bne.n	8002636 <HAL_TIM_PWM_ConfigChannel+0x1a>
 8002632:	2302      	movs	r3, #2
 8002634:	e0ac      	b.n	8002790 <HAL_TIM_PWM_ConfigChannel+0x174>
 8002636:	68fb      	ldr	r3, [r7, #12]
 8002638:	2201      	movs	r2, #1
 800263a:	f883 203c 	strb.w	r2, [r3, #60]	; 0x3c
 800263e:	687b      	ldr	r3, [r7, #4]
 8002640:	2b0c      	cmp	r3, #12
 8002642:	f200 809f 	bhi.w	8002784 <HAL_TIM_PWM_ConfigChannel+0x168>
 8002646:	a201      	add	r2, pc, #4	; (adr r2, 800264c <HAL_TIM_PWM_ConfigChannel+0x30>)
 8002648:	f852 f023 	ldr.w	pc, [r2, r3, lsl #2]
 800264c:	08002681 	.word	0x08002681
 8002650:	08002785 	.word	0x08002785
 8002654:	08002785 	.word	0x08002785
 8002658:	08002785 	.word	0x08002785
 800265c:	080026c1 	.word	0x080026c1
 8002660:	08002785 	.word	0x08002785
 8002664:	08002785 	.word	0x08002785
 8002668:	08002785 	.word	0x08002785
 800266c:	08002703 	.word	0x08002703
 8002670:	08002785 	.word	0x08002785
 8002674:	08002785 	.word	0x08002785
 8002678:	08002785 	.word	0x08002785
 800267c:	08002743 	.word	0x08002743
    {
      /* Check the parameters */
      assert_param(IS_TIM_CC1_INSTANCE(htim->Instance));

      /* Configure the Channel 1 in PWM mode */
      TIM_OC1_SetConfig(htim->Instance, sConfig);
 8002680:	68fb      	ldr	r3, [r7, #12]
 8002682:	681b      	ldr	r3, [r3, #0]
 8002684:	68b9      	ldr	r1, [r7, #8]
 8002686:	4618      	mov	r0, r3
 8002688:	f000 f9da 	bl	8002a40 <TIM_OC1_SetConfig>

      /* Set the Preload enable bit for channel1 */
      htim->Instance->CCMR1 |= TIM_CCMR1_OC1PE;
 800268c:	68fb      	ldr	r3, [r7, #12]
 800268e:	681b      	ldr	r3, [r3, #0]
 8002690:	699a      	ldr	r2, [r3, #24]
 8002692:	68fb      	ldr	r3, [r7, #12]
 8002694:	681b      	ldr	r3, [r3, #0]
 8002696:	f042 0208 	orr.w	r2, r2, #8
 800269a:	619a      	str	r2, [r3, #24]

      /* Configure the Output Fast mode */
      htim->Instance->CCMR1 &= ~TIM_CCMR1_OC1FE;
 800269c:	68fb      	ldr	r3, [r7, #12]
 800269e:	681b      	ldr	r3, [r3, #0]
 80026a0:	699a      	ldr	r2, [r3, #24]
 80026a2:	68fb      	ldr	r3, [r7, #12]
 80026a4:	681b      	ldr	r3, [r3, #0]
 80026a6:	f022 0204 	bic.w	r2, r2, #4
 80026aa:	619a      	str	r2, [r3, #24]
      htim->Instance->CCMR1 |= sConfig->OCFastMode;
 80026ac:	68fb      	ldr	r3, [r7, #12]
 80026ae:	681b      	ldr	r3, [r3, #0]
 80026b0:	6999      	ldr	r1, [r3, #24]
 80026b2:	68bb      	ldr	r3, [r7, #8]
 80026b4:	691a      	ldr	r2, [r3, #16]
 80026b6:	68fb      	ldr	r3, [r7, #12]
 80026b8:	681b      	ldr	r3, [r3, #0]
 80026ba:	430a      	orrs	r2, r1
 80026bc:	619a      	str	r2, [r3, #24]
      break;
 80026be:	e062      	b.n	8002786 <HAL_TIM_PWM_ConfigChannel+0x16a>
    {
      /* Check the parameters */
      assert_param(IS_TIM_CC2_INSTANCE(htim->Instance));

      /* Configure the Channel 2 in PWM mode */
      TIM_OC2_SetConfig(htim->Instance, sConfig);
 80026c0:	68fb      	ldr	r3, [r7, #12]
 80026c2:	681b      	ldr	r3, [r3, #0]
 80026c4:	68b9      	ldr	r1, [r7, #8]
 80026c6:	4618      	mov	r0, r3
 80026c8:	f000 fa20 	bl	8002b0c <TIM_OC2_SetConfig>

      /* Set the Preload enable bit for channel2 */
      htim->Instance->CCMR1 |= TIM_CCMR1_OC2PE;
 80026cc:	68fb      	ldr	r3, [r7, #12]
 80026ce:	681b      	ldr	r3, [r3, #0]
 80026d0:	699a      	ldr	r2, [r3, #24]
 80026d2:	68fb      	ldr	r3, [r7, #12]
 80026d4:	681b      	ldr	r3, [r3, #0]
 80026d6:	f442 6200 	orr.w	r2, r2, #2048	; 0x800
 80026da:	619a      	str	r2, [r3, #24]

      /* Configure the Output Fast mode */
      htim->Instance->CCMR1 &= ~TIM_CCMR1_OC2FE;
 80026dc:	68fb      	ldr	r3, [r7, #12]
 80026de:	681b      	ldr	r3, [r3, #0]
 80026e0:	699a      	ldr	r2, [r3, #24]
 80026e2:	68fb      	ldr	r3, [r7, #12]
 80026e4:	681b      	ldr	r3, [r3, #0]
 80026e6:	f422 6280 	bic.w	r2, r2, #1024	; 0x400
 80026ea:	619a      	str	r2, [r3, #24]
      htim->Instance->CCMR1 |= sConfig->OCFastMode << 8U;
 80026ec:	68fb      	ldr	r3, [r7, #12]
 80026ee:	681b      	ldr	r3, [r3, #0]
 80026f0:	6999      	ldr	r1, [r3, #24]
 80026f2:	68bb      	ldr	r3, [r7, #8]
 80026f4:	691b      	ldr	r3, [r3, #16]
 80026f6:	021a      	lsls	r2, r3, #8
 80026f8:	68fb      	ldr	r3, [r7, #12]
 80026fa:	681b      	ldr	r3, [r3, #0]
 80026fc:	430a      	orrs	r2, r1
 80026fe:	619a      	str	r2, [r3, #24]
      break;
 8002700:	e041      	b.n	8002786 <HAL_TIM_PWM_ConfigChannel+0x16a>
    {
      /* Check the parameters */
      assert_param(IS_TIM_CC3_INSTANCE(htim->Instance));

      /* Configure the Channel 3 in PWM mode */
      TIM_OC3_SetConfig(htim->Instance, sConfig);
 8002702:	68fb      	ldr	r3, [r7, #12]
 8002704:	681b      	ldr	r3, [r3, #0]
 8002706:	68b9      	ldr	r1, [r7, #8]
 8002708:	4618      	mov	r0, r3
 800270a:	f000 fa69 	bl	8002be0 <TIM_OC3_SetConfig>

      /* Set the Preload enable bit for channel3 */
      htim->Instance->CCMR2 |= TIM_CCMR2_OC3PE;
 800270e:	68fb      	ldr	r3, [r7, #12]
 8002710:	681b      	ldr	r3, [r3, #0]
 8002712:	69da      	ldr	r2, [r3, #28]
 8002714:	68fb      	ldr	r3, [r7, #12]
 8002716:	681b      	ldr	r3, [r3, #0]
 8002718:	f042 0208 	orr.w	r2, r2, #8
 800271c:	61da      	str	r2, [r3, #28]

      /* Configure the Output Fast mode */
      htim->Instance->CCMR2 &= ~TIM_CCMR2_OC3FE;
 800271e:	68fb      	ldr	r3, [r7, #12]
 8002720:	681b      	ldr	r3, [r3, #0]
 8002722:	69da      	ldr	r2, [r3, #28]
 8002724:	68fb      	ldr	r3, [r7, #12]
 8002726:	681b      	ldr	r3, [r3, #0]
 8002728:	f022 0204 	bic.w	r2, r2, #4
 800272c:	61da      	str	r2, [r3, #28]
      htim->Instance->CCMR2 |= sConfig->OCFastMode;
 800272e:	68fb      	ldr	r3, [r7, #12]
 8002730:	681b      	ldr	r3, [r3, #0]
 8002732:	69d9      	ldr	r1, [r3, #28]
 8002734:	68bb      	ldr	r3, [r7, #8]
 8002736:	691a      	ldr	r2, [r3, #16]
 8002738:	68fb      	ldr	r3, [r7, #12]
 800273a:	681b      	ldr	r3, [r3, #0]
 800273c:	430a      	orrs	r2, r1
 800273e:	61da      	str	r2, [r3, #28]
      break;
 8002740:	e021      	b.n	8002786 <HAL_TIM_PWM_ConfigChannel+0x16a>
    {
      /* Check the parameters */
      assert_param(IS_TIM_CC4_INSTANCE(htim->Instance));

      /* Configure the Channel 4 in PWM mode */
      TIM_OC4_SetConfig(htim->Instance, sConfig);
 8002742:	68fb      	ldr	r3, [r7, #12]
 8002744:	681b      	ldr	r3, [r3, #0]
 8002746:	68b9      	ldr	r1, [r7, #8]
 8002748:	4618      	mov	r0, r3
 800274a:	f000 fab3 	bl	8002cb4 <TIM_OC4_SetConfig>

      /* Set the Preload enable bit for channel4 */
      htim->Instance->CCMR2 |= TIM_CCMR2_OC4PE;
 800274e:	68fb      	ldr	r3, [r7, #12]
 8002750:	681b      	ldr	r3, [r3, #0]
 8002752:	69da      	ldr	r2, [r3, #28]
 8002754:	68fb      	ldr	r3, [r7, #12]
 8002756:	681b      	ldr	r3, [r3, #0]
 8002758:	f442 6200 	orr.w	r2, r2, #2048	; 0x800
 800275c:	61da      	str	r2, [r3, #28]

      /* Configure the Output Fast mode */
      htim->Instance->CCMR2 &= ~TIM_CCMR2_OC4FE;
 800275e:	68fb      	ldr	r3, [r7, #12]
 8002760:	681b      	ldr	r3, [r3, #0]
 8002762:	69da      	ldr	r2, [r3, #28]
 8002764:	68fb      	ldr	r3, [r7, #12]
 8002766:	681b      	ldr	r3, [r3, #0]
 8002768:	f422 6280 	bic.w	r2, r2, #1024	; 0x400
 800276c:	61da      	str	r2, [r3, #28]
      htim->Instance->CCMR2 |= sConfig->OCFastMode << 8U;
 800276e:	68fb      	ldr	r3, [r7, #12]
 8002770:	681b      	ldr	r3, [r3, #0]
 8002772:	69d9      	ldr	r1, [r3, #28]
 8002774:	68bb      	ldr	r3, [r7, #8]
 8002776:	691b      	ldr	r3, [r3, #16]
 8002778:	021a      	lsls	r2, r3, #8
 800277a:	68fb      	ldr	r3, [r7, #12]
 800277c:	681b      	ldr	r3, [r3, #0]
 800277e:	430a      	orrs	r2, r1
 8002780:	61da      	str	r2, [r3, #28]
      break;
 8002782:	e000      	b.n	8002786 <HAL_TIM_PWM_ConfigChannel+0x16a>
    }

    default:
      break;
 8002784:	bf00      	nop
  }

  __HAL_UNLOCK(htim);
 8002786:	68fb      	ldr	r3, [r7, #12]
 8002788:	2200      	movs	r2, #0
 800278a:	f883 203c 	strb.w	r2, [r3, #60]	; 0x3c

  return HAL_OK;
 800278e:	2300      	movs	r3, #0
}
 8002790:	4618      	mov	r0, r3
 8002792:	3710      	adds	r7, #16
 8002794:	46bd      	mov	sp, r7
 8002796:	bd80      	pop	{r7, pc}

08002798 <HAL_TIM_ConfigClockSource>:
  * @param  sClockSourceConfig pointer to a TIM_ClockConfigTypeDef structure that
  *         contains the clock source information for the TIM peripheral.
  * @retval HAL status
  */
HAL_StatusTypeDef HAL_TIM_ConfigClockSource(TIM_HandleTypeDef *htim, TIM_ClockConfigTypeDef *sClockSourceConfig)
{
 8002798:	b580      	push	{r7, lr}
 800279a:	b084      	sub	sp, #16
 800279c:	af00      	add	r7, sp, #0
 800279e:	6078      	str	r0, [r7, #4]
 80027a0:	6039      	str	r1, [r7, #0]
  uint32_t tmpsmcr;

  /* Process Locked */
  __HAL_LOCK(htim);
 80027a2:	687b      	ldr	r3, [r7, #4]
 80027a4:	f893 303c 	ldrb.w	r3, [r3, #60]	; 0x3c
 80027a8:	2b01      	cmp	r3, #1
 80027aa:	d101      	bne.n	80027b0 <HAL_TIM_ConfigClockSource+0x18>
 80027ac:	2302      	movs	r3, #2
 80027ae:	e0b3      	b.n	8002918 <HAL_TIM_ConfigClockSource+0x180>
 80027b0:	687b      	ldr	r3, [r7, #4]
 80027b2:	2201      	movs	r2, #1
 80027b4:	f883 203c 	strb.w	r2, [r3, #60]	; 0x3c

  htim->State = HAL_TIM_STATE_BUSY;
 80027b8:	687b      	ldr	r3, [r7, #4]
 80027ba:	2202      	movs	r2, #2
 80027bc:	f883 203d 	strb.w	r2, [r3, #61]	; 0x3d

  /* Check the parameters */
  assert_param(IS_TIM_CLOCKSOURCE(sClockSourceConfig->ClockSource));

  /* Reset the SMS, TS, ECE, ETPS and ETRF bits */
  tmpsmcr = htim->Instance->SMCR;
 80027c0:	687b      	ldr	r3, [r7, #4]
 80027c2:	681b      	ldr	r3, [r3, #0]
 80027c4:	689b      	ldr	r3, [r3, #8]
 80027c6:	60fb      	str	r3, [r7, #12]
  tmpsmcr &= ~(TIM_SMCR_SMS | TIM_SMCR_TS);
 80027c8:	68fb      	ldr	r3, [r7, #12]
 80027ca:	f023 0377 	bic.w	r3, r3, #119	; 0x77
 80027ce:	60fb      	str	r3, [r7, #12]
  tmpsmcr &= ~(TIM_SMCR_ETF | TIM_SMCR_ETPS | TIM_SMCR_ECE | TIM_SMCR_ETP);
 80027d0:	68fb      	ldr	r3, [r7, #12]
 80027d2:	f423 437f 	bic.w	r3, r3, #65280	; 0xff00
 80027d6:	60fb      	str	r3, [r7, #12]
  htim->Instance->SMCR = tmpsmcr;
 80027d8:	687b      	ldr	r3, [r7, #4]
 80027da:	681b      	ldr	r3, [r3, #0]
 80027dc:	68fa      	ldr	r2, [r7, #12]
 80027de:	609a      	str	r2, [r3, #8]

  switch (sClockSourceConfig->ClockSource)
 80027e0:	683b      	ldr	r3, [r7, #0]
 80027e2:	681b      	ldr	r3, [r3, #0]
 80027e4:	f5b3 5f00 	cmp.w	r3, #8192	; 0x2000
 80027e8:	d03e      	beq.n	8002868 <HAL_TIM_ConfigClockSource+0xd0>
 80027ea:	f5b3 5f00 	cmp.w	r3, #8192	; 0x2000
 80027ee:	f200 8087 	bhi.w	8002900 <HAL_TIM_ConfigClockSource+0x168>
 80027f2:	f5b3 5f80 	cmp.w	r3, #4096	; 0x1000
 80027f6:	f000 8085 	beq.w	8002904 <HAL_TIM_ConfigClockSource+0x16c>
 80027fa:	f5b3 5f80 	cmp.w	r3, #4096	; 0x1000
 80027fe:	d87f      	bhi.n	8002900 <HAL_TIM_ConfigClockSource+0x168>
 8002800:	2b70      	cmp	r3, #112	; 0x70
 8002802:	d01a      	beq.n	800283a <HAL_TIM_ConfigClockSource+0xa2>
 8002804:	2b70      	cmp	r3, #112	; 0x70
 8002806:	d87b      	bhi.n	8002900 <HAL_TIM_ConfigClockSource+0x168>
 8002808:	2b60      	cmp	r3, #96	; 0x60
 800280a:	d050      	beq.n	80028ae <HAL_TIM_ConfigClockSource+0x116>
 800280c:	2b60      	cmp	r3, #96	; 0x60
 800280e:	d877      	bhi.n	8002900 <HAL_TIM_ConfigClockSource+0x168>
 8002810:	2b50      	cmp	r3, #80	; 0x50
 8002812:	d03c      	beq.n	800288e <HAL_TIM_ConfigClockSource+0xf6>
 8002814:	2b50      	cmp	r3, #80	; 0x50
 8002816:	d873      	bhi.n	8002900 <HAL_TIM_ConfigClockSource+0x168>
 8002818:	2b40      	cmp	r3, #64	; 0x40
 800281a:	d058      	beq.n	80028ce <HAL_TIM_ConfigClockSource+0x136>
 800281c:	2b40      	cmp	r3, #64	; 0x40
 800281e:	d86f      	bhi.n	8002900 <HAL_TIM_ConfigClockSource+0x168>
 8002820:	2b30      	cmp	r3, #48	; 0x30
 8002822:	d064      	beq.n	80028ee <HAL_TIM_ConfigClockSource+0x156>
 8002824:	2b30      	cmp	r3, #48	; 0x30
 8002826:	d86b      	bhi.n	8002900 <HAL_TIM_ConfigClockSource+0x168>
 8002828:	2b20      	cmp	r3, #32
 800282a:	d060      	beq.n	80028ee <HAL_TIM_ConfigClockSource+0x156>
 800282c:	2b20      	cmp	r3, #32
 800282e:	d867      	bhi.n	8002900 <HAL_TIM_ConfigClockSource+0x168>
 8002830:	2b00      	cmp	r3, #0
 8002832:	d05c      	beq.n	80028ee <HAL_TIM_ConfigClockSource+0x156>
 8002834:	2b10      	cmp	r3, #16
 8002836:	d05a      	beq.n	80028ee <HAL_TIM_ConfigClockSource+0x156>
        TIM_ITRx_SetConfig(htim->Instance, sClockSourceConfig->ClockSource);
        break;
      }

    default:
      break;
 8002838:	e062      	b.n	8002900 <HAL_TIM_ConfigClockSource+0x168>
      TIM_ETR_SetConfig(htim->Instance,
 800283a:	687b      	ldr	r3, [r7, #4]
 800283c:	6818      	ldr	r0, [r3, #0]
 800283e:	683b      	ldr	r3, [r7, #0]
 8002840:	6899      	ldr	r1, [r3, #8]
 8002842:	683b      	ldr	r3, [r7, #0]
 8002844:	685a      	ldr	r2, [r3, #4]
 8002846:	683b      	ldr	r3, [r7, #0]
 8002848:	68db      	ldr	r3, [r3, #12]
 800284a:	f000 faf8 	bl	8002e3e <TIM_ETR_SetConfig>
      tmpsmcr = htim->Instance->SMCR;
 800284e:	687b      	ldr	r3, [r7, #4]
 8002850:	681b      	ldr	r3, [r3, #0]
 8002852:	689b      	ldr	r3, [r3, #8]
 8002854:	60fb      	str	r3, [r7, #12]
      tmpsmcr |= (TIM_SLAVEMODE_EXTERNAL1 | TIM_CLOCKSOURCE_ETRMODE1);
 8002856:	68fb      	ldr	r3, [r7, #12]
 8002858:	f043 0377 	orr.w	r3, r3, #119	; 0x77
 800285c:	60fb      	str	r3, [r7, #12]
      htim->Instance->SMCR = tmpsmcr;
 800285e:	687b      	ldr	r3, [r7, #4]
 8002860:	681b      	ldr	r3, [r3, #0]
 8002862:	68fa      	ldr	r2, [r7, #12]
 8002864:	609a      	str	r2, [r3, #8]
      break;
 8002866:	e04e      	b.n	8002906 <HAL_TIM_ConfigClockSource+0x16e>
      TIM_ETR_SetConfig(htim->Instance,
 8002868:	687b      	ldr	r3, [r7, #4]
 800286a:	6818      	ldr	r0, [r3, #0]
 800286c:	683b      	ldr	r3, [r7, #0]
 800286e:	6899      	ldr	r1, [r3, #8]
 8002870:	683b      	ldr	r3, [r7, #0]
 8002872:	685a      	ldr	r2, [r3, #4]
 8002874:	683b      	ldr	r3, [r7, #0]
 8002876:	68db      	ldr	r3, [r3, #12]
 8002878:	f000 fae1 	bl	8002e3e <TIM_ETR_SetConfig>
      htim->Instance->SMCR |= TIM_SMCR_ECE;
 800287c:	687b      	ldr	r3, [r7, #4]
 800287e:	681b      	ldr	r3, [r3, #0]
 8002880:	689a      	ldr	r2, [r3, #8]
 8002882:	687b      	ldr	r3, [r7, #4]
 8002884:	681b      	ldr	r3, [r3, #0]
 8002886:	f442 4280 	orr.w	r2, r2, #16384	; 0x4000
 800288a:	609a      	str	r2, [r3, #8]
      break;
 800288c:	e03b      	b.n	8002906 <HAL_TIM_ConfigClockSource+0x16e>
      TIM_TI1_ConfigInputStage(htim->Instance,
 800288e:	687b      	ldr	r3, [r7, #4]
 8002890:	6818      	ldr	r0, [r3, #0]
 8002892:	683b      	ldr	r3, [r7, #0]
 8002894:	6859      	ldr	r1, [r3, #4]
 8002896:	683b      	ldr	r3, [r7, #0]
 8002898:	68db      	ldr	r3, [r3, #12]
 800289a:	461a      	mov	r2, r3
 800289c:	f000 fa58 	bl	8002d50 <TIM_TI1_ConfigInputStage>
      TIM_ITRx_SetConfig(htim->Instance, TIM_CLOCKSOURCE_TI1);
 80028a0:	687b      	ldr	r3, [r7, #4]
 80028a2:	681b      	ldr	r3, [r3, #0]
 80028a4:	2150      	movs	r1, #80	; 0x50
 80028a6:	4618      	mov	r0, r3
 80028a8:	f000 faaf 	bl	8002e0a <TIM_ITRx_SetConfig>
      break;
 80028ac:	e02b      	b.n	8002906 <HAL_TIM_ConfigClockSource+0x16e>
      TIM_TI2_ConfigInputStage(htim->Instance,
 80028ae:	687b      	ldr	r3, [r7, #4]
 80028b0:	6818      	ldr	r0, [r3, #0]
 80028b2:	683b      	ldr	r3, [r7, #0]
 80028b4:	6859      	ldr	r1, [r3, #4]
 80028b6:	683b      	ldr	r3, [r7, #0]
 80028b8:	68db      	ldr	r3, [r3, #12]
 80028ba:	461a      	mov	r2, r3
 80028bc:	f000 fa76 	bl	8002dac <TIM_TI2_ConfigInputStage>
      TIM_ITRx_SetConfig(htim->Instance, TIM_CLOCKSOURCE_TI2);
 80028c0:	687b      	ldr	r3, [r7, #4]
 80028c2:	681b      	ldr	r3, [r3, #0]
 80028c4:	2160      	movs	r1, #96	; 0x60
 80028c6:	4618      	mov	r0, r3
 80028c8:	f000 fa9f 	bl	8002e0a <TIM_ITRx_SetConfig>
      break;
 80028cc:	e01b      	b.n	8002906 <HAL_TIM_ConfigClockSource+0x16e>
      TIM_TI1_ConfigInputStage(htim->Instance,
 80028ce:	687b      	ldr	r3, [r7, #4]
 80028d0:	6818      	ldr	r0, [r3, #0]
 80028d2:	683b      	ldr	r3, [r7, #0]
 80028d4:	6859      	ldr	r1, [r3, #4]
 80028d6:	683b      	ldr	r3, [r7, #0]
 80028d8:	68db      	ldr	r3, [r3, #12]
 80028da:	461a      	mov	r2, r3
 80028dc:	f000 fa38 	bl	8002d50 <TIM_TI1_ConfigInputStage>
      TIM_ITRx_SetConfig(htim->Instance, TIM_CLOCKSOURCE_TI1ED);
 80028e0:	687b      	ldr	r3, [r7, #4]
 80028e2:	681b      	ldr	r3, [r3, #0]
 80028e4:	2140      	movs	r1, #64	; 0x40
 80028e6:	4618      	mov	r0, r3
 80028e8:	f000 fa8f 	bl	8002e0a <TIM_ITRx_SetConfig>
      break;
 80028ec:	e00b      	b.n	8002906 <HAL_TIM_ConfigClockSource+0x16e>
        TIM_ITRx_SetConfig(htim->Instance, sClockSourceConfig->ClockSource);
 80028ee:	687b      	ldr	r3, [r7, #4]
 80028f0:	681a      	ldr	r2, [r3, #0]
 80028f2:	683b      	ldr	r3, [r7, #0]
 80028f4:	681b      	ldr	r3, [r3, #0]
 80028f6:	4619      	mov	r1, r3
 80028f8:	4610      	mov	r0, r2
 80028fa:	f000 fa86 	bl	8002e0a <TIM_ITRx_SetConfig>
        break;
 80028fe:	e002      	b.n	8002906 <HAL_TIM_ConfigClockSource+0x16e>
      break;
 8002900:	bf00      	nop
 8002902:	e000      	b.n	8002906 <HAL_TIM_ConfigClockSource+0x16e>
      break;
 8002904:	bf00      	nop
  }
  htim->State = HAL_TIM_STATE_READY;
 8002906:	687b      	ldr	r3, [r7, #4]
 8002908:	2201      	movs	r2, #1
 800290a:	f883 203d 	strb.w	r2, [r3, #61]	; 0x3d

  __HAL_UNLOCK(htim);
 800290e:	687b      	ldr	r3, [r7, #4]
 8002910:	2200      	movs	r2, #0
 8002912:	f883 203c 	strb.w	r2, [r3, #60]	; 0x3c

  return HAL_OK;
 8002916:	2300      	movs	r3, #0
}
 8002918:	4618      	mov	r0, r3
 800291a:	3710      	adds	r7, #16
 800291c:	46bd      	mov	sp, r7
 800291e:	bd80      	pop	{r7, pc}

08002920 <HAL_TIM_PeriodElapsedCallback>:
  * @brief  Period elapsed callback in non-blocking mode
  * @param  htim TIM handle
  * @retval None
  */
__weak void HAL_TIM_PeriodElapsedCallback(TIM_HandleTypeDef *htim)
{
 8002920:	b480      	push	{r7}
 8002922:	b083      	sub	sp, #12
 8002924:	af00      	add	r7, sp, #0
 8002926:	6078      	str	r0, [r7, #4]
  UNUSED(htim);

  /* NOTE : This function should not be modified, when the callback is needed,
            the HAL_TIM_PeriodElapsedCallback could be implemented in the user file
   */
}
 8002928:	bf00      	nop
 800292a:	370c      	adds	r7, #12
 800292c:	46bd      	mov	sp, r7
 800292e:	bc80      	pop	{r7}
 8002930:	4770      	bx	lr

08002932 <HAL_TIM_OC_DelayElapsedCallback>:
  * @brief  Output Compare callback in non-blocking mode
  * @param  htim TIM OC handle
  * @retval None
  */
__weak void HAL_TIM_OC_DelayElapsedCallback(TIM_HandleTypeDef *htim)
{
 8002932:	b480      	push	{r7}
 8002934:	b083      	sub	sp, #12
 8002936:	af00      	add	r7, sp, #0
 8002938:	6078      	str	r0, [r7, #4]
  UNUSED(htim);

  /* NOTE : This function should not be modified, when the callback is needed,
            the HAL_TIM_OC_DelayElapsedCallback could be implemented in the user file
   */
}
 800293a:	bf00      	nop
 800293c:	370c      	adds	r7, #12
 800293e:	46bd      	mov	sp, r7
 8002940:	bc80      	pop	{r7}
 8002942:	4770      	bx	lr

08002944 <HAL_TIM_IC_CaptureCallback>:
  * @brief  Input Capture callback in non-blocking mode
  * @param  htim TIM IC handle
  * @retval None
  */
__weak void HAL_TIM_IC_CaptureCallback(TIM_HandleTypeDef *htim)
{
 8002944:	b480      	push	{r7}
 8002946:	b083      	sub	sp, #12
 8002948:	af00      	add	r7, sp, #0
 800294a:	6078      	str	r0, [r7, #4]
  UNUSED(htim);

  /* NOTE : This function should not be modified, when the callback is needed,
            the HAL_TIM_IC_CaptureCallback could be implemented in the user file
   */
}
 800294c:	bf00      	nop
 800294e:	370c      	adds	r7, #12
 8002950:	46bd      	mov	sp, r7
 8002952:	bc80      	pop	{r7}
 8002954:	4770      	bx	lr

08002956 <HAL_TIM_PWM_PulseFinishedCallback>:
  * @brief  PWM Pulse finished callback in non-blocking mode
  * @param  htim TIM handle
  * @retval None
  */
__weak void HAL_TIM_PWM_PulseFinishedCallback(TIM_HandleTypeDef *htim)
{
 8002956:	b480      	push	{r7}
 8002958:	b083      	sub	sp, #12
 800295a:	af00      	add	r7, sp, #0
 800295c:	6078      	str	r0, [r7, #4]
  UNUSED(htim);

  /* NOTE : This function should not be modified, when the callback is needed,
            the HAL_TIM_PWM_PulseFinishedCallback could be implemented in the user file
   */
}
 800295e:	bf00      	nop
 8002960:	370c      	adds	r7, #12
 8002962:	46bd      	mov	sp, r7
 8002964:	bc80      	pop	{r7}
 8002966:	4770      	bx	lr

08002968 <HAL_TIM_TriggerCallback>:
  * @brief  Hall Trigger detection callback in non-blocking mode
  * @param  htim TIM handle
  * @retval None
  */
__weak void HAL_TIM_TriggerCallback(TIM_HandleTypeDef *htim)
{
 8002968:	b480      	push	{r7}
 800296a:	b083      	sub	sp, #12
 800296c:	af00      	add	r7, sp, #0
 800296e:	6078      	str	r0, [r7, #4]
  UNUSED(htim);

  /* NOTE : This function should not be modified, when the callback is needed,
            the HAL_TIM_TriggerCallback could be implemented in the user file
   */
}
 8002970:	bf00      	nop
 8002972:	370c      	adds	r7, #12
 8002974:	46bd      	mov	sp, r7
 8002976:	bc80      	pop	{r7}
 8002978:	4770      	bx	lr
	...

0800297c <TIM_Base_SetConfig>:
  * @param  TIMx TIM peripheral
  * @param  Structure TIM Base configuration structure
  * @retval None
  */
void TIM_Base_SetConfig(TIM_TypeDef *TIMx, TIM_Base_InitTypeDef *Structure)
{
 800297c:	b480      	push	{r7}
 800297e:	b085      	sub	sp, #20
 8002980:	af00      	add	r7, sp, #0
 8002982:	6078      	str	r0, [r7, #4]
 8002984:	6039      	str	r1, [r7, #0]
  uint32_t tmpcr1;
  tmpcr1 = TIMx->CR1;
 8002986:	687b      	ldr	r3, [r7, #4]
 8002988:	681b      	ldr	r3, [r3, #0]
 800298a:	60fb      	str	r3, [r7, #12]

  /* Set TIM Time Base Unit parameters ---------------------------------------*/
  if (IS_TIM_COUNTER_MODE_SELECT_INSTANCE(TIMx))
 800298c:	687b      	ldr	r3, [r7, #4]
 800298e:	4a29      	ldr	r2, [pc, #164]	; (8002a34 <TIM_Base_SetConfig+0xb8>)
 8002990:	4293      	cmp	r3, r2
 8002992:	d00b      	beq.n	80029ac <TIM_Base_SetConfig+0x30>
 8002994:	687b      	ldr	r3, [r7, #4]
 8002996:	f1b3 4f80 	cmp.w	r3, #1073741824	; 0x40000000
 800299a:	d007      	beq.n	80029ac <TIM_Base_SetConfig+0x30>
 800299c:	687b      	ldr	r3, [r7, #4]
 800299e:	4a26      	ldr	r2, [pc, #152]	; (8002a38 <TIM_Base_SetConfig+0xbc>)
 80029a0:	4293      	cmp	r3, r2
 80029a2:	d003      	beq.n	80029ac <TIM_Base_SetConfig+0x30>
 80029a4:	687b      	ldr	r3, [r7, #4]
 80029a6:	4a25      	ldr	r2, [pc, #148]	; (8002a3c <TIM_Base_SetConfig+0xc0>)
 80029a8:	4293      	cmp	r3, r2
 80029aa:	d108      	bne.n	80029be <TIM_Base_SetConfig+0x42>
  {
    /* Select the Counter Mode */
    tmpcr1 &= ~(TIM_CR1_DIR | TIM_CR1_CMS);
 80029ac:	68fb      	ldr	r3, [r7, #12]
 80029ae:	f023 0370 	bic.w	r3, r3, #112	; 0x70
 80029b2:	60fb      	str	r3, [r7, #12]
    tmpcr1 |= Structure->CounterMode;
 80029b4:	683b      	ldr	r3, [r7, #0]
 80029b6:	685b      	ldr	r3, [r3, #4]
 80029b8:	68fa      	ldr	r2, [r7, #12]
 80029ba:	4313      	orrs	r3, r2
 80029bc:	60fb      	str	r3, [r7, #12]
  }

  if (IS_TIM_CLOCK_DIVISION_INSTANCE(TIMx))
 80029be:	687b      	ldr	r3, [r7, #4]
 80029c0:	4a1c      	ldr	r2, [pc, #112]	; (8002a34 <TIM_Base_SetConfig+0xb8>)
 80029c2:	4293      	cmp	r3, r2
 80029c4:	d00b      	beq.n	80029de <TIM_Base_SetConfig+0x62>
 80029c6:	687b      	ldr	r3, [r7, #4]
 80029c8:	f1b3 4f80 	cmp.w	r3, #1073741824	; 0x40000000
 80029cc:	d007      	beq.n	80029de <TIM_Base_SetConfig+0x62>
 80029ce:	687b      	ldr	r3, [r7, #4]
 80029d0:	4a19      	ldr	r2, [pc, #100]	; (8002a38 <TIM_Base_SetConfig+0xbc>)
 80029d2:	4293      	cmp	r3, r2
 80029d4:	d003      	beq.n	80029de <TIM_Base_SetConfig+0x62>
 80029d6:	687b      	ldr	r3, [r7, #4]
 80029d8:	4a18      	ldr	r2, [pc, #96]	; (8002a3c <TIM_Base_SetConfig+0xc0>)
 80029da:	4293      	cmp	r3, r2
 80029dc:	d108      	bne.n	80029f0 <TIM_Base_SetConfig+0x74>
  {
    /* Set the clock division */
    tmpcr1 &= ~TIM_CR1_CKD;
 80029de:	68fb      	ldr	r3, [r7, #12]
 80029e0:	f423 7340 	bic.w	r3, r3, #768	; 0x300
 80029e4:	60fb      	str	r3, [r7, #12]
    tmpcr1 |= (uint32_t)Structure->ClockDivision;
 80029e6:	683b      	ldr	r3, [r7, #0]
 80029e8:	68db      	ldr	r3, [r3, #12]
 80029ea:	68fa      	ldr	r2, [r7, #12]
 80029ec:	4313      	orrs	r3, r2
 80029ee:	60fb      	str	r3, [r7, #12]
  }

  /* Set the auto-reload preload */
  MODIFY_REG(tmpcr1, TIM_CR1_ARPE, Structure->AutoReloadPreload);
 80029f0:	68fb      	ldr	r3, [r7, #12]
 80029f2:	f023 0280 	bic.w	r2, r3, #128	; 0x80
 80029f6:	683b      	ldr	r3, [r7, #0]
 80029f8:	695b      	ldr	r3, [r3, #20]
 80029fa:	4313      	orrs	r3, r2
 80029fc:	60fb      	str	r3, [r7, #12]

  TIMx->CR1 = tmpcr1;
 80029fe:	687b      	ldr	r3, [r7, #4]
 8002a00:	68fa      	ldr	r2, [r7, #12]
 8002a02:	601a      	str	r2, [r3, #0]

  /* Set the Autoreload value */
  TIMx->ARR = (uint32_t)Structure->Period ;
 8002a04:	683b      	ldr	r3, [r7, #0]
 8002a06:	689a      	ldr	r2, [r3, #8]
 8002a08:	687b      	ldr	r3, [r7, #4]
 8002a0a:	62da      	str	r2, [r3, #44]	; 0x2c

  /* Set the Prescaler value */
  TIMx->PSC = Structure->Prescaler;
 8002a0c:	683b      	ldr	r3, [r7, #0]
 8002a0e:	681a      	ldr	r2, [r3, #0]
 8002a10:	687b      	ldr	r3, [r7, #4]
 8002a12:	629a      	str	r2, [r3, #40]	; 0x28

  if (IS_TIM_REPETITION_COUNTER_INSTANCE(TIMx))
 8002a14:	687b      	ldr	r3, [r7, #4]
 8002a16:	4a07      	ldr	r2, [pc, #28]	; (8002a34 <TIM_Base_SetConfig+0xb8>)
 8002a18:	4293      	cmp	r3, r2
 8002a1a:	d103      	bne.n	8002a24 <TIM_Base_SetConfig+0xa8>
  {
    /* Set the Repetition Counter value */
    TIMx->RCR = Structure->RepetitionCounter;
 8002a1c:	683b      	ldr	r3, [r7, #0]
 8002a1e:	691a      	ldr	r2, [r3, #16]
 8002a20:	687b      	ldr	r3, [r7, #4]
 8002a22:	631a      	str	r2, [r3, #48]	; 0x30
  }

  /* Generate an update event to reload the Prescaler
     and the repetition counter (only for advanced timer) value immediately */
  TIMx->EGR = TIM_EGR_UG;
 8002a24:	687b      	ldr	r3, [r7, #4]
 8002a26:	2201      	movs	r2, #1
 8002a28:	615a      	str	r2, [r3, #20]
}
 8002a2a:	bf00      	nop
 8002a2c:	3714      	adds	r7, #20
 8002a2e:	46bd      	mov	sp, r7
 8002a30:	bc80      	pop	{r7}
 8002a32:	4770      	bx	lr
 8002a34:	40012c00 	.word	0x40012c00
 8002a38:	40000400 	.word	0x40000400
 8002a3c:	40000800 	.word	0x40000800

08002a40 <TIM_OC1_SetConfig>:
  * @param  TIMx to select the TIM peripheral
  * @param  OC_Config The output configuration structure
  * @retval None
  */
static void TIM_OC1_SetConfig(TIM_TypeDef *TIMx, TIM_OC_InitTypeDef *OC_Config)
{
 8002a40:	b480      	push	{r7}
 8002a42:	b087      	sub	sp, #28
 8002a44:	af00      	add	r7, sp, #0
 8002a46:	6078      	str	r0, [r7, #4]
 8002a48:	6039      	str	r1, [r7, #0]
  uint32_t tmpccmrx;
  uint32_t tmpccer;
  uint32_t tmpcr2;

  /* Disable the Channel 1: Reset the CC1E Bit */
  TIMx->CCER &= ~TIM_CCER_CC1E;
 8002a4a:	687b      	ldr	r3, [r7, #4]
 8002a4c:	6a1b      	ldr	r3, [r3, #32]
 8002a4e:	f023 0201 	bic.w	r2, r3, #1
 8002a52:	687b      	ldr	r3, [r7, #4]
 8002a54:	621a      	str	r2, [r3, #32]

  /* Get the TIMx CCER register value */
  tmpccer = TIMx->CCER;
 8002a56:	687b      	ldr	r3, [r7, #4]
 8002a58:	6a1b      	ldr	r3, [r3, #32]
 8002a5a:	617b      	str	r3, [r7, #20]
  /* Get the TIMx CR2 register value */
  tmpcr2 =  TIMx->CR2;
 8002a5c:	687b      	ldr	r3, [r7, #4]
 8002a5e:	685b      	ldr	r3, [r3, #4]
 8002a60:	613b      	str	r3, [r7, #16]

  /* Get the TIMx CCMR1 register value */
  tmpccmrx = TIMx->CCMR1;
 8002a62:	687b      	ldr	r3, [r7, #4]
 8002a64:	699b      	ldr	r3, [r3, #24]
 8002a66:	60fb      	str	r3, [r7, #12]

  /* Reset the Output Compare Mode Bits */
  tmpccmrx &= ~TIM_CCMR1_OC1M;
 8002a68:	68fb      	ldr	r3, [r7, #12]
 8002a6a:	f023 0370 	bic.w	r3, r3, #112	; 0x70
 8002a6e:	60fb      	str	r3, [r7, #12]
  tmpccmrx &= ~TIM_CCMR1_CC1S;
 8002a70:	68fb      	ldr	r3, [r7, #12]
 8002a72:	f023 0303 	bic.w	r3, r3, #3
 8002a76:	60fb      	str	r3, [r7, #12]
  /* Select the Output Compare Mode */
  tmpccmrx |= OC_Config->OCMode;
 8002a78:	683b      	ldr	r3, [r7, #0]
 8002a7a:	681b      	ldr	r3, [r3, #0]
 8002a7c:	68fa      	ldr	r2, [r7, #12]
 8002a7e:	4313      	orrs	r3, r2
 8002a80:	60fb      	str	r3, [r7, #12]

  /* Reset the Output Polarity level */
  tmpccer &= ~TIM_CCER_CC1P;
 8002a82:	697b      	ldr	r3, [r7, #20]
 8002a84:	f023 0302 	bic.w	r3, r3, #2
 8002a88:	617b      	str	r3, [r7, #20]
  /* Set the Output Compare Polarity */
  tmpccer |= OC_Config->OCPolarity;
 8002a8a:	683b      	ldr	r3, [r7, #0]
 8002a8c:	689b      	ldr	r3, [r3, #8]
 8002a8e:	697a      	ldr	r2, [r7, #20]
 8002a90:	4313      	orrs	r3, r2
 8002a92:	617b      	str	r3, [r7, #20]

  if (IS_TIM_CCXN_INSTANCE(TIMx, TIM_CHANNEL_1))
 8002a94:	687b      	ldr	r3, [r7, #4]
 8002a96:	4a1c      	ldr	r2, [pc, #112]	; (8002b08 <TIM_OC1_SetConfig+0xc8>)
 8002a98:	4293      	cmp	r3, r2
 8002a9a:	d10c      	bne.n	8002ab6 <TIM_OC1_SetConfig+0x76>
  {
    /* Check parameters */
    assert_param(IS_TIM_OCN_POLARITY(OC_Config->OCNPolarity));

    /* Reset the Output N Polarity level */
    tmpccer &= ~TIM_CCER_CC1NP;
 8002a9c:	697b      	ldr	r3, [r7, #20]
 8002a9e:	f023 0308 	bic.w	r3, r3, #8
 8002aa2:	617b      	str	r3, [r7, #20]
    /* Set the Output N Polarity */
    tmpccer |= OC_Config->OCNPolarity;
 8002aa4:	683b      	ldr	r3, [r7, #0]
 8002aa6:	68db      	ldr	r3, [r3, #12]
 8002aa8:	697a      	ldr	r2, [r7, #20]
 8002aaa:	4313      	orrs	r3, r2
 8002aac:	617b      	str	r3, [r7, #20]
    /* Reset the Output N State */
    tmpccer &= ~TIM_CCER_CC1NE;
 8002aae:	697b      	ldr	r3, [r7, #20]
 8002ab0:	f023 0304 	bic.w	r3, r3, #4
 8002ab4:	617b      	str	r3, [r7, #20]
  }

  if (IS_TIM_BREAK_INSTANCE(TIMx))
 8002ab6:	687b      	ldr	r3, [r7, #4]
 8002ab8:	4a13      	ldr	r2, [pc, #76]	; (8002b08 <TIM_OC1_SetConfig+0xc8>)
 8002aba:	4293      	cmp	r3, r2
 8002abc:	d111      	bne.n	8002ae2 <TIM_OC1_SetConfig+0xa2>
    /* Check parameters */
    assert_param(IS_TIM_OCNIDLE_STATE(OC_Config->OCNIdleState));
    assert_param(IS_TIM_OCIDLE_STATE(OC_Config->OCIdleState));

    /* Reset the Output Compare and Output Compare N IDLE State */
    tmpcr2 &= ~TIM_CR2_OIS1;
 8002abe:	693b      	ldr	r3, [r7, #16]
 8002ac0:	f423 7380 	bic.w	r3, r3, #256	; 0x100
 8002ac4:	613b      	str	r3, [r7, #16]
    tmpcr2 &= ~TIM_CR2_OIS1N;
 8002ac6:	693b      	ldr	r3, [r7, #16]
 8002ac8:	f423 7300 	bic.w	r3, r3, #512	; 0x200
 8002acc:	613b      	str	r3, [r7, #16]
    /* Set the Output Idle state */
    tmpcr2 |= OC_Config->OCIdleState;
 8002ace:	683b      	ldr	r3, [r7, #0]
 8002ad0:	695b      	ldr	r3, [r3, #20]
 8002ad2:	693a      	ldr	r2, [r7, #16]
 8002ad4:	4313      	orrs	r3, r2
 8002ad6:	613b      	str	r3, [r7, #16]
    /* Set the Output N Idle state */
    tmpcr2 |= OC_Config->OCNIdleState;
 8002ad8:	683b      	ldr	r3, [r7, #0]
 8002ada:	699b      	ldr	r3, [r3, #24]
 8002adc:	693a      	ldr	r2, [r7, #16]
 8002ade:	4313      	orrs	r3, r2
 8002ae0:	613b      	str	r3, [r7, #16]
  }

  /* Write to TIMx CR2 */
  TIMx->CR2 = tmpcr2;
 8002ae2:	687b      	ldr	r3, [r7, #4]
 8002ae4:	693a      	ldr	r2, [r7, #16]
 8002ae6:	605a      	str	r2, [r3, #4]

  /* Write to TIMx CCMR1 */
  TIMx->CCMR1 = tmpccmrx;
 8002ae8:	687b      	ldr	r3, [r7, #4]
 8002aea:	68fa      	ldr	r2, [r7, #12]
 8002aec:	619a      	str	r2, [r3, #24]

  /* Set the Capture Compare Register value */
  TIMx->CCR1 = OC_Config->Pulse;
 8002aee:	683b      	ldr	r3, [r7, #0]
 8002af0:	685a      	ldr	r2, [r3, #4]
 8002af2:	687b      	ldr	r3, [r7, #4]
 8002af4:	635a      	str	r2, [r3, #52]	; 0x34

  /* Write to TIMx CCER */
  TIMx->CCER = tmpccer;
 8002af6:	687b      	ldr	r3, [r7, #4]
 8002af8:	697a      	ldr	r2, [r7, #20]
 8002afa:	621a      	str	r2, [r3, #32]
}
 8002afc:	bf00      	nop
 8002afe:	371c      	adds	r7, #28
 8002b00:	46bd      	mov	sp, r7
 8002b02:	bc80      	pop	{r7}
 8002b04:	4770      	bx	lr
 8002b06:	bf00      	nop
 8002b08:	40012c00 	.word	0x40012c00

08002b0c <TIM_OC2_SetConfig>:
  * @param  TIMx to select the TIM peripheral
  * @param  OC_Config The output configuration structure
  * @retval None
  */
void TIM_OC2_SetConfig(TIM_TypeDef *TIMx, TIM_OC_InitTypeDef *OC_Config)
{
 8002b0c:	b480      	push	{r7}
 8002b0e:	b087      	sub	sp, #28
 8002b10:	af00      	add	r7, sp, #0
 8002b12:	6078      	str	r0, [r7, #4]
 8002b14:	6039      	str	r1, [r7, #0]
  uint32_t tmpccmrx;
  uint32_t tmpccer;
  uint32_t tmpcr2;

  /* Disable the Channel 2: Reset the CC2E Bit */
  TIMx->CCER &= ~TIM_CCER_CC2E;
 8002b16:	687b      	ldr	r3, [r7, #4]
 8002b18:	6a1b      	ldr	r3, [r3, #32]
 8002b1a:	f023 0210 	bic.w	r2, r3, #16
 8002b1e:	687b      	ldr	r3, [r7, #4]
 8002b20:	621a      	str	r2, [r3, #32]

  /* Get the TIMx CCER register value */
  tmpccer = TIMx->CCER;
 8002b22:	687b      	ldr	r3, [r7, #4]
 8002b24:	6a1b      	ldr	r3, [r3, #32]
 8002b26:	617b      	str	r3, [r7, #20]
  /* Get the TIMx CR2 register value */
  tmpcr2 =  TIMx->CR2;
 8002b28:	687b      	ldr	r3, [r7, #4]
 8002b2a:	685b      	ldr	r3, [r3, #4]
 8002b2c:	613b      	str	r3, [r7, #16]

  /* Get the TIMx CCMR1 register value */
  tmpccmrx = TIMx->CCMR1;
 8002b2e:	687b      	ldr	r3, [r7, #4]
 8002b30:	699b      	ldr	r3, [r3, #24]
 8002b32:	60fb      	str	r3, [r7, #12]

  /* Reset the Output Compare mode and Capture/Compare selection Bits */
  tmpccmrx &= ~TIM_CCMR1_OC2M;
 8002b34:	68fb      	ldr	r3, [r7, #12]
 8002b36:	f423 43e0 	bic.w	r3, r3, #28672	; 0x7000
 8002b3a:	60fb      	str	r3, [r7, #12]
  tmpccmrx &= ~TIM_CCMR1_CC2S;
 8002b3c:	68fb      	ldr	r3, [r7, #12]
 8002b3e:	f423 7340 	bic.w	r3, r3, #768	; 0x300
 8002b42:	60fb      	str	r3, [r7, #12]

  /* Select the Output Compare Mode */
  tmpccmrx |= (OC_Config->OCMode << 8U);
 8002b44:	683b      	ldr	r3, [r7, #0]
 8002b46:	681b      	ldr	r3, [r3, #0]
 8002b48:	021b      	lsls	r3, r3, #8
 8002b4a:	68fa      	ldr	r2, [r7, #12]
 8002b4c:	4313      	orrs	r3, r2
 8002b4e:	60fb      	str	r3, [r7, #12]

  /* Reset the Output Polarity level */
  tmpccer &= ~TIM_CCER_CC2P;
 8002b50:	697b      	ldr	r3, [r7, #20]
 8002b52:	f023 0320 	bic.w	r3, r3, #32
 8002b56:	617b      	str	r3, [r7, #20]
  /* Set the Output Compare Polarity */
  tmpccer |= (OC_Config->OCPolarity << 4U);
 8002b58:	683b      	ldr	r3, [r7, #0]
 8002b5a:	689b      	ldr	r3, [r3, #8]
 8002b5c:	011b      	lsls	r3, r3, #4
 8002b5e:	697a      	ldr	r2, [r7, #20]
 8002b60:	4313      	orrs	r3, r2
 8002b62:	617b      	str	r3, [r7, #20]

  if (IS_TIM_CCXN_INSTANCE(TIMx, TIM_CHANNEL_2))
 8002b64:	687b      	ldr	r3, [r7, #4]
 8002b66:	4a1d      	ldr	r2, [pc, #116]	; (8002bdc <TIM_OC2_SetConfig+0xd0>)
 8002b68:	4293      	cmp	r3, r2
 8002b6a:	d10d      	bne.n	8002b88 <TIM_OC2_SetConfig+0x7c>
  {
    assert_param(IS_TIM_OCN_POLARITY(OC_Config->OCNPolarity));

    /* Reset the Output N Polarity level */
    tmpccer &= ~TIM_CCER_CC2NP;
 8002b6c:	697b      	ldr	r3, [r7, #20]
 8002b6e:	f023 0380 	bic.w	r3, r3, #128	; 0x80
 8002b72:	617b      	str	r3, [r7, #20]
    /* Set the Output N Polarity */
    tmpccer |= (OC_Config->OCNPolarity << 4U);
 8002b74:	683b      	ldr	r3, [r7, #0]
 8002b76:	68db      	ldr	r3, [r3, #12]
 8002b78:	011b      	lsls	r3, r3, #4
 8002b7a:	697a      	ldr	r2, [r7, #20]
 8002b7c:	4313      	orrs	r3, r2
 8002b7e:	617b      	str	r3, [r7, #20]
    /* Reset the Output N State */
    tmpccer &= ~TIM_CCER_CC2NE;
 8002b80:	697b      	ldr	r3, [r7, #20]
 8002b82:	f023 0340 	bic.w	r3, r3, #64	; 0x40
 8002b86:	617b      	str	r3, [r7, #20]

  }

  if (IS_TIM_BREAK_INSTANCE(TIMx))
 8002b88:	687b      	ldr	r3, [r7, #4]
 8002b8a:	4a14      	ldr	r2, [pc, #80]	; (8002bdc <TIM_OC2_SetConfig+0xd0>)
 8002b8c:	4293      	cmp	r3, r2
 8002b8e:	d113      	bne.n	8002bb8 <TIM_OC2_SetConfig+0xac>
    /* Check parameters */
    assert_param(IS_TIM_OCNIDLE_STATE(OC_Config->OCNIdleState));
    assert_param(IS_TIM_OCIDLE_STATE(OC_Config->OCIdleState));

    /* Reset the Output Compare and Output Compare N IDLE State */
    tmpcr2 &= ~TIM_CR2_OIS2;
 8002b90:	693b      	ldr	r3, [r7, #16]
 8002b92:	f423 6380 	bic.w	r3, r3, #1024	; 0x400
 8002b96:	613b      	str	r3, [r7, #16]
    tmpcr2 &= ~TIM_CR2_OIS2N;
 8002b98:	693b      	ldr	r3, [r7, #16]
 8002b9a:	f423 6300 	bic.w	r3, r3, #2048	; 0x800
 8002b9e:	613b      	str	r3, [r7, #16]
    /* Set the Output Idle state */
    tmpcr2 |= (OC_Config->OCIdleState << 2U);
 8002ba0:	683b      	ldr	r3, [r7, #0]
 8002ba2:	695b      	ldr	r3, [r3, #20]
 8002ba4:	009b      	lsls	r3, r3, #2
 8002ba6:	693a      	ldr	r2, [r7, #16]
 8002ba8:	4313      	orrs	r3, r2
 8002baa:	613b      	str	r3, [r7, #16]
    /* Set the Output N Idle state */
    tmpcr2 |= (OC_Config->OCNIdleState << 2U);
 8002bac:	683b      	ldr	r3, [r7, #0]
 8002bae:	699b      	ldr	r3, [r3, #24]
 8002bb0:	009b      	lsls	r3, r3, #2
 8002bb2:	693a      	ldr	r2, [r7, #16]
 8002bb4:	4313      	orrs	r3, r2
 8002bb6:	613b      	str	r3, [r7, #16]
  }

  /* Write to TIMx CR2 */
  TIMx->CR2 = tmpcr2;
 8002bb8:	687b      	ldr	r3, [r7, #4]
 8002bba:	693a      	ldr	r2, [r7, #16]
 8002bbc:	605a      	str	r2, [r3, #4]

  /* Write to TIMx CCMR1 */
  TIMx->CCMR1 = tmpccmrx;
 8002bbe:	687b      	ldr	r3, [r7, #4]
 8002bc0:	68fa      	ldr	r2, [r7, #12]
 8002bc2:	619a      	str	r2, [r3, #24]

  /* Set the Capture Compare Register value */
  TIMx->CCR2 = OC_Config->Pulse;
 8002bc4:	683b      	ldr	r3, [r7, #0]
 8002bc6:	685a      	ldr	r2, [r3, #4]
 8002bc8:	687b      	ldr	r3, [r7, #4]
 8002bca:	639a      	str	r2, [r3, #56]	; 0x38

  /* Write to TIMx CCER */
  TIMx->CCER = tmpccer;
 8002bcc:	687b      	ldr	r3, [r7, #4]
 8002bce:	697a      	ldr	r2, [r7, #20]
 8002bd0:	621a      	str	r2, [r3, #32]
}
 8002bd2:	bf00      	nop
 8002bd4:	371c      	adds	r7, #28
 8002bd6:	46bd      	mov	sp, r7
 8002bd8:	bc80      	pop	{r7}
 8002bda:	4770      	bx	lr
 8002bdc:	40012c00 	.word	0x40012c00

08002be0 <TIM_OC3_SetConfig>:
  * @param  TIMx to select the TIM peripheral
  * @param  OC_Config The output configuration structure
  * @retval None
  */
static void TIM_OC3_SetConfig(TIM_TypeDef *TIMx, TIM_OC_InitTypeDef *OC_Config)
{
 8002be0:	b480      	push	{r7}
 8002be2:	b087      	sub	sp, #28
 8002be4:	af00      	add	r7, sp, #0
 8002be6:	6078      	str	r0, [r7, #4]
 8002be8:	6039      	str	r1, [r7, #0]
  uint32_t tmpccmrx;
  uint32_t tmpccer;
  uint32_t tmpcr2;

  /* Disable the Channel 3: Reset the CC2E Bit */
  TIMx->CCER &= ~TIM_CCER_CC3E;
 8002bea:	687b      	ldr	r3, [r7, #4]
 8002bec:	6a1b      	ldr	r3, [r3, #32]
 8002bee:	f423 7280 	bic.w	r2, r3, #256	; 0x100
 8002bf2:	687b      	ldr	r3, [r7, #4]
 8002bf4:	621a      	str	r2, [r3, #32]

  /* Get the TIMx CCER register value */
  tmpccer = TIMx->CCER;
 8002bf6:	687b      	ldr	r3, [r7, #4]
 8002bf8:	6a1b      	ldr	r3, [r3, #32]
 8002bfa:	617b      	str	r3, [r7, #20]
  /* Get the TIMx CR2 register value */
  tmpcr2 =  TIMx->CR2;
 8002bfc:	687b      	ldr	r3, [r7, #4]
 8002bfe:	685b      	ldr	r3, [r3, #4]
 8002c00:	613b      	str	r3, [r7, #16]

  /* Get the TIMx CCMR2 register value */
  tmpccmrx = TIMx->CCMR2;
 8002c02:	687b      	ldr	r3, [r7, #4]
 8002c04:	69db      	ldr	r3, [r3, #28]
 8002c06:	60fb      	str	r3, [r7, #12]

  /* Reset the Output Compare mode and Capture/Compare selection Bits */
  tmpccmrx &= ~TIM_CCMR2_OC3M;
 8002c08:	68fb      	ldr	r3, [r7, #12]
 8002c0a:	f023 0370 	bic.w	r3, r3, #112	; 0x70
 8002c0e:	60fb      	str	r3, [r7, #12]
  tmpccmrx &= ~TIM_CCMR2_CC3S;
 8002c10:	68fb      	ldr	r3, [r7, #12]
 8002c12:	f023 0303 	bic.w	r3, r3, #3
 8002c16:	60fb      	str	r3, [r7, #12]
  /* Select the Output Compare Mode */
  tmpccmrx |= OC_Config->OCMode;
 8002c18:	683b      	ldr	r3, [r7, #0]
 8002c1a:	681b      	ldr	r3, [r3, #0]
 8002c1c:	68fa      	ldr	r2, [r7, #12]
 8002c1e:	4313      	orrs	r3, r2
 8002c20:	60fb      	str	r3, [r7, #12]

  /* Reset the Output Polarity level */
  tmpccer &= ~TIM_CCER_CC3P;
 8002c22:	697b      	ldr	r3, [r7, #20]
 8002c24:	f423 7300 	bic.w	r3, r3, #512	; 0x200
 8002c28:	617b      	str	r3, [r7, #20]
  /* Set the Output Compare Polarity */
  tmpccer |= (OC_Config->OCPolarity << 8U);
 8002c2a:	683b      	ldr	r3, [r7, #0]
 8002c2c:	689b      	ldr	r3, [r3, #8]
 8002c2e:	021b      	lsls	r3, r3, #8
 8002c30:	697a      	ldr	r2, [r7, #20]
 8002c32:	4313      	orrs	r3, r2
 8002c34:	617b      	str	r3, [r7, #20]

  if (IS_TIM_CCXN_INSTANCE(TIMx, TIM_CHANNEL_3))
 8002c36:	687b      	ldr	r3, [r7, #4]
 8002c38:	4a1d      	ldr	r2, [pc, #116]	; (8002cb0 <TIM_OC3_SetConfig+0xd0>)
 8002c3a:	4293      	cmp	r3, r2
 8002c3c:	d10d      	bne.n	8002c5a <TIM_OC3_SetConfig+0x7a>
  {
    assert_param(IS_TIM_OCN_POLARITY(OC_Config->OCNPolarity));

    /* Reset the Output N Polarity level */
    tmpccer &= ~TIM_CCER_CC3NP;
 8002c3e:	697b      	ldr	r3, [r7, #20]
 8002c40:	f423 6300 	bic.w	r3, r3, #2048	; 0x800
 8002c44:	617b      	str	r3, [r7, #20]
    /* Set the Output N Polarity */
    tmpccer |= (OC_Config->OCNPolarity << 8U);
 8002c46:	683b      	ldr	r3, [r7, #0]
 8002c48:	68db      	ldr	r3, [r3, #12]
 8002c4a:	021b      	lsls	r3, r3, #8
 8002c4c:	697a      	ldr	r2, [r7, #20]
 8002c4e:	4313      	orrs	r3, r2
 8002c50:	617b      	str	r3, [r7, #20]
    /* Reset the Output N State */
    tmpccer &= ~TIM_CCER_CC3NE;
 8002c52:	697b      	ldr	r3, [r7, #20]
 8002c54:	f423 6380 	bic.w	r3, r3, #1024	; 0x400
 8002c58:	617b      	str	r3, [r7, #20]
  }

  if (IS_TIM_BREAK_INSTANCE(TIMx))
 8002c5a:	687b      	ldr	r3, [r7, #4]
 8002c5c:	4a14      	ldr	r2, [pc, #80]	; (8002cb0 <TIM_OC3_SetConfig+0xd0>)
 8002c5e:	4293      	cmp	r3, r2
 8002c60:	d113      	bne.n	8002c8a <TIM_OC3_SetConfig+0xaa>
    /* Check parameters */
    assert_param(IS_TIM_OCNIDLE_STATE(OC_Config->OCNIdleState));
    assert_param(IS_TIM_OCIDLE_STATE(OC_Config->OCIdleState));

    /* Reset the Output Compare and Output Compare N IDLE State */
    tmpcr2 &= ~TIM_CR2_OIS3;
 8002c62:	693b      	ldr	r3, [r7, #16]
 8002c64:	f423 5380 	bic.w	r3, r3, #4096	; 0x1000
 8002c68:	613b      	str	r3, [r7, #16]
    tmpcr2 &= ~TIM_CR2_OIS3N;
 8002c6a:	693b      	ldr	r3, [r7, #16]
 8002c6c:	f423 5300 	bic.w	r3, r3, #8192	; 0x2000
 8002c70:	613b      	str	r3, [r7, #16]
    /* Set the Output Idle state */
    tmpcr2 |= (OC_Config->OCIdleState << 4U);
 8002c72:	683b      	ldr	r3, [r7, #0]
 8002c74:	695b      	ldr	r3, [r3, #20]
 8002c76:	011b      	lsls	r3, r3, #4
 8002c78:	693a      	ldr	r2, [r7, #16]
 8002c7a:	4313      	orrs	r3, r2
 8002c7c:	613b      	str	r3, [r7, #16]
    /* Set the Output N Idle state */
    tmpcr2 |= (OC_Config->OCNIdleState << 4U);
 8002c7e:	683b      	ldr	r3, [r7, #0]
 8002c80:	699b      	ldr	r3, [r3, #24]
 8002c82:	011b      	lsls	r3, r3, #4
 8002c84:	693a      	ldr	r2, [r7, #16]
 8002c86:	4313      	orrs	r3, r2
 8002c88:	613b      	str	r3, [r7, #16]
  }

  /* Write to TIMx CR2 */
  TIMx->CR2 = tmpcr2;
 8002c8a:	687b      	ldr	r3, [r7, #4]
 8002c8c:	693a      	ldr	r2, [r7, #16]
 8002c8e:	605a      	str	r2, [r3, #4]

  /* Write to TIMx CCMR2 */
  TIMx->CCMR2 = tmpccmrx;
 8002c90:	687b      	ldr	r3, [r7, #4]
 8002c92:	68fa      	ldr	r2, [r7, #12]
 8002c94:	61da      	str	r2, [r3, #28]

  /* Set the Capture Compare Register value */
  TIMx->CCR3 = OC_Config->Pulse;
 8002c96:	683b      	ldr	r3, [r7, #0]
 8002c98:	685a      	ldr	r2, [r3, #4]
 8002c9a:	687b      	ldr	r3, [r7, #4]
 8002c9c:	63da      	str	r2, [r3, #60]	; 0x3c

  /* Write to TIMx CCER */
  TIMx->CCER = tmpccer;
 8002c9e:	687b      	ldr	r3, [r7, #4]
 8002ca0:	697a      	ldr	r2, [r7, #20]
 8002ca2:	621a      	str	r2, [r3, #32]
}
 8002ca4:	bf00      	nop
 8002ca6:	371c      	adds	r7, #28
 8002ca8:	46bd      	mov	sp, r7
 8002caa:	bc80      	pop	{r7}
 8002cac:	4770      	bx	lr
 8002cae:	bf00      	nop
 8002cb0:	40012c00 	.word	0x40012c00

08002cb4 <TIM_OC4_SetConfig>:
  * @param  TIMx to select the TIM peripheral
  * @param  OC_Config The output configuration structure
  * @retval None
  */
static void TIM_OC4_SetConfig(TIM_TypeDef *TIMx, TIM_OC_InitTypeDef *OC_Config)
{
 8002cb4:	b480      	push	{r7}
 8002cb6:	b087      	sub	sp, #28
 8002cb8:	af00      	add	r7, sp, #0
 8002cba:	6078      	str	r0, [r7, #4]
 8002cbc:	6039      	str	r1, [r7, #0]
  uint32_t tmpccmrx;
  uint32_t tmpccer;
  uint32_t tmpcr2;

  /* Disable the Channel 4: Reset the CC4E Bit */
  TIMx->CCER &= ~TIM_CCER_CC4E;
 8002cbe:	687b      	ldr	r3, [r7, #4]
 8002cc0:	6a1b      	ldr	r3, [r3, #32]
 8002cc2:	f423 5280 	bic.w	r2, r3, #4096	; 0x1000
 8002cc6:	687b      	ldr	r3, [r7, #4]
 8002cc8:	621a      	str	r2, [r3, #32]

  /* Get the TIMx CCER register value */
  tmpccer = TIMx->CCER;
 8002cca:	687b      	ldr	r3, [r7, #4]
 8002ccc:	6a1b      	ldr	r3, [r3, #32]
 8002cce:	613b      	str	r3, [r7, #16]
  /* Get the TIMx CR2 register value */
  tmpcr2 =  TIMx->CR2;
 8002cd0:	687b      	ldr	r3, [r7, #4]
 8002cd2:	685b      	ldr	r3, [r3, #4]
 8002cd4:	617b      	str	r3, [r7, #20]

  /* Get the TIMx CCMR2 register value */
  tmpccmrx = TIMx->CCMR2;
 8002cd6:	687b      	ldr	r3, [r7, #4]
 8002cd8:	69db      	ldr	r3, [r3, #28]
 8002cda:	60fb      	str	r3, [r7, #12]

  /* Reset the Output Compare mode and Capture/Compare selection Bits */
  tmpccmrx &= ~TIM_CCMR2_OC4M;
 8002cdc:	68fb      	ldr	r3, [r7, #12]
 8002cde:	f423 43e0 	bic.w	r3, r3, #28672	; 0x7000
 8002ce2:	60fb      	str	r3, [r7, #12]
  tmpccmrx &= ~TIM_CCMR2_CC4S;
 8002ce4:	68fb      	ldr	r3, [r7, #12]
 8002ce6:	f423 7340 	bic.w	r3, r3, #768	; 0x300
 8002cea:	60fb      	str	r3, [r7, #12]

  /* Select the Output Compare Mode */
  tmpccmrx |= (OC_Config->OCMode << 8U);
 8002cec:	683b      	ldr	r3, [r7, #0]
 8002cee:	681b      	ldr	r3, [r3, #0]
 8002cf0:	021b      	lsls	r3, r3, #8
 8002cf2:	68fa      	ldr	r2, [r7, #12]
 8002cf4:	4313      	orrs	r3, r2
 8002cf6:	60fb      	str	r3, [r7, #12]

  /* Reset the Output Polarity level */
  tmpccer &= ~TIM_CCER_CC4P;
 8002cf8:	693b      	ldr	r3, [r7, #16]
 8002cfa:	f423 5300 	bic.w	r3, r3, #8192	; 0x2000
 8002cfe:	613b      	str	r3, [r7, #16]
  /* Set the Output Compare Polarity */
  tmpccer |= (OC_Config->OCPolarity << 12U);
 8002d00:	683b      	ldr	r3, [r7, #0]
 8002d02:	689b      	ldr	r3, [r3, #8]
 8002d04:	031b      	lsls	r3, r3, #12
 8002d06:	693a      	ldr	r2, [r7, #16]
 8002d08:	4313      	orrs	r3, r2
 8002d0a:	613b      	str	r3, [r7, #16]

  if (IS_TIM_BREAK_INSTANCE(TIMx))
 8002d0c:	687b      	ldr	r3, [r7, #4]
 8002d0e:	4a0f      	ldr	r2, [pc, #60]	; (8002d4c <TIM_OC4_SetConfig+0x98>)
 8002d10:	4293      	cmp	r3, r2
 8002d12:	d109      	bne.n	8002d28 <TIM_OC4_SetConfig+0x74>
  {
    /* Check parameters */
    assert_param(IS_TIM_OCIDLE_STATE(OC_Config->OCIdleState));

    /* Reset the Output Compare IDLE State */
    tmpcr2 &= ~TIM_CR2_OIS4;
 8002d14:	697b      	ldr	r3, [r7, #20]
 8002d16:	f423 4380 	bic.w	r3, r3, #16384	; 0x4000
 8002d1a:	617b      	str	r3, [r7, #20]

    /* Set the Output Idle state */
    tmpcr2 |= (OC_Config->OCIdleState << 6U);
 8002d1c:	683b      	ldr	r3, [r7, #0]
 8002d1e:	695b      	ldr	r3, [r3, #20]
 8002d20:	019b      	lsls	r3, r3, #6
 8002d22:	697a      	ldr	r2, [r7, #20]
 8002d24:	4313      	orrs	r3, r2
 8002d26:	617b      	str	r3, [r7, #20]
  }

  /* Write to TIMx CR2 */
  TIMx->CR2 = tmpcr2;
 8002d28:	687b      	ldr	r3, [r7, #4]
 8002d2a:	697a      	ldr	r2, [r7, #20]
 8002d2c:	605a      	str	r2, [r3, #4]

  /* Write to TIMx CCMR2 */
  TIMx->CCMR2 = tmpccmrx;
 8002d2e:	687b      	ldr	r3, [r7, #4]
 8002d30:	68fa      	ldr	r2, [r7, #12]
 8002d32:	61da      	str	r2, [r3, #28]

  /* Set the Capture Compare Register value */
  TIMx->CCR4 = OC_Config->Pulse;
 8002d34:	683b      	ldr	r3, [r7, #0]
 8002d36:	685a      	ldr	r2, [r3, #4]
 8002d38:	687b      	ldr	r3, [r7, #4]
 8002d3a:	641a      	str	r2, [r3, #64]	; 0x40

  /* Write to TIMx CCER */
  TIMx->CCER = tmpccer;
 8002d3c:	687b      	ldr	r3, [r7, #4]
 8002d3e:	693a      	ldr	r2, [r7, #16]
 8002d40:	621a      	str	r2, [r3, #32]
}
 8002d42:	bf00      	nop
 8002d44:	371c      	adds	r7, #28
 8002d46:	46bd      	mov	sp, r7
 8002d48:	bc80      	pop	{r7}
 8002d4a:	4770      	bx	lr
 8002d4c:	40012c00 	.word	0x40012c00

08002d50 <TIM_TI1_ConfigInputStage>:
  * @param  TIM_ICFilter Specifies the Input Capture Filter.
  *          This parameter must be a value between 0x00 and 0x0F.
  * @retval None
  */
static void TIM_TI1_ConfigInputStage(TIM_TypeDef *TIMx, uint32_t TIM_ICPolarity, uint32_t TIM_ICFilter)
{
 8002d50:	b480      	push	{r7}
 8002d52:	b087      	sub	sp, #28
 8002d54:	af00      	add	r7, sp, #0
 8002d56:	60f8      	str	r0, [r7, #12]
 8002d58:	60b9      	str	r1, [r7, #8]
 8002d5a:	607a      	str	r2, [r7, #4]
  uint32_t tmpccmr1;
  uint32_t tmpccer;

  /* Disable the Channel 1: Reset the CC1E Bit */
  tmpccer = TIMx->CCER;
 8002d5c:	68fb      	ldr	r3, [r7, #12]
 8002d5e:	6a1b      	ldr	r3, [r3, #32]
 8002d60:	617b      	str	r3, [r7, #20]
  TIMx->CCER &= ~TIM_CCER_CC1E;
 8002d62:	68fb      	ldr	r3, [r7, #12]
 8002d64:	6a1b      	ldr	r3, [r3, #32]
 8002d66:	f023 0201 	bic.w	r2, r3, #1
 8002d6a:	68fb      	ldr	r3, [r7, #12]
 8002d6c:	621a      	str	r2, [r3, #32]
  tmpccmr1 = TIMx->CCMR1;
 8002d6e:	68fb      	ldr	r3, [r7, #12]
 8002d70:	699b      	ldr	r3, [r3, #24]
 8002d72:	613b      	str	r3, [r7, #16]

  /* Set the filter */
  tmpccmr1 &= ~TIM_CCMR1_IC1F;
 8002d74:	693b      	ldr	r3, [r7, #16]
 8002d76:	f023 03f0 	bic.w	r3, r3, #240	; 0xf0
 8002d7a:	613b      	str	r3, [r7, #16]
  tmpccmr1 |= (TIM_ICFilter << 4U);
 8002d7c:	687b      	ldr	r3, [r7, #4]
 8002d7e:	011b      	lsls	r3, r3, #4
 8002d80:	693a      	ldr	r2, [r7, #16]
 8002d82:	4313      	orrs	r3, r2
 8002d84:	613b      	str	r3, [r7, #16]

  /* Select the Polarity and set the CC1E Bit */
  tmpccer &= ~(TIM_CCER_CC1P | TIM_CCER_CC1NP);
 8002d86:	697b      	ldr	r3, [r7, #20]
 8002d88:	f023 030a 	bic.w	r3, r3, #10
 8002d8c:	617b      	str	r3, [r7, #20]
  tmpccer |= TIM_ICPolarity;
 8002d8e:	697a      	ldr	r2, [r7, #20]
 8002d90:	68bb      	ldr	r3, [r7, #8]
 8002d92:	4313      	orrs	r3, r2
 8002d94:	617b      	str	r3, [r7, #20]

  /* Write to TIMx CCMR1 and CCER registers */
  TIMx->CCMR1 = tmpccmr1;
 8002d96:	68fb      	ldr	r3, [r7, #12]
 8002d98:	693a      	ldr	r2, [r7, #16]
 8002d9a:	619a      	str	r2, [r3, #24]
  TIMx->CCER = tmpccer;
 8002d9c:	68fb      	ldr	r3, [r7, #12]
 8002d9e:	697a      	ldr	r2, [r7, #20]
 8002da0:	621a      	str	r2, [r3, #32]
}
 8002da2:	bf00      	nop
 8002da4:	371c      	adds	r7, #28
 8002da6:	46bd      	mov	sp, r7
 8002da8:	bc80      	pop	{r7}
 8002daa:	4770      	bx	lr

08002dac <TIM_TI2_ConfigInputStage>:
  * @param  TIM_ICFilter Specifies the Input Capture Filter.
  *          This parameter must be a value between 0x00 and 0x0F.
  * @retval None
  */
static void TIM_TI2_ConfigInputStage(TIM_TypeDef *TIMx, uint32_t TIM_ICPolarity, uint32_t TIM_ICFilter)
{
 8002dac:	b480      	push	{r7}
 8002dae:	b087      	sub	sp, #28
 8002db0:	af00      	add	r7, sp, #0
 8002db2:	60f8      	str	r0, [r7, #12]
 8002db4:	60b9      	str	r1, [r7, #8]
 8002db6:	607a      	str	r2, [r7, #4]
  uint32_t tmpccmr1;
  uint32_t tmpccer;

  /* Disable the Channel 2: Reset the CC2E Bit */
  TIMx->CCER &= ~TIM_CCER_CC2E;
 8002db8:	68fb      	ldr	r3, [r7, #12]
 8002dba:	6a1b      	ldr	r3, [r3, #32]
 8002dbc:	f023 0210 	bic.w	r2, r3, #16
 8002dc0:	68fb      	ldr	r3, [r7, #12]
 8002dc2:	621a      	str	r2, [r3, #32]
  tmpccmr1 = TIMx->CCMR1;
 8002dc4:	68fb      	ldr	r3, [r7, #12]
 8002dc6:	699b      	ldr	r3, [r3, #24]
 8002dc8:	617b      	str	r3, [r7, #20]
  tmpccer = TIMx->CCER;
 8002dca:	68fb      	ldr	r3, [r7, #12]
 8002dcc:	6a1b      	ldr	r3, [r3, #32]
 8002dce:	613b      	str	r3, [r7, #16]

  /* Set the filter */
  tmpccmr1 &= ~TIM_CCMR1_IC2F;
 8002dd0:	697b      	ldr	r3, [r7, #20]
 8002dd2:	f423 4370 	bic.w	r3, r3, #61440	; 0xf000
 8002dd6:	617b      	str	r3, [r7, #20]
  tmpccmr1 |= (TIM_ICFilter << 12U);
 8002dd8:	687b      	ldr	r3, [r7, #4]
 8002dda:	031b      	lsls	r3, r3, #12
 8002ddc:	697a      	ldr	r2, [r7, #20]
 8002dde:	4313      	orrs	r3, r2
 8002de0:	617b      	str	r3, [r7, #20]

  /* Select the Polarity and set the CC2E Bit */
  tmpccer &= ~(TIM_CCER_CC2P | TIM_CCER_CC2NP);
 8002de2:	693b      	ldr	r3, [r7, #16]
 8002de4:	f023 03a0 	bic.w	r3, r3, #160	; 0xa0
 8002de8:	613b      	str	r3, [r7, #16]
  tmpccer |= (TIM_ICPolarity << 4U);
 8002dea:	68bb      	ldr	r3, [r7, #8]
 8002dec:	011b      	lsls	r3, r3, #4
 8002dee:	693a      	ldr	r2, [r7, #16]
 8002df0:	4313      	orrs	r3, r2
 8002df2:	613b      	str	r3, [r7, #16]

  /* Write to TIMx CCMR1 and CCER registers */
  TIMx->CCMR1 = tmpccmr1 ;
 8002df4:	68fb      	ldr	r3, [r7, #12]
 8002df6:	697a      	ldr	r2, [r7, #20]
 8002df8:	619a      	str	r2, [r3, #24]
  TIMx->CCER = tmpccer;
 8002dfa:	68fb      	ldr	r3, [r7, #12]
 8002dfc:	693a      	ldr	r2, [r7, #16]
 8002dfe:	621a      	str	r2, [r3, #32]
}
 8002e00:	bf00      	nop
 8002e02:	371c      	adds	r7, #28
 8002e04:	46bd      	mov	sp, r7
 8002e06:	bc80      	pop	{r7}
 8002e08:	4770      	bx	lr

08002e0a <TIM_ITRx_SetConfig>:
  *            @arg TIM_TS_TI2FP2: Filtered Timer Input 2
  *            @arg TIM_TS_ETRF: External Trigger input
  * @retval None
  */
static void TIM_ITRx_SetConfig(TIM_TypeDef *TIMx, uint32_t InputTriggerSource)
{
 8002e0a:	b480      	push	{r7}
 8002e0c:	b085      	sub	sp, #20
 8002e0e:	af00      	add	r7, sp, #0
 8002e10:	6078      	str	r0, [r7, #4]
 8002e12:	6039      	str	r1, [r7, #0]
  uint32_t tmpsmcr;

  /* Get the TIMx SMCR register value */
  tmpsmcr = TIMx->SMCR;
 8002e14:	687b      	ldr	r3, [r7, #4]
 8002e16:	689b      	ldr	r3, [r3, #8]
 8002e18:	60fb      	str	r3, [r7, #12]
  /* Reset the TS Bits */
  tmpsmcr &= ~TIM_SMCR_TS;
 8002e1a:	68fb      	ldr	r3, [r7, #12]
 8002e1c:	f023 0370 	bic.w	r3, r3, #112	; 0x70
 8002e20:	60fb      	str	r3, [r7, #12]
  /* Set the Input Trigger source and the slave mode*/
  tmpsmcr |= (InputTriggerSource | TIM_SLAVEMODE_EXTERNAL1);
 8002e22:	683a      	ldr	r2, [r7, #0]
 8002e24:	68fb      	ldr	r3, [r7, #12]
 8002e26:	4313      	orrs	r3, r2
 8002e28:	f043 0307 	orr.w	r3, r3, #7
 8002e2c:	60fb      	str	r3, [r7, #12]
  /* Write to TIMx SMCR */
  TIMx->SMCR = tmpsmcr;
 8002e2e:	687b      	ldr	r3, [r7, #4]
 8002e30:	68fa      	ldr	r2, [r7, #12]
 8002e32:	609a      	str	r2, [r3, #8]
}
 8002e34:	bf00      	nop
 8002e36:	3714      	adds	r7, #20
 8002e38:	46bd      	mov	sp, r7
 8002e3a:	bc80      	pop	{r7}
 8002e3c:	4770      	bx	lr

08002e3e <TIM_ETR_SetConfig>:
  *          This parameter must be a value between 0x00 and 0x0F
  * @retval None
  */
void TIM_ETR_SetConfig(TIM_TypeDef *TIMx, uint32_t TIM_ExtTRGPrescaler,
                       uint32_t TIM_ExtTRGPolarity, uint32_t ExtTRGFilter)
{
 8002e3e:	b480      	push	{r7}
 8002e40:	b087      	sub	sp, #28
 8002e42:	af00      	add	r7, sp, #0
 8002e44:	60f8      	str	r0, [r7, #12]
 8002e46:	60b9      	str	r1, [r7, #8]
 8002e48:	607a      	str	r2, [r7, #4]
 8002e4a:	603b      	str	r3, [r7, #0]
  uint32_t tmpsmcr;

  tmpsmcr = TIMx->SMCR;
 8002e4c:	68fb      	ldr	r3, [r7, #12]
 8002e4e:	689b      	ldr	r3, [r3, #8]
 8002e50:	617b      	str	r3, [r7, #20]

  /* Reset the ETR Bits */
  tmpsmcr &= ~(TIM_SMCR_ETF | TIM_SMCR_ETPS | TIM_SMCR_ECE | TIM_SMCR_ETP);
 8002e52:	697b      	ldr	r3, [r7, #20]
 8002e54:	f423 437f 	bic.w	r3, r3, #65280	; 0xff00
 8002e58:	617b      	str	r3, [r7, #20]

  /* Set the Prescaler, the Filter value and the Polarity */
  tmpsmcr |= (uint32_t)(TIM_ExtTRGPrescaler | (TIM_ExtTRGPolarity | (ExtTRGFilter << 8U)));
 8002e5a:	683b      	ldr	r3, [r7, #0]
 8002e5c:	021a      	lsls	r2, r3, #8
 8002e5e:	687b      	ldr	r3, [r7, #4]
 8002e60:	431a      	orrs	r2, r3
 8002e62:	68bb      	ldr	r3, [r7, #8]
 8002e64:	4313      	orrs	r3, r2
 8002e66:	697a      	ldr	r2, [r7, #20]
 8002e68:	4313      	orrs	r3, r2
 8002e6a:	617b      	str	r3, [r7, #20]

  /* Write to TIMx SMCR */
  TIMx->SMCR = tmpsmcr;
 8002e6c:	68fb      	ldr	r3, [r7, #12]
 8002e6e:	697a      	ldr	r2, [r7, #20]
 8002e70:	609a      	str	r2, [r3, #8]
}
 8002e72:	bf00      	nop
 8002e74:	371c      	adds	r7, #28
 8002e76:	46bd      	mov	sp, r7
 8002e78:	bc80      	pop	{r7}
 8002e7a:	4770      	bx	lr

08002e7c <HAL_TIMEx_MasterConfigSynchronization>:
  *         mode.
  * @retval HAL status
  */
HAL_StatusTypeDef HAL_TIMEx_MasterConfigSynchronization(TIM_HandleTypeDef *htim,
                                                        TIM_MasterConfigTypeDef *sMasterConfig)
{
 8002e7c:	b480      	push	{r7}
 8002e7e:	b085      	sub	sp, #20
 8002e80:	af00      	add	r7, sp, #0
 8002e82:	6078      	str	r0, [r7, #4]
 8002e84:	6039      	str	r1, [r7, #0]
  assert_param(IS_TIM_MASTER_INSTANCE(htim->Instance));
  assert_param(IS_TIM_TRGO_SOURCE(sMasterConfig->MasterOutputTrigger));
  assert_param(IS_TIM_MSM_STATE(sMasterConfig->MasterSlaveMode));

  /* Check input state */
  __HAL_LOCK(htim);
 8002e86:	687b      	ldr	r3, [r7, #4]
 8002e88:	f893 303c 	ldrb.w	r3, [r3, #60]	; 0x3c
 8002e8c:	2b01      	cmp	r3, #1
 8002e8e:	d101      	bne.n	8002e94 <HAL_TIMEx_MasterConfigSynchronization+0x18>
 8002e90:	2302      	movs	r3, #2
 8002e92:	e046      	b.n	8002f22 <HAL_TIMEx_MasterConfigSynchronization+0xa6>
 8002e94:	687b      	ldr	r3, [r7, #4]
 8002e96:	2201      	movs	r2, #1
 8002e98:	f883 203c 	strb.w	r2, [r3, #60]	; 0x3c

  /* Change the handler state */
  htim->State = HAL_TIM_STATE_BUSY;
 8002e9c:	687b      	ldr	r3, [r7, #4]
 8002e9e:	2202      	movs	r2, #2
 8002ea0:	f883 203d 	strb.w	r2, [r3, #61]	; 0x3d

  /* Get the TIMx CR2 register value */
  tmpcr2 = htim->Instance->CR2;
 8002ea4:	687b      	ldr	r3, [r7, #4]
 8002ea6:	681b      	ldr	r3, [r3, #0]
 8002ea8:	685b      	ldr	r3, [r3, #4]
 8002eaa:	60fb      	str	r3, [r7, #12]

  /* Get the TIMx SMCR register value */
  tmpsmcr = htim->Instance->SMCR;
 8002eac:	687b      	ldr	r3, [r7, #4]
 8002eae:	681b      	ldr	r3, [r3, #0]
 8002eb0:	689b      	ldr	r3, [r3, #8]
 8002eb2:	60bb      	str	r3, [r7, #8]

  /* Reset the MMS Bits */
  tmpcr2 &= ~TIM_CR2_MMS;
 8002eb4:	68fb      	ldr	r3, [r7, #12]
 8002eb6:	f023 0370 	bic.w	r3, r3, #112	; 0x70
 8002eba:	60fb      	str	r3, [r7, #12]
  /* Select the TRGO source */
  tmpcr2 |=  sMasterConfig->MasterOutputTrigger;
 8002ebc:	683b      	ldr	r3, [r7, #0]
 8002ebe:	681b      	ldr	r3, [r3, #0]
 8002ec0:	68fa      	ldr	r2, [r7, #12]
 8002ec2:	4313      	orrs	r3, r2
 8002ec4:	60fb      	str	r3, [r7, #12]

  /* Update TIMx CR2 */
  htim->Instance->CR2 = tmpcr2;
 8002ec6:	687b      	ldr	r3, [r7, #4]
 8002ec8:	681b      	ldr	r3, [r3, #0]
 8002eca:	68fa      	ldr	r2, [r7, #12]
 8002ecc:	605a      	str	r2, [r3, #4]

  if (IS_TIM_SLAVE_INSTANCE(htim->Instance))
 8002ece:	687b      	ldr	r3, [r7, #4]
 8002ed0:	681b      	ldr	r3, [r3, #0]
 8002ed2:	4a16      	ldr	r2, [pc, #88]	; (8002f2c <HAL_TIMEx_MasterConfigSynchronization+0xb0>)
 8002ed4:	4293      	cmp	r3, r2
 8002ed6:	d00e      	beq.n	8002ef6 <HAL_TIMEx_MasterConfigSynchronization+0x7a>
 8002ed8:	687b      	ldr	r3, [r7, #4]
 8002eda:	681b      	ldr	r3, [r3, #0]
 8002edc:	f1b3 4f80 	cmp.w	r3, #1073741824	; 0x40000000
 8002ee0:	d009      	beq.n	8002ef6 <HAL_TIMEx_MasterConfigSynchronization+0x7a>
 8002ee2:	687b      	ldr	r3, [r7, #4]
 8002ee4:	681b      	ldr	r3, [r3, #0]
 8002ee6:	4a12      	ldr	r2, [pc, #72]	; (8002f30 <HAL_TIMEx_MasterConfigSynchronization+0xb4>)
 8002ee8:	4293      	cmp	r3, r2
 8002eea:	d004      	beq.n	8002ef6 <HAL_TIMEx_MasterConfigSynchronization+0x7a>
 8002eec:	687b      	ldr	r3, [r7, #4]
 8002eee:	681b      	ldr	r3, [r3, #0]
 8002ef0:	4a10      	ldr	r2, [pc, #64]	; (8002f34 <HAL_TIMEx_MasterConfigSynchronization+0xb8>)
 8002ef2:	4293      	cmp	r3, r2
 8002ef4:	d10c      	bne.n	8002f10 <HAL_TIMEx_MasterConfigSynchronization+0x94>
  {
    /* Reset the MSM Bit */
    tmpsmcr &= ~TIM_SMCR_MSM;
 8002ef6:	68bb      	ldr	r3, [r7, #8]
 8002ef8:	f023 0380 	bic.w	r3, r3, #128	; 0x80
 8002efc:	60bb      	str	r3, [r7, #8]
    /* Set master mode */
    tmpsmcr |= sMasterConfig->MasterSlaveMode;
 8002efe:	683b      	ldr	r3, [r7, #0]
 8002f00:	685b      	ldr	r3, [r3, #4]
 8002f02:	68ba      	ldr	r2, [r7, #8]
 8002f04:	4313      	orrs	r3, r2
 8002f06:	60bb      	str	r3, [r7, #8]

    /* Update TIMx SMCR */
    htim->Instance->SMCR = tmpsmcr;
 8002f08:	687b      	ldr	r3, [r7, #4]
 8002f0a:	681b      	ldr	r3, [r3, #0]
 8002f0c:	68ba      	ldr	r2, [r7, #8]
 8002f0e:	609a      	str	r2, [r3, #8]
  }

  /* Change the htim state */
  htim->State = HAL_TIM_STATE_READY;
 8002f10:	687b      	ldr	r3, [r7, #4]
 8002f12:	2201      	movs	r2, #1
 8002f14:	f883 203d 	strb.w	r2, [r3, #61]	; 0x3d

  __HAL_UNLOCK(htim);
 8002f18:	687b      	ldr	r3, [r7, #4]
 8002f1a:	2200      	movs	r2, #0
 8002f1c:	f883 203c 	strb.w	r2, [r3, #60]	; 0x3c

  return HAL_OK;
 8002f20:	2300      	movs	r3, #0
}
 8002f22:	4618      	mov	r0, r3
 8002f24:	3714      	adds	r7, #20
 8002f26:	46bd      	mov	sp, r7
 8002f28:	bc80      	pop	{r7}
 8002f2a:	4770      	bx	lr
 8002f2c:	40012c00 	.word	0x40012c00
 8002f30:	40000400 	.word	0x40000400
 8002f34:	40000800 	.word	0x40000800

08002f38 <HAL_TIMEx_CommutCallback>:
  * @brief  Hall commutation changed callback in non-blocking mode
  * @param  htim TIM handle
  * @retval None
  */
__weak void HAL_TIMEx_CommutCallback(TIM_HandleTypeDef *htim)
{
 8002f38:	b480      	push	{r7}
 8002f3a:	b083      	sub	sp, #12
 8002f3c:	af00      	add	r7, sp, #0
 8002f3e:	6078      	str	r0, [r7, #4]
  UNUSED(htim);

  /* NOTE : This function should not be modified, when the callback is needed,
            the HAL_TIMEx_CommutCallback could be implemented in the user file
   */
}
 8002f40:	bf00      	nop
 8002f42:	370c      	adds	r7, #12
 8002f44:	46bd      	mov	sp, r7
 8002f46:	bc80      	pop	{r7}
 8002f48:	4770      	bx	lr

08002f4a <HAL_TIMEx_BreakCallback>:
  * @brief  Hall Break detection callback in non-blocking mode
  * @param  htim TIM handle
  * @retval None
  */
__weak void HAL_TIMEx_BreakCallback(TIM_HandleTypeDef *htim)
{
 8002f4a:	b480      	push	{r7}
 8002f4c:	b083      	sub	sp, #12
 8002f4e:	af00      	add	r7, sp, #0
 8002f50:	6078      	str	r0, [r7, #4]
  UNUSED(htim);

  /* NOTE : This function should not be modified, when the callback is needed,
            the HAL_TIMEx_BreakCallback could be implemented in the user file
   */
}
 8002f52:	bf00      	nop
 8002f54:	370c      	adds	r7, #12
 8002f56:	46bd      	mov	sp, r7
 8002f58:	bc80      	pop	{r7}
 8002f5a:	4770      	bx	lr

08002f5c <HAL_UART_Init>:
  * @param  huart  Pointer to a UART_HandleTypeDef structure that contains
  *                the configuration information for the specified UART module.
  * @retval HAL status
  */
HAL_StatusTypeDef HAL_UART_Init(UART_HandleTypeDef *huart)
{
 8002f5c:	b580      	push	{r7, lr}
 8002f5e:	b082      	sub	sp, #8
 8002f60:	af00      	add	r7, sp, #0
 8002f62:	6078      	str	r0, [r7, #4]
  /* Check the UART handle allocation */
  if (huart == NULL)
 8002f64:	687b      	ldr	r3, [r7, #4]
 8002f66:	2b00      	cmp	r3, #0
 8002f68:	d101      	bne.n	8002f6e <HAL_UART_Init+0x12>
  {
    return HAL_ERROR;
 8002f6a:	2301      	movs	r3, #1
 8002f6c:	e03f      	b.n	8002fee <HAL_UART_Init+0x92>
  assert_param(IS_UART_WORD_LENGTH(huart->Init.WordLength));
#if defined(USART_CR1_OVER8)
  assert_param(IS_UART_OVERSAMPLING(huart->Init.OverSampling));
#endif /* USART_CR1_OVER8 */

  if (huart->gState == HAL_UART_STATE_RESET)
 8002f6e:	687b      	ldr	r3, [r7, #4]
 8002f70:	f893 303d 	ldrb.w	r3, [r3, #61]	; 0x3d
 8002f74:	b2db      	uxtb	r3, r3
 8002f76:	2b00      	cmp	r3, #0
 8002f78:	d106      	bne.n	8002f88 <HAL_UART_Init+0x2c>
  {
    /* Allocate lock resource and initialize it */
    huart->Lock = HAL_UNLOCKED;
 8002f7a:	687b      	ldr	r3, [r7, #4]
 8002f7c:	2200      	movs	r2, #0
 8002f7e:	f883 203c 	strb.w	r2, [r3, #60]	; 0x3c

    /* Init the low level hardware */
    huart->MspInitCallback(huart);
#else
    /* Init the low level hardware : GPIO, CLOCK */
    HAL_UART_MspInit(huart);
 8002f82:	6878      	ldr	r0, [r7, #4]
 8002f84:	f7fd ff12 	bl	8000dac <HAL_UART_MspInit>
#endif /* (USE_HAL_UART_REGISTER_CALLBACKS) */
  }

  huart->gState = HAL_UART_STATE_BUSY;
 8002f88:	687b      	ldr	r3, [r7, #4]
 8002f8a:	2224      	movs	r2, #36	; 0x24
 8002f8c:	f883 203d 	strb.w	r2, [r3, #61]	; 0x3d

  /* Disable the peripheral */
  __HAL_UART_DISABLE(huart);
 8002f90:	687b      	ldr	r3, [r7, #4]
 8002f92:	681b      	ldr	r3, [r3, #0]
 8002f94:	68da      	ldr	r2, [r3, #12]
 8002f96:	687b      	ldr	r3, [r7, #4]
 8002f98:	681b      	ldr	r3, [r3, #0]
 8002f9a:	f422 5200 	bic.w	r2, r2, #8192	; 0x2000
 8002f9e:	60da      	str	r2, [r3, #12]

  /* Set the UART Communication parameters */
  UART_SetConfig(huart);
 8002fa0:	6878      	ldr	r0, [r7, #4]
 8002fa2:	f000 f905 	bl	80031b0 <UART_SetConfig>

  /* In asynchronous mode, the following bits must be kept cleared:
     - LINEN and CLKEN bits in the USART_CR2 register,
     - SCEN, HDSEL and IREN  bits in the USART_CR3 register.*/
  CLEAR_BIT(huart->Instance->CR2, (USART_CR2_LINEN | USART_CR2_CLKEN));
 8002fa6:	687b      	ldr	r3, [r7, #4]
 8002fa8:	681b      	ldr	r3, [r3, #0]
 8002faa:	691a      	ldr	r2, [r3, #16]
 8002fac:	687b      	ldr	r3, [r7, #4]
 8002fae:	681b      	ldr	r3, [r3, #0]
 8002fb0:	f422 4290 	bic.w	r2, r2, #18432	; 0x4800
 8002fb4:	611a      	str	r2, [r3, #16]
  CLEAR_BIT(huart->Instance->CR3, (USART_CR3_SCEN | USART_CR3_HDSEL | USART_CR3_IREN));
 8002fb6:	687b      	ldr	r3, [r7, #4]
 8002fb8:	681b      	ldr	r3, [r3, #0]
 8002fba:	695a      	ldr	r2, [r3, #20]
 8002fbc:	687b      	ldr	r3, [r7, #4]
 8002fbe:	681b      	ldr	r3, [r3, #0]
 8002fc0:	f022 022a 	bic.w	r2, r2, #42	; 0x2a
 8002fc4:	615a      	str	r2, [r3, #20]

  /* Enable the peripheral */
  __HAL_UART_ENABLE(huart);
 8002fc6:	687b      	ldr	r3, [r7, #4]
 8002fc8:	681b      	ldr	r3, [r3, #0]
 8002fca:	68da      	ldr	r2, [r3, #12]
 8002fcc:	687b      	ldr	r3, [r7, #4]
 8002fce:	681b      	ldr	r3, [r3, #0]
 8002fd0:	f442 5200 	orr.w	r2, r2, #8192	; 0x2000
 8002fd4:	60da      	str	r2, [r3, #12]

  /* Initialize the UART state */
  huart->ErrorCode = HAL_UART_ERROR_NONE;
 8002fd6:	687b      	ldr	r3, [r7, #4]
 8002fd8:	2200      	movs	r2, #0
 8002fda:	641a      	str	r2, [r3, #64]	; 0x40
  huart->gState = HAL_UART_STATE_READY;
 8002fdc:	687b      	ldr	r3, [r7, #4]
 8002fde:	2220      	movs	r2, #32
 8002fe0:	f883 203d 	strb.w	r2, [r3, #61]	; 0x3d
  huart->RxState = HAL_UART_STATE_READY;
 8002fe4:	687b      	ldr	r3, [r7, #4]
 8002fe6:	2220      	movs	r2, #32
 8002fe8:	f883 203e 	strb.w	r2, [r3, #62]	; 0x3e

  return HAL_OK;
 8002fec:	2300      	movs	r3, #0
}
 8002fee:	4618      	mov	r0, r3
 8002ff0:	3708      	adds	r7, #8
 8002ff2:	46bd      	mov	sp, r7
 8002ff4:	bd80      	pop	{r7, pc}

08002ff6 <HAL_UART_Transmit>:
  * @param  Size  Amount of data elements (u8 or u16) to be sent
  * @param  Timeout Timeout duration
  * @retval HAL status
  */
HAL_StatusTypeDef HAL_UART_Transmit(UART_HandleTypeDef *huart, uint8_t *pData, uint16_t Size, uint32_t Timeout)
{
 8002ff6:	b580      	push	{r7, lr}
 8002ff8:	b08a      	sub	sp, #40	; 0x28
 8002ffa:	af02      	add	r7, sp, #8
 8002ffc:	60f8      	str	r0, [r7, #12]
 8002ffe:	60b9      	str	r1, [r7, #8]
 8003000:	603b      	str	r3, [r7, #0]
 8003002:	4613      	mov	r3, r2
 8003004:	80fb      	strh	r3, [r7, #6]
  uint8_t  *pdata8bits;
  uint16_t *pdata16bits;
  uint32_t tickstart = 0U;
 8003006:	2300      	movs	r3, #0
 8003008:	617b      	str	r3, [r7, #20]

  /* Check that a Tx process is not already ongoing */
  if (huart->gState == HAL_UART_STATE_READY)
 800300a:	68fb      	ldr	r3, [r7, #12]
 800300c:	f893 303d 	ldrb.w	r3, [r3, #61]	; 0x3d
 8003010:	b2db      	uxtb	r3, r3
 8003012:	2b20      	cmp	r3, #32
 8003014:	d17c      	bne.n	8003110 <HAL_UART_Transmit+0x11a>
  {
    if ((pData == NULL) || (Size == 0U))
 8003016:	68bb      	ldr	r3, [r7, #8]
 8003018:	2b00      	cmp	r3, #0
 800301a:	d002      	beq.n	8003022 <HAL_UART_Transmit+0x2c>
 800301c:	88fb      	ldrh	r3, [r7, #6]
 800301e:	2b00      	cmp	r3, #0
 8003020:	d101      	bne.n	8003026 <HAL_UART_Transmit+0x30>
    {
      return  HAL_ERROR;
 8003022:	2301      	movs	r3, #1
 8003024:	e075      	b.n	8003112 <HAL_UART_Transmit+0x11c>
    }

    /* Process Locked */
    __HAL_LOCK(huart);
 8003026:	68fb      	ldr	r3, [r7, #12]
 8003028:	f893 303c 	ldrb.w	r3, [r3, #60]	; 0x3c
 800302c:	2b01      	cmp	r3, #1
 800302e:	d101      	bne.n	8003034 <HAL_UART_Transmit+0x3e>
 8003030:	2302      	movs	r3, #2
 8003032:	e06e      	b.n	8003112 <HAL_UART_Transmit+0x11c>
 8003034:	68fb      	ldr	r3, [r7, #12]
 8003036:	2201      	movs	r2, #1
 8003038:	f883 203c 	strb.w	r2, [r3, #60]	; 0x3c

    huart->ErrorCode = HAL_UART_ERROR_NONE;
 800303c:	68fb      	ldr	r3, [r7, #12]
 800303e:	2200      	movs	r2, #0
 8003040:	641a      	str	r2, [r3, #64]	; 0x40
    huart->gState = HAL_UART_STATE_BUSY_TX;
 8003042:	68fb      	ldr	r3, [r7, #12]
 8003044:	2221      	movs	r2, #33	; 0x21
 8003046:	f883 203d 	strb.w	r2, [r3, #61]	; 0x3d

    /* Init tickstart for timeout management */
    tickstart = HAL_GetTick();
 800304a:	f7fd ff79 	bl	8000f40 <HAL_GetTick>
 800304e:	6178      	str	r0, [r7, #20]

    huart->TxXferSize = Size;
 8003050:	68fb      	ldr	r3, [r7, #12]
 8003052:	88fa      	ldrh	r2, [r7, #6]
 8003054:	849a      	strh	r2, [r3, #36]	; 0x24
    huart->TxXferCount = Size;
 8003056:	68fb      	ldr	r3, [r7, #12]
 8003058:	88fa      	ldrh	r2, [r7, #6]
 800305a:	84da      	strh	r2, [r3, #38]	; 0x26

    /* In case of 9bits/No Parity transfer, pData needs to be handled as a uint16_t pointer */
    if ((huart->Init.WordLength == UART_WORDLENGTH_9B) && (huart->Init.Parity == UART_PARITY_NONE))
 800305c:	68fb      	ldr	r3, [r7, #12]
 800305e:	689b      	ldr	r3, [r3, #8]
 8003060:	f5b3 5f80 	cmp.w	r3, #4096	; 0x1000
 8003064:	d108      	bne.n	8003078 <HAL_UART_Transmit+0x82>
 8003066:	68fb      	ldr	r3, [r7, #12]
 8003068:	691b      	ldr	r3, [r3, #16]
 800306a:	2b00      	cmp	r3, #0
 800306c:	d104      	bne.n	8003078 <HAL_UART_Transmit+0x82>
    {
      pdata8bits  = NULL;
 800306e:	2300      	movs	r3, #0
 8003070:	61fb      	str	r3, [r7, #28]
      pdata16bits = (uint16_t *) pData;
 8003072:	68bb      	ldr	r3, [r7, #8]
 8003074:	61bb      	str	r3, [r7, #24]
 8003076:	e003      	b.n	8003080 <HAL_UART_Transmit+0x8a>
    }
    else
    {
      pdata8bits  = pData;
 8003078:	68bb      	ldr	r3, [r7, #8]
 800307a:	61fb      	str	r3, [r7, #28]
      pdata16bits = NULL;
 800307c:	2300      	movs	r3, #0
 800307e:	61bb      	str	r3, [r7, #24]
    }

    /* Process Unlocked */
    __HAL_UNLOCK(huart);
 8003080:	68fb      	ldr	r3, [r7, #12]
 8003082:	2200      	movs	r2, #0
 8003084:	f883 203c 	strb.w	r2, [r3, #60]	; 0x3c

    while (huart->TxXferCount > 0U)
 8003088:	e02a      	b.n	80030e0 <HAL_UART_Transmit+0xea>
    {
      if (UART_WaitOnFlagUntilTimeout(huart, UART_FLAG_TXE, RESET, tickstart, Timeout) != HAL_OK)
 800308a:	683b      	ldr	r3, [r7, #0]
 800308c:	9300      	str	r3, [sp, #0]
 800308e:	697b      	ldr	r3, [r7, #20]
 8003090:	2200      	movs	r2, #0
 8003092:	2180      	movs	r1, #128	; 0x80
 8003094:	68f8      	ldr	r0, [r7, #12]
 8003096:	f000 f840 	bl	800311a <UART_WaitOnFlagUntilTimeout>
 800309a:	4603      	mov	r3, r0
 800309c:	2b00      	cmp	r3, #0
 800309e:	d001      	beq.n	80030a4 <HAL_UART_Transmit+0xae>
      {
        return HAL_TIMEOUT;
 80030a0:	2303      	movs	r3, #3
 80030a2:	e036      	b.n	8003112 <HAL_UART_Transmit+0x11c>
      }
      if (pdata8bits == NULL)
 80030a4:	69fb      	ldr	r3, [r7, #28]
 80030a6:	2b00      	cmp	r3, #0
 80030a8:	d10b      	bne.n	80030c2 <HAL_UART_Transmit+0xcc>
      {
        huart->Instance->DR = (uint16_t)(*pdata16bits & 0x01FFU);
 80030aa:	69bb      	ldr	r3, [r7, #24]
 80030ac:	881b      	ldrh	r3, [r3, #0]
 80030ae:	461a      	mov	r2, r3
 80030b0:	68fb      	ldr	r3, [r7, #12]
 80030b2:	681b      	ldr	r3, [r3, #0]
 80030b4:	f3c2 0208 	ubfx	r2, r2, #0, #9
 80030b8:	605a      	str	r2, [r3, #4]
        pdata16bits++;
 80030ba:	69bb      	ldr	r3, [r7, #24]
 80030bc:	3302      	adds	r3, #2
 80030be:	61bb      	str	r3, [r7, #24]
 80030c0:	e007      	b.n	80030d2 <HAL_UART_Transmit+0xdc>
      }
      else
      {
        huart->Instance->DR = (uint8_t)(*pdata8bits & 0xFFU);
 80030c2:	69fb      	ldr	r3, [r7, #28]
 80030c4:	781a      	ldrb	r2, [r3, #0]
 80030c6:	68fb      	ldr	r3, [r7, #12]
 80030c8:	681b      	ldr	r3, [r3, #0]
 80030ca:	605a      	str	r2, [r3, #4]
        pdata8bits++;
 80030cc:	69fb      	ldr	r3, [r7, #28]
 80030ce:	3301      	adds	r3, #1
 80030d0:	61fb      	str	r3, [r7, #28]
      }
      huart->TxXferCount--;
 80030d2:	68fb      	ldr	r3, [r7, #12]
 80030d4:	8cdb      	ldrh	r3, [r3, #38]	; 0x26
 80030d6:	b29b      	uxth	r3, r3
 80030d8:	3b01      	subs	r3, #1
 80030da:	b29a      	uxth	r2, r3
 80030dc:	68fb      	ldr	r3, [r7, #12]
 80030de:	84da      	strh	r2, [r3, #38]	; 0x26
    while (huart->TxXferCount > 0U)
 80030e0:	68fb      	ldr	r3, [r7, #12]
 80030e2:	8cdb      	ldrh	r3, [r3, #38]	; 0x26
 80030e4:	b29b      	uxth	r3, r3
 80030e6:	2b00      	cmp	r3, #0
 80030e8:	d1cf      	bne.n	800308a <HAL_UART_Transmit+0x94>
    }

    if (UART_WaitOnFlagUntilTimeout(huart, UART_FLAG_TC, RESET, tickstart, Timeout) != HAL_OK)
 80030ea:	683b      	ldr	r3, [r7, #0]
 80030ec:	9300      	str	r3, [sp, #0]
 80030ee:	697b      	ldr	r3, [r7, #20]
 80030f0:	2200      	movs	r2, #0
 80030f2:	2140      	movs	r1, #64	; 0x40
 80030f4:	68f8      	ldr	r0, [r7, #12]
 80030f6:	f000 f810 	bl	800311a <UART_WaitOnFlagUntilTimeout>
 80030fa:	4603      	mov	r3, r0
 80030fc:	2b00      	cmp	r3, #0
 80030fe:	d001      	beq.n	8003104 <HAL_UART_Transmit+0x10e>
    {
      return HAL_TIMEOUT;
 8003100:	2303      	movs	r3, #3
 8003102:	e006      	b.n	8003112 <HAL_UART_Transmit+0x11c>
    }

    /* At end of Tx process, restore huart->gState to Ready */
    huart->gState = HAL_UART_STATE_READY;
 8003104:	68fb      	ldr	r3, [r7, #12]
 8003106:	2220      	movs	r2, #32
 8003108:	f883 203d 	strb.w	r2, [r3, #61]	; 0x3d

    return HAL_OK;
 800310c:	2300      	movs	r3, #0
 800310e:	e000      	b.n	8003112 <HAL_UART_Transmit+0x11c>
  }
  else
  {
    return HAL_BUSY;
 8003110:	2302      	movs	r3, #2
  }
}
 8003112:	4618      	mov	r0, r3
 8003114:	3720      	adds	r7, #32
 8003116:	46bd      	mov	sp, r7
 8003118:	bd80      	pop	{r7, pc}

0800311a <UART_WaitOnFlagUntilTimeout>:
  * @param  Tickstart Tick start value
  * @param  Timeout Timeout duration
  * @retval HAL status
  */
static HAL_StatusTypeDef UART_WaitOnFlagUntilTimeout(UART_HandleTypeDef *huart, uint32_t Flag, FlagStatus Status, uint32_t Tickstart, uint32_t Timeout)
{
 800311a:	b580      	push	{r7, lr}
 800311c:	b084      	sub	sp, #16
 800311e:	af00      	add	r7, sp, #0
 8003120:	60f8      	str	r0, [r7, #12]
 8003122:	60b9      	str	r1, [r7, #8]
 8003124:	603b      	str	r3, [r7, #0]
 8003126:	4613      	mov	r3, r2
 8003128:	71fb      	strb	r3, [r7, #7]
  /* Wait until flag is set */
  while ((__HAL_UART_GET_FLAG(huart, Flag) ? SET : RESET) == Status)
 800312a:	e02c      	b.n	8003186 <UART_WaitOnFlagUntilTimeout+0x6c>
  {
    /* Check for the Timeout */
    if (Timeout != HAL_MAX_DELAY)
 800312c:	69bb      	ldr	r3, [r7, #24]
 800312e:	f1b3 3fff 	cmp.w	r3, #4294967295
 8003132:	d028      	beq.n	8003186 <UART_WaitOnFlagUntilTimeout+0x6c>
    {
      if ((Timeout == 0U) || ((HAL_GetTick() - Tickstart) > Timeout))
 8003134:	69bb      	ldr	r3, [r7, #24]
 8003136:	2b00      	cmp	r3, #0
 8003138:	d007      	beq.n	800314a <UART_WaitOnFlagUntilTimeout+0x30>
 800313a:	f7fd ff01 	bl	8000f40 <HAL_GetTick>
 800313e:	4602      	mov	r2, r0
 8003140:	683b      	ldr	r3, [r7, #0]
 8003142:	1ad3      	subs	r3, r2, r3
 8003144:	69ba      	ldr	r2, [r7, #24]
 8003146:	429a      	cmp	r2, r3
 8003148:	d21d      	bcs.n	8003186 <UART_WaitOnFlagUntilTimeout+0x6c>
      {
        /* Disable TXE, RXNE, PE and ERR (Frame error, noise error, overrun error) interrupts for the interrupt process */
        CLEAR_BIT(huart->Instance->CR1, (USART_CR1_RXNEIE | USART_CR1_PEIE | USART_CR1_TXEIE));
 800314a:	68fb      	ldr	r3, [r7, #12]
 800314c:	681b      	ldr	r3, [r3, #0]
 800314e:	68da      	ldr	r2, [r3, #12]
 8003150:	68fb      	ldr	r3, [r7, #12]
 8003152:	681b      	ldr	r3, [r3, #0]
 8003154:	f422 72d0 	bic.w	r2, r2, #416	; 0x1a0
 8003158:	60da      	str	r2, [r3, #12]
        CLEAR_BIT(huart->Instance->CR3, USART_CR3_EIE);
 800315a:	68fb      	ldr	r3, [r7, #12]
 800315c:	681b      	ldr	r3, [r3, #0]
 800315e:	695a      	ldr	r2, [r3, #20]
 8003160:	68fb      	ldr	r3, [r7, #12]
 8003162:	681b      	ldr	r3, [r3, #0]
 8003164:	f022 0201 	bic.w	r2, r2, #1
 8003168:	615a      	str	r2, [r3, #20]

        huart->gState  = HAL_UART_STATE_READY;
 800316a:	68fb      	ldr	r3, [r7, #12]
 800316c:	2220      	movs	r2, #32
 800316e:	f883 203d 	strb.w	r2, [r3, #61]	; 0x3d
        huart->RxState = HAL_UART_STATE_READY;
 8003172:	68fb      	ldr	r3, [r7, #12]
 8003174:	2220      	movs	r2, #32
 8003176:	f883 203e 	strb.w	r2, [r3, #62]	; 0x3e

        /* Process Unlocked */
        __HAL_UNLOCK(huart);
 800317a:	68fb      	ldr	r3, [r7, #12]
 800317c:	2200      	movs	r2, #0
 800317e:	f883 203c 	strb.w	r2, [r3, #60]	; 0x3c

        return HAL_TIMEOUT;
 8003182:	2303      	movs	r3, #3
 8003184:	e00f      	b.n	80031a6 <UART_WaitOnFlagUntilTimeout+0x8c>
  while ((__HAL_UART_GET_FLAG(huart, Flag) ? SET : RESET) == Status)
 8003186:	68fb      	ldr	r3, [r7, #12]
 8003188:	681b      	ldr	r3, [r3, #0]
 800318a:	681a      	ldr	r2, [r3, #0]
 800318c:	68bb      	ldr	r3, [r7, #8]
 800318e:	4013      	ands	r3, r2
 8003190:	68ba      	ldr	r2, [r7, #8]
 8003192:	429a      	cmp	r2, r3
 8003194:	bf0c      	ite	eq
 8003196:	2301      	moveq	r3, #1
 8003198:	2300      	movne	r3, #0
 800319a:	b2db      	uxtb	r3, r3
 800319c:	461a      	mov	r2, r3
 800319e:	79fb      	ldrb	r3, [r7, #7]
 80031a0:	429a      	cmp	r2, r3
 80031a2:	d0c3      	beq.n	800312c <UART_WaitOnFlagUntilTimeout+0x12>
      }
    }
  }
  return HAL_OK;
 80031a4:	2300      	movs	r3, #0
}
 80031a6:	4618      	mov	r0, r3
 80031a8:	3710      	adds	r7, #16
 80031aa:	46bd      	mov	sp, r7
 80031ac:	bd80      	pop	{r7, pc}
	...

080031b0 <UART_SetConfig>:
  * @param  huart  Pointer to a UART_HandleTypeDef structure that contains
  *                the configuration information for the specified UART module.
  * @retval None
  */
static void UART_SetConfig(UART_HandleTypeDef *huart)
{
 80031b0:	b580      	push	{r7, lr}
 80031b2:	b084      	sub	sp, #16
 80031b4:	af00      	add	r7, sp, #0
 80031b6:	6078      	str	r0, [r7, #4]
  assert_param(IS_UART_MODE(huart->Init.Mode));

  /*-------------------------- USART CR2 Configuration -----------------------*/
  /* Configure the UART Stop Bits: Set STOP[13:12] bits
     according to huart->Init.StopBits value */
  MODIFY_REG(huart->Instance->CR2, USART_CR2_STOP, huart->Init.StopBits);
 80031b8:	687b      	ldr	r3, [r7, #4]
 80031ba:	681b      	ldr	r3, [r3, #0]
 80031bc:	691b      	ldr	r3, [r3, #16]
 80031be:	f423 5140 	bic.w	r1, r3, #12288	; 0x3000
 80031c2:	687b      	ldr	r3, [r7, #4]
 80031c4:	68da      	ldr	r2, [r3, #12]
 80031c6:	687b      	ldr	r3, [r7, #4]
 80031c8:	681b      	ldr	r3, [r3, #0]
 80031ca:	430a      	orrs	r2, r1
 80031cc:	611a      	str	r2, [r3, #16]
  tmpreg = (uint32_t)huart->Init.WordLength | huart->Init.Parity | huart->Init.Mode | huart->Init.OverSampling;
  MODIFY_REG(huart->Instance->CR1,
             (uint32_t)(USART_CR1_M | USART_CR1_PCE | USART_CR1_PS | USART_CR1_TE | USART_CR1_RE | USART_CR1_OVER8),
             tmpreg);
#else
  tmpreg = (uint32_t)huart->Init.WordLength | huart->Init.Parity | huart->Init.Mode;
 80031ce:	687b      	ldr	r3, [r7, #4]
 80031d0:	689a      	ldr	r2, [r3, #8]
 80031d2:	687b      	ldr	r3, [r7, #4]
 80031d4:	691b      	ldr	r3, [r3, #16]
 80031d6:	431a      	orrs	r2, r3
 80031d8:	687b      	ldr	r3, [r7, #4]
 80031da:	695b      	ldr	r3, [r3, #20]
 80031dc:	4313      	orrs	r3, r2
 80031de:	60bb      	str	r3, [r7, #8]
  MODIFY_REG(huart->Instance->CR1,
 80031e0:	687b      	ldr	r3, [r7, #4]
 80031e2:	681b      	ldr	r3, [r3, #0]
 80031e4:	68db      	ldr	r3, [r3, #12]
 80031e6:	f423 53b0 	bic.w	r3, r3, #5632	; 0x1600
 80031ea:	f023 030c 	bic.w	r3, r3, #12
 80031ee:	687a      	ldr	r2, [r7, #4]
 80031f0:	6812      	ldr	r2, [r2, #0]
 80031f2:	68b9      	ldr	r1, [r7, #8]
 80031f4:	430b      	orrs	r3, r1
 80031f6:	60d3      	str	r3, [r2, #12]
             tmpreg);
#endif /* USART_CR1_OVER8 */

  /*-------------------------- USART CR3 Configuration -----------------------*/
  /* Configure the UART HFC: Set CTSE and RTSE bits according to huart->Init.HwFlowCtl value */
  MODIFY_REG(huart->Instance->CR3, (USART_CR3_RTSE | USART_CR3_CTSE), huart->Init.HwFlowCtl);
 80031f8:	687b      	ldr	r3, [r7, #4]
 80031fa:	681b      	ldr	r3, [r3, #0]
 80031fc:	695b      	ldr	r3, [r3, #20]
 80031fe:	f423 7140 	bic.w	r1, r3, #768	; 0x300
 8003202:	687b      	ldr	r3, [r7, #4]
 8003204:	699a      	ldr	r2, [r3, #24]
 8003206:	687b      	ldr	r3, [r7, #4]
 8003208:	681b      	ldr	r3, [r3, #0]
 800320a:	430a      	orrs	r2, r1
 800320c:	615a      	str	r2, [r3, #20]


  if(huart->Instance == USART1)
 800320e:	687b      	ldr	r3, [r7, #4]
 8003210:	681b      	ldr	r3, [r3, #0]
 8003212:	4a2c      	ldr	r2, [pc, #176]	; (80032c4 <UART_SetConfig+0x114>)
 8003214:	4293      	cmp	r3, r2
 8003216:	d103      	bne.n	8003220 <UART_SetConfig+0x70>
  {
    pclk = HAL_RCC_GetPCLK2Freq();
 8003218:	f7fe fd52 	bl	8001cc0 <HAL_RCC_GetPCLK2Freq>
 800321c:	60f8      	str	r0, [r7, #12]
 800321e:	e002      	b.n	8003226 <UART_SetConfig+0x76>
  }
  else
  {
    pclk = HAL_RCC_GetPCLK1Freq();
 8003220:	f7fe fd3a 	bl	8001c98 <HAL_RCC_GetPCLK1Freq>
 8003224:	60f8      	str	r0, [r7, #12]
  else
  {
    huart->Instance->BRR = UART_BRR_SAMPLING16(pclk, huart->Init.BaudRate);
  }
#else
  huart->Instance->BRR = UART_BRR_SAMPLING16(pclk, huart->Init.BaudRate);
 8003226:	68fa      	ldr	r2, [r7, #12]
 8003228:	4613      	mov	r3, r2
 800322a:	009b      	lsls	r3, r3, #2
 800322c:	4413      	add	r3, r2
 800322e:	009a      	lsls	r2, r3, #2
 8003230:	441a      	add	r2, r3
 8003232:	687b      	ldr	r3, [r7, #4]
 8003234:	685b      	ldr	r3, [r3, #4]
 8003236:	009b      	lsls	r3, r3, #2
 8003238:	fbb2 f3f3 	udiv	r3, r2, r3
 800323c:	4a22      	ldr	r2, [pc, #136]	; (80032c8 <UART_SetConfig+0x118>)
 800323e:	fba2 2303 	umull	r2, r3, r2, r3
 8003242:	095b      	lsrs	r3, r3, #5
 8003244:	0119      	lsls	r1, r3, #4
 8003246:	68fa      	ldr	r2, [r7, #12]
 8003248:	4613      	mov	r3, r2
 800324a:	009b      	lsls	r3, r3, #2
 800324c:	4413      	add	r3, r2
 800324e:	009a      	lsls	r2, r3, #2
 8003250:	441a      	add	r2, r3
 8003252:	687b      	ldr	r3, [r7, #4]
 8003254:	685b      	ldr	r3, [r3, #4]
 8003256:	009b      	lsls	r3, r3, #2
 8003258:	fbb2 f2f3 	udiv	r2, r2, r3
 800325c:	4b1a      	ldr	r3, [pc, #104]	; (80032c8 <UART_SetConfig+0x118>)
 800325e:	fba3 0302 	umull	r0, r3, r3, r2
 8003262:	095b      	lsrs	r3, r3, #5
 8003264:	2064      	movs	r0, #100	; 0x64
 8003266:	fb00 f303 	mul.w	r3, r0, r3
 800326a:	1ad3      	subs	r3, r2, r3
 800326c:	011b      	lsls	r3, r3, #4
 800326e:	3332      	adds	r3, #50	; 0x32
 8003270:	4a15      	ldr	r2, [pc, #84]	; (80032c8 <UART_SetConfig+0x118>)
 8003272:	fba2 2303 	umull	r2, r3, r2, r3
 8003276:	095b      	lsrs	r3, r3, #5
 8003278:	f003 03f0 	and.w	r3, r3, #240	; 0xf0
 800327c:	4419      	add	r1, r3
 800327e:	68fa      	ldr	r2, [r7, #12]
 8003280:	4613      	mov	r3, r2
 8003282:	009b      	lsls	r3, r3, #2
 8003284:	4413      	add	r3, r2
 8003286:	009a      	lsls	r2, r3, #2
 8003288:	441a      	add	r2, r3
 800328a:	687b      	ldr	r3, [r7, #4]
 800328c:	685b      	ldr	r3, [r3, #4]
 800328e:	009b      	lsls	r3, r3, #2
 8003290:	fbb2 f2f3 	udiv	r2, r2, r3
 8003294:	4b0c      	ldr	r3, [pc, #48]	; (80032c8 <UART_SetConfig+0x118>)
 8003296:	fba3 0302 	umull	r0, r3, r3, r2
 800329a:	095b      	lsrs	r3, r3, #5
 800329c:	2064      	movs	r0, #100	; 0x64
 800329e:	fb00 f303 	mul.w	r3, r0, r3
 80032a2:	1ad3      	subs	r3, r2, r3
 80032a4:	011b      	lsls	r3, r3, #4
 80032a6:	3332      	adds	r3, #50	; 0x32
 80032a8:	4a07      	ldr	r2, [pc, #28]	; (80032c8 <UART_SetConfig+0x118>)
 80032aa:	fba2 2303 	umull	r2, r3, r2, r3
 80032ae:	095b      	lsrs	r3, r3, #5
 80032b0:	f003 020f 	and.w	r2, r3, #15
 80032b4:	687b      	ldr	r3, [r7, #4]
 80032b6:	681b      	ldr	r3, [r3, #0]
 80032b8:	440a      	add	r2, r1
 80032ba:	609a      	str	r2, [r3, #8]
#endif /* USART_CR1_OVER8 */
}
 80032bc:	bf00      	nop
 80032be:	3710      	adds	r7, #16
 80032c0:	46bd      	mov	sp, r7
 80032c2:	bd80      	pop	{r7, pc}
 80032c4:	40013800 	.word	0x40013800
 80032c8:	51eb851f 	.word	0x51eb851f

080032cc <__errno>:
 80032cc:	4b01      	ldr	r3, [pc, #4]	; (80032d4 <__errno+0x8>)
 80032ce:	6818      	ldr	r0, [r3, #0]
 80032d0:	4770      	bx	lr
 80032d2:	bf00      	nop
 80032d4:	2000000c 	.word	0x2000000c

080032d8 <__libc_init_array>:
 80032d8:	b570      	push	{r4, r5, r6, lr}
 80032da:	2600      	movs	r6, #0
 80032dc:	4d0c      	ldr	r5, [pc, #48]	; (8003310 <__libc_init_array+0x38>)
 80032de:	4c0d      	ldr	r4, [pc, #52]	; (8003314 <__libc_init_array+0x3c>)
 80032e0:	1b64      	subs	r4, r4, r5
 80032e2:	10a4      	asrs	r4, r4, #2
 80032e4:	42a6      	cmp	r6, r4
 80032e6:	d109      	bne.n	80032fc <__libc_init_array+0x24>
 80032e8:	f001 f954 	bl	8004594 <_init>
 80032ec:	2600      	movs	r6, #0
 80032ee:	4d0a      	ldr	r5, [pc, #40]	; (8003318 <__libc_init_array+0x40>)
 80032f0:	4c0a      	ldr	r4, [pc, #40]	; (800331c <__libc_init_array+0x44>)
 80032f2:	1b64      	subs	r4, r4, r5
 80032f4:	10a4      	asrs	r4, r4, #2
 80032f6:	42a6      	cmp	r6, r4
 80032f8:	d105      	bne.n	8003306 <__libc_init_array+0x2e>
 80032fa:	bd70      	pop	{r4, r5, r6, pc}
 80032fc:	f855 3b04 	ldr.w	r3, [r5], #4
 8003300:	4798      	blx	r3
 8003302:	3601      	adds	r6, #1
 8003304:	e7ee      	b.n	80032e4 <__libc_init_array+0xc>
 8003306:	f855 3b04 	ldr.w	r3, [r5], #4
 800330a:	4798      	blx	r3
 800330c:	3601      	adds	r6, #1
 800330e:	e7f2      	b.n	80032f6 <__libc_init_array+0x1e>
 8003310:	0800467c 	.word	0x0800467c
 8003314:	0800467c 	.word	0x0800467c
 8003318:	0800467c 	.word	0x0800467c
 800331c:	08004680 	.word	0x08004680

08003320 <memset>:
 8003320:	4603      	mov	r3, r0
 8003322:	4402      	add	r2, r0
 8003324:	4293      	cmp	r3, r2
 8003326:	d100      	bne.n	800332a <memset+0xa>
 8003328:	4770      	bx	lr
 800332a:	f803 1b01 	strb.w	r1, [r3], #1
 800332e:	e7f9      	b.n	8003324 <memset+0x4>

08003330 <iprintf>:
 8003330:	b40f      	push	{r0, r1, r2, r3}
 8003332:	4b0a      	ldr	r3, [pc, #40]	; (800335c <iprintf+0x2c>)
 8003334:	b513      	push	{r0, r1, r4, lr}
 8003336:	681c      	ldr	r4, [r3, #0]
 8003338:	b124      	cbz	r4, 8003344 <iprintf+0x14>
 800333a:	69a3      	ldr	r3, [r4, #24]
 800333c:	b913      	cbnz	r3, 8003344 <iprintf+0x14>
 800333e:	4620      	mov	r0, r4
 8003340:	f000 f886 	bl	8003450 <__sinit>
 8003344:	ab05      	add	r3, sp, #20
 8003346:	4620      	mov	r0, r4
 8003348:	9a04      	ldr	r2, [sp, #16]
 800334a:	68a1      	ldr	r1, [r4, #8]
 800334c:	9301      	str	r3, [sp, #4]
 800334e:	f000 fafd 	bl	800394c <_vfiprintf_r>
 8003352:	b002      	add	sp, #8
 8003354:	e8bd 4010 	ldmia.w	sp!, {r4, lr}
 8003358:	b004      	add	sp, #16
 800335a:	4770      	bx	lr
 800335c:	2000000c 	.word	0x2000000c

08003360 <siprintf>:
 8003360:	b40e      	push	{r1, r2, r3}
 8003362:	f06f 4100 	mvn.w	r1, #2147483648	; 0x80000000
 8003366:	b500      	push	{lr}
 8003368:	b09c      	sub	sp, #112	; 0x70
 800336a:	ab1d      	add	r3, sp, #116	; 0x74
 800336c:	9002      	str	r0, [sp, #8]
 800336e:	9006      	str	r0, [sp, #24]
 8003370:	9107      	str	r1, [sp, #28]
 8003372:	9104      	str	r1, [sp, #16]
 8003374:	4808      	ldr	r0, [pc, #32]	; (8003398 <siprintf+0x38>)
 8003376:	4909      	ldr	r1, [pc, #36]	; (800339c <siprintf+0x3c>)
 8003378:	f853 2b04 	ldr.w	r2, [r3], #4
 800337c:	9105      	str	r1, [sp, #20]
 800337e:	6800      	ldr	r0, [r0, #0]
 8003380:	a902      	add	r1, sp, #8
 8003382:	9301      	str	r3, [sp, #4]
 8003384:	f000 f9ba 	bl	80036fc <_svfiprintf_r>
 8003388:	2200      	movs	r2, #0
 800338a:	9b02      	ldr	r3, [sp, #8]
 800338c:	701a      	strb	r2, [r3, #0]
 800338e:	b01c      	add	sp, #112	; 0x70
 8003390:	f85d eb04 	ldr.w	lr, [sp], #4
 8003394:	b003      	add	sp, #12
 8003396:	4770      	bx	lr
 8003398:	2000000c 	.word	0x2000000c
 800339c:	ffff0208 	.word	0xffff0208

080033a0 <std>:
 80033a0:	2300      	movs	r3, #0
 80033a2:	b510      	push	{r4, lr}
 80033a4:	4604      	mov	r4, r0
 80033a6:	e9c0 3300 	strd	r3, r3, [r0]
 80033aa:	e9c0 3304 	strd	r3, r3, [r0, #16]
 80033ae:	6083      	str	r3, [r0, #8]
 80033b0:	8181      	strh	r1, [r0, #12]
 80033b2:	6643      	str	r3, [r0, #100]	; 0x64
 80033b4:	81c2      	strh	r2, [r0, #14]
 80033b6:	6183      	str	r3, [r0, #24]
 80033b8:	4619      	mov	r1, r3
 80033ba:	2208      	movs	r2, #8
 80033bc:	305c      	adds	r0, #92	; 0x5c
 80033be:	f7ff ffaf 	bl	8003320 <memset>
 80033c2:	4b05      	ldr	r3, [pc, #20]	; (80033d8 <std+0x38>)
 80033c4:	6224      	str	r4, [r4, #32]
 80033c6:	6263      	str	r3, [r4, #36]	; 0x24
 80033c8:	4b04      	ldr	r3, [pc, #16]	; (80033dc <std+0x3c>)
 80033ca:	62a3      	str	r3, [r4, #40]	; 0x28
 80033cc:	4b04      	ldr	r3, [pc, #16]	; (80033e0 <std+0x40>)
 80033ce:	62e3      	str	r3, [r4, #44]	; 0x2c
 80033d0:	4b04      	ldr	r3, [pc, #16]	; (80033e4 <std+0x44>)
 80033d2:	6323      	str	r3, [r4, #48]	; 0x30
 80033d4:	bd10      	pop	{r4, pc}
 80033d6:	bf00      	nop
 80033d8:	08003ef9 	.word	0x08003ef9
 80033dc:	08003f1b 	.word	0x08003f1b
 80033e0:	08003f53 	.word	0x08003f53
 80033e4:	08003f77 	.word	0x08003f77

080033e8 <_cleanup_r>:
 80033e8:	4901      	ldr	r1, [pc, #4]	; (80033f0 <_cleanup_r+0x8>)
 80033ea:	f000 b8af 	b.w	800354c <_fwalk_reent>
 80033ee:	bf00      	nop
 80033f0:	08004251 	.word	0x08004251

080033f4 <__sfmoreglue>:
 80033f4:	b570      	push	{r4, r5, r6, lr}
 80033f6:	2568      	movs	r5, #104	; 0x68
 80033f8:	1e4a      	subs	r2, r1, #1
 80033fa:	4355      	muls	r5, r2
 80033fc:	460e      	mov	r6, r1
 80033fe:	f105 0174 	add.w	r1, r5, #116	; 0x74
 8003402:	f000 f8c5 	bl	8003590 <_malloc_r>
 8003406:	4604      	mov	r4, r0
 8003408:	b140      	cbz	r0, 800341c <__sfmoreglue+0x28>
 800340a:	2100      	movs	r1, #0
 800340c:	e9c0 1600 	strd	r1, r6, [r0]
 8003410:	300c      	adds	r0, #12
 8003412:	60a0      	str	r0, [r4, #8]
 8003414:	f105 0268 	add.w	r2, r5, #104	; 0x68
 8003418:	f7ff ff82 	bl	8003320 <memset>
 800341c:	4620      	mov	r0, r4
 800341e:	bd70      	pop	{r4, r5, r6, pc}

08003420 <__sfp_lock_acquire>:
 8003420:	4801      	ldr	r0, [pc, #4]	; (8003428 <__sfp_lock_acquire+0x8>)
 8003422:	f000 b8b3 	b.w	800358c <__retarget_lock_acquire_recursive>
 8003426:	bf00      	nop
 8003428:	200001e4 	.word	0x200001e4

0800342c <__sfp_lock_release>:
 800342c:	4801      	ldr	r0, [pc, #4]	; (8003434 <__sfp_lock_release+0x8>)
 800342e:	f000 b8ae 	b.w	800358e <__retarget_lock_release_recursive>
 8003432:	bf00      	nop
 8003434:	200001e4 	.word	0x200001e4

08003438 <__sinit_lock_acquire>:
 8003438:	4801      	ldr	r0, [pc, #4]	; (8003440 <__sinit_lock_acquire+0x8>)
 800343a:	f000 b8a7 	b.w	800358c <__retarget_lock_acquire_recursive>
 800343e:	bf00      	nop
 8003440:	200001df 	.word	0x200001df

08003444 <__sinit_lock_release>:
 8003444:	4801      	ldr	r0, [pc, #4]	; (800344c <__sinit_lock_release+0x8>)
 8003446:	f000 b8a2 	b.w	800358e <__retarget_lock_release_recursive>
 800344a:	bf00      	nop
 800344c:	200001df 	.word	0x200001df

08003450 <__sinit>:
 8003450:	b510      	push	{r4, lr}
 8003452:	4604      	mov	r4, r0
 8003454:	f7ff fff0 	bl	8003438 <__sinit_lock_acquire>
 8003458:	69a3      	ldr	r3, [r4, #24]
 800345a:	b11b      	cbz	r3, 8003464 <__sinit+0x14>
 800345c:	e8bd 4010 	ldmia.w	sp!, {r4, lr}
 8003460:	f7ff bff0 	b.w	8003444 <__sinit_lock_release>
 8003464:	e9c4 3312 	strd	r3, r3, [r4, #72]	; 0x48
 8003468:	6523      	str	r3, [r4, #80]	; 0x50
 800346a:	4b13      	ldr	r3, [pc, #76]	; (80034b8 <__sinit+0x68>)
 800346c:	4a13      	ldr	r2, [pc, #76]	; (80034bc <__sinit+0x6c>)
 800346e:	681b      	ldr	r3, [r3, #0]
 8003470:	62a2      	str	r2, [r4, #40]	; 0x28
 8003472:	42a3      	cmp	r3, r4
 8003474:	bf08      	it	eq
 8003476:	2301      	moveq	r3, #1
 8003478:	4620      	mov	r0, r4
 800347a:	bf08      	it	eq
 800347c:	61a3      	streq	r3, [r4, #24]
 800347e:	f000 f81f 	bl	80034c0 <__sfp>
 8003482:	6060      	str	r0, [r4, #4]
 8003484:	4620      	mov	r0, r4
 8003486:	f000 f81b 	bl	80034c0 <__sfp>
 800348a:	60a0      	str	r0, [r4, #8]
 800348c:	4620      	mov	r0, r4
 800348e:	f000 f817 	bl	80034c0 <__sfp>
 8003492:	2200      	movs	r2, #0
 8003494:	2104      	movs	r1, #4
 8003496:	60e0      	str	r0, [r4, #12]
 8003498:	6860      	ldr	r0, [r4, #4]
 800349a:	f7ff ff81 	bl	80033a0 <std>
 800349e:	2201      	movs	r2, #1
 80034a0:	2109      	movs	r1, #9
 80034a2:	68a0      	ldr	r0, [r4, #8]
 80034a4:	f7ff ff7c 	bl	80033a0 <std>
 80034a8:	2202      	movs	r2, #2
 80034aa:	2112      	movs	r1, #18
 80034ac:	68e0      	ldr	r0, [r4, #12]
 80034ae:	f7ff ff77 	bl	80033a0 <std>
 80034b2:	2301      	movs	r3, #1
 80034b4:	61a3      	str	r3, [r4, #24]
 80034b6:	e7d1      	b.n	800345c <__sinit+0xc>
 80034b8:	080045e4 	.word	0x080045e4
 80034bc:	080033e9 	.word	0x080033e9

080034c0 <__sfp>:
 80034c0:	b5f8      	push	{r3, r4, r5, r6, r7, lr}
 80034c2:	4607      	mov	r7, r0
 80034c4:	f7ff ffac 	bl	8003420 <__sfp_lock_acquire>
 80034c8:	4b1e      	ldr	r3, [pc, #120]	; (8003544 <__sfp+0x84>)
 80034ca:	681e      	ldr	r6, [r3, #0]
 80034cc:	69b3      	ldr	r3, [r6, #24]
 80034ce:	b913      	cbnz	r3, 80034d6 <__sfp+0x16>
 80034d0:	4630      	mov	r0, r6
 80034d2:	f7ff ffbd 	bl	8003450 <__sinit>
 80034d6:	3648      	adds	r6, #72	; 0x48
 80034d8:	e9d6 3401 	ldrd	r3, r4, [r6, #4]
 80034dc:	3b01      	subs	r3, #1
 80034de:	d503      	bpl.n	80034e8 <__sfp+0x28>
 80034e0:	6833      	ldr	r3, [r6, #0]
 80034e2:	b30b      	cbz	r3, 8003528 <__sfp+0x68>
 80034e4:	6836      	ldr	r6, [r6, #0]
 80034e6:	e7f7      	b.n	80034d8 <__sfp+0x18>
 80034e8:	f9b4 500c 	ldrsh.w	r5, [r4, #12]
 80034ec:	b9d5      	cbnz	r5, 8003524 <__sfp+0x64>
 80034ee:	4b16      	ldr	r3, [pc, #88]	; (8003548 <__sfp+0x88>)
 80034f0:	f104 0058 	add.w	r0, r4, #88	; 0x58
 80034f4:	60e3      	str	r3, [r4, #12]
 80034f6:	6665      	str	r5, [r4, #100]	; 0x64
 80034f8:	f000 f847 	bl	800358a <__retarget_lock_init_recursive>
 80034fc:	f7ff ff96 	bl	800342c <__sfp_lock_release>
 8003500:	2208      	movs	r2, #8
 8003502:	4629      	mov	r1, r5
 8003504:	e9c4 5501 	strd	r5, r5, [r4, #4]
 8003508:	e9c4 5504 	strd	r5, r5, [r4, #16]
 800350c:	6025      	str	r5, [r4, #0]
 800350e:	61a5      	str	r5, [r4, #24]
 8003510:	f104 005c 	add.w	r0, r4, #92	; 0x5c
 8003514:	f7ff ff04 	bl	8003320 <memset>
 8003518:	e9c4 550d 	strd	r5, r5, [r4, #52]	; 0x34
 800351c:	e9c4 5512 	strd	r5, r5, [r4, #72]	; 0x48
 8003520:	4620      	mov	r0, r4
 8003522:	bdf8      	pop	{r3, r4, r5, r6, r7, pc}
 8003524:	3468      	adds	r4, #104	; 0x68
 8003526:	e7d9      	b.n	80034dc <__sfp+0x1c>
 8003528:	2104      	movs	r1, #4
 800352a:	4638      	mov	r0, r7
 800352c:	f7ff ff62 	bl	80033f4 <__sfmoreglue>
 8003530:	4604      	mov	r4, r0
 8003532:	6030      	str	r0, [r6, #0]
 8003534:	2800      	cmp	r0, #0
 8003536:	d1d5      	bne.n	80034e4 <__sfp+0x24>
 8003538:	f7ff ff78 	bl	800342c <__sfp_lock_release>
 800353c:	230c      	movs	r3, #12
 800353e:	603b      	str	r3, [r7, #0]
 8003540:	e7ee      	b.n	8003520 <__sfp+0x60>
 8003542:	bf00      	nop
 8003544:	080045e4 	.word	0x080045e4
 8003548:	ffff0001 	.word	0xffff0001

0800354c <_fwalk_reent>:
 800354c:	e92d 43f8 	stmdb	sp!, {r3, r4, r5, r6, r7, r8, r9, lr}
 8003550:	4606      	mov	r6, r0
 8003552:	4688      	mov	r8, r1
 8003554:	2700      	movs	r7, #0
 8003556:	f100 0448 	add.w	r4, r0, #72	; 0x48
 800355a:	e9d4 9501 	ldrd	r9, r5, [r4, #4]
 800355e:	f1b9 0901 	subs.w	r9, r9, #1
 8003562:	d505      	bpl.n	8003570 <_fwalk_reent+0x24>
 8003564:	6824      	ldr	r4, [r4, #0]
 8003566:	2c00      	cmp	r4, #0
 8003568:	d1f7      	bne.n	800355a <_fwalk_reent+0xe>
 800356a:	4638      	mov	r0, r7
 800356c:	e8bd 83f8 	ldmia.w	sp!, {r3, r4, r5, r6, r7, r8, r9, pc}
 8003570:	89ab      	ldrh	r3, [r5, #12]
 8003572:	2b01      	cmp	r3, #1
 8003574:	d907      	bls.n	8003586 <_fwalk_reent+0x3a>
 8003576:	f9b5 300e 	ldrsh.w	r3, [r5, #14]
 800357a:	3301      	adds	r3, #1
 800357c:	d003      	beq.n	8003586 <_fwalk_reent+0x3a>
 800357e:	4629      	mov	r1, r5
 8003580:	4630      	mov	r0, r6
 8003582:	47c0      	blx	r8
 8003584:	4307      	orrs	r7, r0
 8003586:	3568      	adds	r5, #104	; 0x68
 8003588:	e7e9      	b.n	800355e <_fwalk_reent+0x12>

0800358a <__retarget_lock_init_recursive>:
 800358a:	4770      	bx	lr

0800358c <__retarget_lock_acquire_recursive>:
 800358c:	4770      	bx	lr

0800358e <__retarget_lock_release_recursive>:
 800358e:	4770      	bx	lr

08003590 <_malloc_r>:
 8003590:	b5f8      	push	{r3, r4, r5, r6, r7, lr}
 8003592:	1ccd      	adds	r5, r1, #3
 8003594:	f025 0503 	bic.w	r5, r5, #3
 8003598:	3508      	adds	r5, #8
 800359a:	2d0c      	cmp	r5, #12
 800359c:	bf38      	it	cc
 800359e:	250c      	movcc	r5, #12
 80035a0:	2d00      	cmp	r5, #0
 80035a2:	4606      	mov	r6, r0
 80035a4:	db01      	blt.n	80035aa <_malloc_r+0x1a>
 80035a6:	42a9      	cmp	r1, r5
 80035a8:	d903      	bls.n	80035b2 <_malloc_r+0x22>
 80035aa:	230c      	movs	r3, #12
 80035ac:	6033      	str	r3, [r6, #0]
 80035ae:	2000      	movs	r0, #0
 80035b0:	bdf8      	pop	{r3, r4, r5, r6, r7, pc}
 80035b2:	f000 ff35 	bl	8004420 <__malloc_lock>
 80035b6:	4921      	ldr	r1, [pc, #132]	; (800363c <_malloc_r+0xac>)
 80035b8:	680a      	ldr	r2, [r1, #0]
 80035ba:	4614      	mov	r4, r2
 80035bc:	b99c      	cbnz	r4, 80035e6 <_malloc_r+0x56>
 80035be:	4f20      	ldr	r7, [pc, #128]	; (8003640 <_malloc_r+0xb0>)
 80035c0:	683b      	ldr	r3, [r7, #0]
 80035c2:	b923      	cbnz	r3, 80035ce <_malloc_r+0x3e>
 80035c4:	4621      	mov	r1, r4
 80035c6:	4630      	mov	r0, r6
 80035c8:	f000 fc86 	bl	8003ed8 <_sbrk_r>
 80035cc:	6038      	str	r0, [r7, #0]
 80035ce:	4629      	mov	r1, r5
 80035d0:	4630      	mov	r0, r6
 80035d2:	f000 fc81 	bl	8003ed8 <_sbrk_r>
 80035d6:	1c43      	adds	r3, r0, #1
 80035d8:	d123      	bne.n	8003622 <_malloc_r+0x92>
 80035da:	230c      	movs	r3, #12
 80035dc:	4630      	mov	r0, r6
 80035de:	6033      	str	r3, [r6, #0]
 80035e0:	f000 ff24 	bl	800442c <__malloc_unlock>
 80035e4:	e7e3      	b.n	80035ae <_malloc_r+0x1e>
 80035e6:	6823      	ldr	r3, [r4, #0]
 80035e8:	1b5b      	subs	r3, r3, r5
 80035ea:	d417      	bmi.n	800361c <_malloc_r+0x8c>
 80035ec:	2b0b      	cmp	r3, #11
 80035ee:	d903      	bls.n	80035f8 <_malloc_r+0x68>
 80035f0:	6023      	str	r3, [r4, #0]
 80035f2:	441c      	add	r4, r3
 80035f4:	6025      	str	r5, [r4, #0]
 80035f6:	e004      	b.n	8003602 <_malloc_r+0x72>
 80035f8:	6863      	ldr	r3, [r4, #4]
 80035fa:	42a2      	cmp	r2, r4
 80035fc:	bf0c      	ite	eq
 80035fe:	600b      	streq	r3, [r1, #0]
 8003600:	6053      	strne	r3, [r2, #4]
 8003602:	4630      	mov	r0, r6
 8003604:	f000 ff12 	bl	800442c <__malloc_unlock>
 8003608:	f104 000b 	add.w	r0, r4, #11
 800360c:	1d23      	adds	r3, r4, #4
 800360e:	f020 0007 	bic.w	r0, r0, #7
 8003612:	1ac2      	subs	r2, r0, r3
 8003614:	d0cc      	beq.n	80035b0 <_malloc_r+0x20>
 8003616:	1a1b      	subs	r3, r3, r0
 8003618:	50a3      	str	r3, [r4, r2]
 800361a:	e7c9      	b.n	80035b0 <_malloc_r+0x20>
 800361c:	4622      	mov	r2, r4
 800361e:	6864      	ldr	r4, [r4, #4]
 8003620:	e7cc      	b.n	80035bc <_malloc_r+0x2c>
 8003622:	1cc4      	adds	r4, r0, #3
 8003624:	f024 0403 	bic.w	r4, r4, #3
 8003628:	42a0      	cmp	r0, r4
 800362a:	d0e3      	beq.n	80035f4 <_malloc_r+0x64>
 800362c:	1a21      	subs	r1, r4, r0
 800362e:	4630      	mov	r0, r6
 8003630:	f000 fc52 	bl	8003ed8 <_sbrk_r>
 8003634:	3001      	adds	r0, #1
 8003636:	d1dd      	bne.n	80035f4 <_malloc_r+0x64>
 8003638:	e7cf      	b.n	80035da <_malloc_r+0x4a>
 800363a:	bf00      	nop
 800363c:	20000090 	.word	0x20000090
 8003640:	20000094 	.word	0x20000094

08003644 <__ssputs_r>:
 8003644:	e92d 47f0 	stmdb	sp!, {r4, r5, r6, r7, r8, r9, sl, lr}
 8003648:	688e      	ldr	r6, [r1, #8]
 800364a:	4682      	mov	sl, r0
 800364c:	429e      	cmp	r6, r3
 800364e:	460c      	mov	r4, r1
 8003650:	4690      	mov	r8, r2
 8003652:	461f      	mov	r7, r3
 8003654:	d838      	bhi.n	80036c8 <__ssputs_r+0x84>
 8003656:	898a      	ldrh	r2, [r1, #12]
 8003658:	f412 6f90 	tst.w	r2, #1152	; 0x480
 800365c:	d032      	beq.n	80036c4 <__ssputs_r+0x80>
 800365e:	6825      	ldr	r5, [r4, #0]
 8003660:	6909      	ldr	r1, [r1, #16]
 8003662:	3301      	adds	r3, #1
 8003664:	eba5 0901 	sub.w	r9, r5, r1
 8003668:	6965      	ldr	r5, [r4, #20]
 800366a:	444b      	add	r3, r9
 800366c:	eb05 0545 	add.w	r5, r5, r5, lsl #1
 8003670:	eb05 75d5 	add.w	r5, r5, r5, lsr #31
 8003674:	106d      	asrs	r5, r5, #1
 8003676:	429d      	cmp	r5, r3
 8003678:	bf38      	it	cc
 800367a:	461d      	movcc	r5, r3
 800367c:	0553      	lsls	r3, r2, #21
 800367e:	d531      	bpl.n	80036e4 <__ssputs_r+0xa0>
 8003680:	4629      	mov	r1, r5
 8003682:	f7ff ff85 	bl	8003590 <_malloc_r>
 8003686:	4606      	mov	r6, r0
 8003688:	b950      	cbnz	r0, 80036a0 <__ssputs_r+0x5c>
 800368a:	230c      	movs	r3, #12
 800368c:	f04f 30ff 	mov.w	r0, #4294967295
 8003690:	f8ca 3000 	str.w	r3, [sl]
 8003694:	89a3      	ldrh	r3, [r4, #12]
 8003696:	f043 0340 	orr.w	r3, r3, #64	; 0x40
 800369a:	81a3      	strh	r3, [r4, #12]
 800369c:	e8bd 87f0 	ldmia.w	sp!, {r4, r5, r6, r7, r8, r9, sl, pc}
 80036a0:	464a      	mov	r2, r9
 80036a2:	6921      	ldr	r1, [r4, #16]
 80036a4:	f000 fe94 	bl	80043d0 <memcpy>
 80036a8:	89a3      	ldrh	r3, [r4, #12]
 80036aa:	f423 6390 	bic.w	r3, r3, #1152	; 0x480
 80036ae:	f043 0380 	orr.w	r3, r3, #128	; 0x80
 80036b2:	81a3      	strh	r3, [r4, #12]
 80036b4:	6126      	str	r6, [r4, #16]
 80036b6:	444e      	add	r6, r9
 80036b8:	6026      	str	r6, [r4, #0]
 80036ba:	463e      	mov	r6, r7
 80036bc:	6165      	str	r5, [r4, #20]
 80036be:	eba5 0509 	sub.w	r5, r5, r9
 80036c2:	60a5      	str	r5, [r4, #8]
 80036c4:	42be      	cmp	r6, r7
 80036c6:	d900      	bls.n	80036ca <__ssputs_r+0x86>
 80036c8:	463e      	mov	r6, r7
 80036ca:	4632      	mov	r2, r6
 80036cc:	4641      	mov	r1, r8
 80036ce:	6820      	ldr	r0, [r4, #0]
 80036d0:	f000 fe8c 	bl	80043ec <memmove>
 80036d4:	68a3      	ldr	r3, [r4, #8]
 80036d6:	6822      	ldr	r2, [r4, #0]
 80036d8:	1b9b      	subs	r3, r3, r6
 80036da:	4432      	add	r2, r6
 80036dc:	2000      	movs	r0, #0
 80036de:	60a3      	str	r3, [r4, #8]
 80036e0:	6022      	str	r2, [r4, #0]
 80036e2:	e7db      	b.n	800369c <__ssputs_r+0x58>
 80036e4:	462a      	mov	r2, r5
 80036e6:	f000 fef3 	bl	80044d0 <_realloc_r>
 80036ea:	4606      	mov	r6, r0
 80036ec:	2800      	cmp	r0, #0
 80036ee:	d1e1      	bne.n	80036b4 <__ssputs_r+0x70>
 80036f0:	4650      	mov	r0, sl
 80036f2:	6921      	ldr	r1, [r4, #16]
 80036f4:	f000 fea0 	bl	8004438 <_free_r>
 80036f8:	e7c7      	b.n	800368a <__ssputs_r+0x46>
	...

080036fc <_svfiprintf_r>:
 80036fc:	e92d 4ff0 	stmdb	sp!, {r4, r5, r6, r7, r8, r9, sl, fp, lr}
 8003700:	4698      	mov	r8, r3
 8003702:	898b      	ldrh	r3, [r1, #12]
 8003704:	4607      	mov	r7, r0
 8003706:	061b      	lsls	r3, r3, #24
 8003708:	460d      	mov	r5, r1
 800370a:	4614      	mov	r4, r2
 800370c:	b09d      	sub	sp, #116	; 0x74
 800370e:	d50e      	bpl.n	800372e <_svfiprintf_r+0x32>
 8003710:	690b      	ldr	r3, [r1, #16]
 8003712:	b963      	cbnz	r3, 800372e <_svfiprintf_r+0x32>
 8003714:	2140      	movs	r1, #64	; 0x40
 8003716:	f7ff ff3b 	bl	8003590 <_malloc_r>
 800371a:	6028      	str	r0, [r5, #0]
 800371c:	6128      	str	r0, [r5, #16]
 800371e:	b920      	cbnz	r0, 800372a <_svfiprintf_r+0x2e>
 8003720:	230c      	movs	r3, #12
 8003722:	603b      	str	r3, [r7, #0]
 8003724:	f04f 30ff 	mov.w	r0, #4294967295
 8003728:	e0d1      	b.n	80038ce <_svfiprintf_r+0x1d2>
 800372a:	2340      	movs	r3, #64	; 0x40
 800372c:	616b      	str	r3, [r5, #20]
 800372e:	2300      	movs	r3, #0
 8003730:	9309      	str	r3, [sp, #36]	; 0x24
 8003732:	2320      	movs	r3, #32
 8003734:	f88d 3029 	strb.w	r3, [sp, #41]	; 0x29
 8003738:	2330      	movs	r3, #48	; 0x30
 800373a:	f04f 0901 	mov.w	r9, #1
 800373e:	f8cd 800c 	str.w	r8, [sp, #12]
 8003742:	f8df 81a4 	ldr.w	r8, [pc, #420]	; 80038e8 <_svfiprintf_r+0x1ec>
 8003746:	f88d 302a 	strb.w	r3, [sp, #42]	; 0x2a
 800374a:	4623      	mov	r3, r4
 800374c:	469a      	mov	sl, r3
 800374e:	f813 2b01 	ldrb.w	r2, [r3], #1
 8003752:	b10a      	cbz	r2, 8003758 <_svfiprintf_r+0x5c>
 8003754:	2a25      	cmp	r2, #37	; 0x25
 8003756:	d1f9      	bne.n	800374c <_svfiprintf_r+0x50>
 8003758:	ebba 0b04 	subs.w	fp, sl, r4
 800375c:	d00b      	beq.n	8003776 <_svfiprintf_r+0x7a>
 800375e:	465b      	mov	r3, fp
 8003760:	4622      	mov	r2, r4
 8003762:	4629      	mov	r1, r5
 8003764:	4638      	mov	r0, r7
 8003766:	f7ff ff6d 	bl	8003644 <__ssputs_r>
 800376a:	3001      	adds	r0, #1
 800376c:	f000 80aa 	beq.w	80038c4 <_svfiprintf_r+0x1c8>
 8003770:	9a09      	ldr	r2, [sp, #36]	; 0x24
 8003772:	445a      	add	r2, fp
 8003774:	9209      	str	r2, [sp, #36]	; 0x24
 8003776:	f89a 3000 	ldrb.w	r3, [sl]
 800377a:	2b00      	cmp	r3, #0
 800377c:	f000 80a2 	beq.w	80038c4 <_svfiprintf_r+0x1c8>
 8003780:	2300      	movs	r3, #0
 8003782:	f04f 32ff 	mov.w	r2, #4294967295
 8003786:	e9cd 2305 	strd	r2, r3, [sp, #20]
 800378a:	f10a 0a01 	add.w	sl, sl, #1
 800378e:	9304      	str	r3, [sp, #16]
 8003790:	9307      	str	r3, [sp, #28]
 8003792:	f88d 3053 	strb.w	r3, [sp, #83]	; 0x53
 8003796:	931a      	str	r3, [sp, #104]	; 0x68
 8003798:	4654      	mov	r4, sl
 800379a:	2205      	movs	r2, #5
 800379c:	f814 1b01 	ldrb.w	r1, [r4], #1
 80037a0:	4851      	ldr	r0, [pc, #324]	; (80038e8 <_svfiprintf_r+0x1ec>)
 80037a2:	f000 fe07 	bl	80043b4 <memchr>
 80037a6:	9a04      	ldr	r2, [sp, #16]
 80037a8:	b9d8      	cbnz	r0, 80037e2 <_svfiprintf_r+0xe6>
 80037aa:	06d0      	lsls	r0, r2, #27
 80037ac:	bf44      	itt	mi
 80037ae:	2320      	movmi	r3, #32
 80037b0:	f88d 3053 	strbmi.w	r3, [sp, #83]	; 0x53
 80037b4:	0711      	lsls	r1, r2, #28
 80037b6:	bf44      	itt	mi
 80037b8:	232b      	movmi	r3, #43	; 0x2b
 80037ba:	f88d 3053 	strbmi.w	r3, [sp, #83]	; 0x53
 80037be:	f89a 3000 	ldrb.w	r3, [sl]
 80037c2:	2b2a      	cmp	r3, #42	; 0x2a
 80037c4:	d015      	beq.n	80037f2 <_svfiprintf_r+0xf6>
 80037c6:	4654      	mov	r4, sl
 80037c8:	2000      	movs	r0, #0
 80037ca:	f04f 0c0a 	mov.w	ip, #10
 80037ce:	9a07      	ldr	r2, [sp, #28]
 80037d0:	4621      	mov	r1, r4
 80037d2:	f811 3b01 	ldrb.w	r3, [r1], #1
 80037d6:	3b30      	subs	r3, #48	; 0x30
 80037d8:	2b09      	cmp	r3, #9
 80037da:	d94e      	bls.n	800387a <_svfiprintf_r+0x17e>
 80037dc:	b1b0      	cbz	r0, 800380c <_svfiprintf_r+0x110>
 80037de:	9207      	str	r2, [sp, #28]
 80037e0:	e014      	b.n	800380c <_svfiprintf_r+0x110>
 80037e2:	eba0 0308 	sub.w	r3, r0, r8
 80037e6:	fa09 f303 	lsl.w	r3, r9, r3
 80037ea:	4313      	orrs	r3, r2
 80037ec:	46a2      	mov	sl, r4
 80037ee:	9304      	str	r3, [sp, #16]
 80037f0:	e7d2      	b.n	8003798 <_svfiprintf_r+0x9c>
 80037f2:	9b03      	ldr	r3, [sp, #12]
 80037f4:	1d19      	adds	r1, r3, #4
 80037f6:	681b      	ldr	r3, [r3, #0]
 80037f8:	9103      	str	r1, [sp, #12]
 80037fa:	2b00      	cmp	r3, #0
 80037fc:	bfbb      	ittet	lt
 80037fe:	425b      	neglt	r3, r3
 8003800:	f042 0202 	orrlt.w	r2, r2, #2
 8003804:	9307      	strge	r3, [sp, #28]
 8003806:	9307      	strlt	r3, [sp, #28]
 8003808:	bfb8      	it	lt
 800380a:	9204      	strlt	r2, [sp, #16]
 800380c:	7823      	ldrb	r3, [r4, #0]
 800380e:	2b2e      	cmp	r3, #46	; 0x2e
 8003810:	d10c      	bne.n	800382c <_svfiprintf_r+0x130>
 8003812:	7863      	ldrb	r3, [r4, #1]
 8003814:	2b2a      	cmp	r3, #42	; 0x2a
 8003816:	d135      	bne.n	8003884 <_svfiprintf_r+0x188>
 8003818:	9b03      	ldr	r3, [sp, #12]
 800381a:	3402      	adds	r4, #2
 800381c:	1d1a      	adds	r2, r3, #4
 800381e:	681b      	ldr	r3, [r3, #0]
 8003820:	9203      	str	r2, [sp, #12]
 8003822:	2b00      	cmp	r3, #0
 8003824:	bfb8      	it	lt
 8003826:	f04f 33ff 	movlt.w	r3, #4294967295
 800382a:	9305      	str	r3, [sp, #20]
 800382c:	f8df a0c8 	ldr.w	sl, [pc, #200]	; 80038f8 <_svfiprintf_r+0x1fc>
 8003830:	2203      	movs	r2, #3
 8003832:	4650      	mov	r0, sl
 8003834:	7821      	ldrb	r1, [r4, #0]
 8003836:	f000 fdbd 	bl	80043b4 <memchr>
 800383a:	b140      	cbz	r0, 800384e <_svfiprintf_r+0x152>
 800383c:	2340      	movs	r3, #64	; 0x40
 800383e:	eba0 000a 	sub.w	r0, r0, sl
 8003842:	fa03 f000 	lsl.w	r0, r3, r0
 8003846:	9b04      	ldr	r3, [sp, #16]
 8003848:	3401      	adds	r4, #1
 800384a:	4303      	orrs	r3, r0
 800384c:	9304      	str	r3, [sp, #16]
 800384e:	f814 1b01 	ldrb.w	r1, [r4], #1
 8003852:	2206      	movs	r2, #6
 8003854:	4825      	ldr	r0, [pc, #148]	; (80038ec <_svfiprintf_r+0x1f0>)
 8003856:	f88d 1028 	strb.w	r1, [sp, #40]	; 0x28
 800385a:	f000 fdab 	bl	80043b4 <memchr>
 800385e:	2800      	cmp	r0, #0
 8003860:	d038      	beq.n	80038d4 <_svfiprintf_r+0x1d8>
 8003862:	4b23      	ldr	r3, [pc, #140]	; (80038f0 <_svfiprintf_r+0x1f4>)
 8003864:	bb1b      	cbnz	r3, 80038ae <_svfiprintf_r+0x1b2>
 8003866:	9b03      	ldr	r3, [sp, #12]
 8003868:	3307      	adds	r3, #7
 800386a:	f023 0307 	bic.w	r3, r3, #7
 800386e:	3308      	adds	r3, #8
 8003870:	9303      	str	r3, [sp, #12]
 8003872:	9b09      	ldr	r3, [sp, #36]	; 0x24
 8003874:	4433      	add	r3, r6
 8003876:	9309      	str	r3, [sp, #36]	; 0x24
 8003878:	e767      	b.n	800374a <_svfiprintf_r+0x4e>
 800387a:	460c      	mov	r4, r1
 800387c:	2001      	movs	r0, #1
 800387e:	fb0c 3202 	mla	r2, ip, r2, r3
 8003882:	e7a5      	b.n	80037d0 <_svfiprintf_r+0xd4>
 8003884:	2300      	movs	r3, #0
 8003886:	f04f 0c0a 	mov.w	ip, #10
 800388a:	4619      	mov	r1, r3
 800388c:	3401      	adds	r4, #1
 800388e:	9305      	str	r3, [sp, #20]
 8003890:	4620      	mov	r0, r4
 8003892:	f810 2b01 	ldrb.w	r2, [r0], #1
 8003896:	3a30      	subs	r2, #48	; 0x30
 8003898:	2a09      	cmp	r2, #9
 800389a:	d903      	bls.n	80038a4 <_svfiprintf_r+0x1a8>
 800389c:	2b00      	cmp	r3, #0
 800389e:	d0c5      	beq.n	800382c <_svfiprintf_r+0x130>
 80038a0:	9105      	str	r1, [sp, #20]
 80038a2:	e7c3      	b.n	800382c <_svfiprintf_r+0x130>
 80038a4:	4604      	mov	r4, r0
 80038a6:	2301      	movs	r3, #1
 80038a8:	fb0c 2101 	mla	r1, ip, r1, r2
 80038ac:	e7f0      	b.n	8003890 <_svfiprintf_r+0x194>
 80038ae:	ab03      	add	r3, sp, #12
 80038b0:	9300      	str	r3, [sp, #0]
 80038b2:	462a      	mov	r2, r5
 80038b4:	4638      	mov	r0, r7
 80038b6:	4b0f      	ldr	r3, [pc, #60]	; (80038f4 <_svfiprintf_r+0x1f8>)
 80038b8:	a904      	add	r1, sp, #16
 80038ba:	f3af 8000 	nop.w
 80038be:	1c42      	adds	r2, r0, #1
 80038c0:	4606      	mov	r6, r0
 80038c2:	d1d6      	bne.n	8003872 <_svfiprintf_r+0x176>
 80038c4:	89ab      	ldrh	r3, [r5, #12]
 80038c6:	065b      	lsls	r3, r3, #25
 80038c8:	f53f af2c 	bmi.w	8003724 <_svfiprintf_r+0x28>
 80038cc:	9809      	ldr	r0, [sp, #36]	; 0x24
 80038ce:	b01d      	add	sp, #116	; 0x74
 80038d0:	e8bd 8ff0 	ldmia.w	sp!, {r4, r5, r6, r7, r8, r9, sl, fp, pc}
 80038d4:	ab03      	add	r3, sp, #12
 80038d6:	9300      	str	r3, [sp, #0]
 80038d8:	462a      	mov	r2, r5
 80038da:	4638      	mov	r0, r7
 80038dc:	4b05      	ldr	r3, [pc, #20]	; (80038f4 <_svfiprintf_r+0x1f8>)
 80038de:	a904      	add	r1, sp, #16
 80038e0:	f000 f9d4 	bl	8003c8c <_printf_i>
 80038e4:	e7eb      	b.n	80038be <_svfiprintf_r+0x1c2>
 80038e6:	bf00      	nop
 80038e8:	08004648 	.word	0x08004648
 80038ec:	08004652 	.word	0x08004652
 80038f0:	00000000 	.word	0x00000000
 80038f4:	08003645 	.word	0x08003645
 80038f8:	0800464e 	.word	0x0800464e

080038fc <__sfputc_r>:
 80038fc:	6893      	ldr	r3, [r2, #8]
 80038fe:	b410      	push	{r4}
 8003900:	3b01      	subs	r3, #1
 8003902:	2b00      	cmp	r3, #0
 8003904:	6093      	str	r3, [r2, #8]
 8003906:	da07      	bge.n	8003918 <__sfputc_r+0x1c>
 8003908:	6994      	ldr	r4, [r2, #24]
 800390a:	42a3      	cmp	r3, r4
 800390c:	db01      	blt.n	8003912 <__sfputc_r+0x16>
 800390e:	290a      	cmp	r1, #10
 8003910:	d102      	bne.n	8003918 <__sfputc_r+0x1c>
 8003912:	bc10      	pop	{r4}
 8003914:	f000 bb34 	b.w	8003f80 <__swbuf_r>
 8003918:	6813      	ldr	r3, [r2, #0]
 800391a:	1c58      	adds	r0, r3, #1
 800391c:	6010      	str	r0, [r2, #0]
 800391e:	7019      	strb	r1, [r3, #0]
 8003920:	4608      	mov	r0, r1
 8003922:	bc10      	pop	{r4}
 8003924:	4770      	bx	lr

08003926 <__sfputs_r>:
 8003926:	b5f8      	push	{r3, r4, r5, r6, r7, lr}
 8003928:	4606      	mov	r6, r0
 800392a:	460f      	mov	r7, r1
 800392c:	4614      	mov	r4, r2
 800392e:	18d5      	adds	r5, r2, r3
 8003930:	42ac      	cmp	r4, r5
 8003932:	d101      	bne.n	8003938 <__sfputs_r+0x12>
 8003934:	2000      	movs	r0, #0
 8003936:	e007      	b.n	8003948 <__sfputs_r+0x22>
 8003938:	463a      	mov	r2, r7
 800393a:	4630      	mov	r0, r6
 800393c:	f814 1b01 	ldrb.w	r1, [r4], #1
 8003940:	f7ff ffdc 	bl	80038fc <__sfputc_r>
 8003944:	1c43      	adds	r3, r0, #1
 8003946:	d1f3      	bne.n	8003930 <__sfputs_r+0xa>
 8003948:	bdf8      	pop	{r3, r4, r5, r6, r7, pc}
	...

0800394c <_vfiprintf_r>:
 800394c:	e92d 4ff0 	stmdb	sp!, {r4, r5, r6, r7, r8, r9, sl, fp, lr}
 8003950:	460d      	mov	r5, r1
 8003952:	4614      	mov	r4, r2
 8003954:	4698      	mov	r8, r3
 8003956:	4606      	mov	r6, r0
 8003958:	b09d      	sub	sp, #116	; 0x74
 800395a:	b118      	cbz	r0, 8003964 <_vfiprintf_r+0x18>
 800395c:	6983      	ldr	r3, [r0, #24]
 800395e:	b90b      	cbnz	r3, 8003964 <_vfiprintf_r+0x18>
 8003960:	f7ff fd76 	bl	8003450 <__sinit>
 8003964:	4b89      	ldr	r3, [pc, #548]	; (8003b8c <_vfiprintf_r+0x240>)
 8003966:	429d      	cmp	r5, r3
 8003968:	d11b      	bne.n	80039a2 <_vfiprintf_r+0x56>
 800396a:	6875      	ldr	r5, [r6, #4]
 800396c:	6e6b      	ldr	r3, [r5, #100]	; 0x64
 800396e:	07d9      	lsls	r1, r3, #31
 8003970:	d405      	bmi.n	800397e <_vfiprintf_r+0x32>
 8003972:	89ab      	ldrh	r3, [r5, #12]
 8003974:	059a      	lsls	r2, r3, #22
 8003976:	d402      	bmi.n	800397e <_vfiprintf_r+0x32>
 8003978:	6da8      	ldr	r0, [r5, #88]	; 0x58
 800397a:	f7ff fe07 	bl	800358c <__retarget_lock_acquire_recursive>
 800397e:	89ab      	ldrh	r3, [r5, #12]
 8003980:	071b      	lsls	r3, r3, #28
 8003982:	d501      	bpl.n	8003988 <_vfiprintf_r+0x3c>
 8003984:	692b      	ldr	r3, [r5, #16]
 8003986:	b9eb      	cbnz	r3, 80039c4 <_vfiprintf_r+0x78>
 8003988:	4629      	mov	r1, r5
 800398a:	4630      	mov	r0, r6
 800398c:	f000 fb5c 	bl	8004048 <__swsetup_r>
 8003990:	b1c0      	cbz	r0, 80039c4 <_vfiprintf_r+0x78>
 8003992:	6e6b      	ldr	r3, [r5, #100]	; 0x64
 8003994:	07dc      	lsls	r4, r3, #31
 8003996:	d50e      	bpl.n	80039b6 <_vfiprintf_r+0x6a>
 8003998:	f04f 30ff 	mov.w	r0, #4294967295
 800399c:	b01d      	add	sp, #116	; 0x74
 800399e:	e8bd 8ff0 	ldmia.w	sp!, {r4, r5, r6, r7, r8, r9, sl, fp, pc}
 80039a2:	4b7b      	ldr	r3, [pc, #492]	; (8003b90 <_vfiprintf_r+0x244>)
 80039a4:	429d      	cmp	r5, r3
 80039a6:	d101      	bne.n	80039ac <_vfiprintf_r+0x60>
 80039a8:	68b5      	ldr	r5, [r6, #8]
 80039aa:	e7df      	b.n	800396c <_vfiprintf_r+0x20>
 80039ac:	4b79      	ldr	r3, [pc, #484]	; (8003b94 <_vfiprintf_r+0x248>)
 80039ae:	429d      	cmp	r5, r3
 80039b0:	bf08      	it	eq
 80039b2:	68f5      	ldreq	r5, [r6, #12]
 80039b4:	e7da      	b.n	800396c <_vfiprintf_r+0x20>
 80039b6:	89ab      	ldrh	r3, [r5, #12]
 80039b8:	0598      	lsls	r0, r3, #22
 80039ba:	d4ed      	bmi.n	8003998 <_vfiprintf_r+0x4c>
 80039bc:	6da8      	ldr	r0, [r5, #88]	; 0x58
 80039be:	f7ff fde6 	bl	800358e <__retarget_lock_release_recursive>
 80039c2:	e7e9      	b.n	8003998 <_vfiprintf_r+0x4c>
 80039c4:	2300      	movs	r3, #0
 80039c6:	9309      	str	r3, [sp, #36]	; 0x24
 80039c8:	2320      	movs	r3, #32
 80039ca:	f88d 3029 	strb.w	r3, [sp, #41]	; 0x29
 80039ce:	2330      	movs	r3, #48	; 0x30
 80039d0:	f04f 0901 	mov.w	r9, #1
 80039d4:	f8cd 800c 	str.w	r8, [sp, #12]
 80039d8:	f8df 81bc 	ldr.w	r8, [pc, #444]	; 8003b98 <_vfiprintf_r+0x24c>
 80039dc:	f88d 302a 	strb.w	r3, [sp, #42]	; 0x2a
 80039e0:	4623      	mov	r3, r4
 80039e2:	469a      	mov	sl, r3
 80039e4:	f813 2b01 	ldrb.w	r2, [r3], #1
 80039e8:	b10a      	cbz	r2, 80039ee <_vfiprintf_r+0xa2>
 80039ea:	2a25      	cmp	r2, #37	; 0x25
 80039ec:	d1f9      	bne.n	80039e2 <_vfiprintf_r+0x96>
 80039ee:	ebba 0b04 	subs.w	fp, sl, r4
 80039f2:	d00b      	beq.n	8003a0c <_vfiprintf_r+0xc0>
 80039f4:	465b      	mov	r3, fp
 80039f6:	4622      	mov	r2, r4
 80039f8:	4629      	mov	r1, r5
 80039fa:	4630      	mov	r0, r6
 80039fc:	f7ff ff93 	bl	8003926 <__sfputs_r>
 8003a00:	3001      	adds	r0, #1
 8003a02:	f000 80aa 	beq.w	8003b5a <_vfiprintf_r+0x20e>
 8003a06:	9a09      	ldr	r2, [sp, #36]	; 0x24
 8003a08:	445a      	add	r2, fp
 8003a0a:	9209      	str	r2, [sp, #36]	; 0x24
 8003a0c:	f89a 3000 	ldrb.w	r3, [sl]
 8003a10:	2b00      	cmp	r3, #0
 8003a12:	f000 80a2 	beq.w	8003b5a <_vfiprintf_r+0x20e>
 8003a16:	2300      	movs	r3, #0
 8003a18:	f04f 32ff 	mov.w	r2, #4294967295
 8003a1c:	e9cd 2305 	strd	r2, r3, [sp, #20]
 8003a20:	f10a 0a01 	add.w	sl, sl, #1
 8003a24:	9304      	str	r3, [sp, #16]
 8003a26:	9307      	str	r3, [sp, #28]
 8003a28:	f88d 3053 	strb.w	r3, [sp, #83]	; 0x53
 8003a2c:	931a      	str	r3, [sp, #104]	; 0x68
 8003a2e:	4654      	mov	r4, sl
 8003a30:	2205      	movs	r2, #5
 8003a32:	f814 1b01 	ldrb.w	r1, [r4], #1
 8003a36:	4858      	ldr	r0, [pc, #352]	; (8003b98 <_vfiprintf_r+0x24c>)
 8003a38:	f000 fcbc 	bl	80043b4 <memchr>
 8003a3c:	9a04      	ldr	r2, [sp, #16]
 8003a3e:	b9d8      	cbnz	r0, 8003a78 <_vfiprintf_r+0x12c>
 8003a40:	06d1      	lsls	r1, r2, #27
 8003a42:	bf44      	itt	mi
 8003a44:	2320      	movmi	r3, #32
 8003a46:	f88d 3053 	strbmi.w	r3, [sp, #83]	; 0x53
 8003a4a:	0713      	lsls	r3, r2, #28
 8003a4c:	bf44      	itt	mi
 8003a4e:	232b      	movmi	r3, #43	; 0x2b
 8003a50:	f88d 3053 	strbmi.w	r3, [sp, #83]	; 0x53
 8003a54:	f89a 3000 	ldrb.w	r3, [sl]
 8003a58:	2b2a      	cmp	r3, #42	; 0x2a
 8003a5a:	d015      	beq.n	8003a88 <_vfiprintf_r+0x13c>
 8003a5c:	4654      	mov	r4, sl
 8003a5e:	2000      	movs	r0, #0
 8003a60:	f04f 0c0a 	mov.w	ip, #10
 8003a64:	9a07      	ldr	r2, [sp, #28]
 8003a66:	4621      	mov	r1, r4
 8003a68:	f811 3b01 	ldrb.w	r3, [r1], #1
 8003a6c:	3b30      	subs	r3, #48	; 0x30
 8003a6e:	2b09      	cmp	r3, #9
 8003a70:	d94e      	bls.n	8003b10 <_vfiprintf_r+0x1c4>
 8003a72:	b1b0      	cbz	r0, 8003aa2 <_vfiprintf_r+0x156>
 8003a74:	9207      	str	r2, [sp, #28]
 8003a76:	e014      	b.n	8003aa2 <_vfiprintf_r+0x156>
 8003a78:	eba0 0308 	sub.w	r3, r0, r8
 8003a7c:	fa09 f303 	lsl.w	r3, r9, r3
 8003a80:	4313      	orrs	r3, r2
 8003a82:	46a2      	mov	sl, r4
 8003a84:	9304      	str	r3, [sp, #16]
 8003a86:	e7d2      	b.n	8003a2e <_vfiprintf_r+0xe2>
 8003a88:	9b03      	ldr	r3, [sp, #12]
 8003a8a:	1d19      	adds	r1, r3, #4
 8003a8c:	681b      	ldr	r3, [r3, #0]
 8003a8e:	9103      	str	r1, [sp, #12]
 8003a90:	2b00      	cmp	r3, #0
 8003a92:	bfbb      	ittet	lt
 8003a94:	425b      	neglt	r3, r3
 8003a96:	f042 0202 	orrlt.w	r2, r2, #2
 8003a9a:	9307      	strge	r3, [sp, #28]
 8003a9c:	9307      	strlt	r3, [sp, #28]
 8003a9e:	bfb8      	it	lt
 8003aa0:	9204      	strlt	r2, [sp, #16]
 8003aa2:	7823      	ldrb	r3, [r4, #0]
 8003aa4:	2b2e      	cmp	r3, #46	; 0x2e
 8003aa6:	d10c      	bne.n	8003ac2 <_vfiprintf_r+0x176>
 8003aa8:	7863      	ldrb	r3, [r4, #1]
 8003aaa:	2b2a      	cmp	r3, #42	; 0x2a
 8003aac:	d135      	bne.n	8003b1a <_vfiprintf_r+0x1ce>
 8003aae:	9b03      	ldr	r3, [sp, #12]
 8003ab0:	3402      	adds	r4, #2
 8003ab2:	1d1a      	adds	r2, r3, #4
 8003ab4:	681b      	ldr	r3, [r3, #0]
 8003ab6:	9203      	str	r2, [sp, #12]
 8003ab8:	2b00      	cmp	r3, #0
 8003aba:	bfb8      	it	lt
 8003abc:	f04f 33ff 	movlt.w	r3, #4294967295
 8003ac0:	9305      	str	r3, [sp, #20]
 8003ac2:	f8df a0e4 	ldr.w	sl, [pc, #228]	; 8003ba8 <_vfiprintf_r+0x25c>
 8003ac6:	2203      	movs	r2, #3
 8003ac8:	4650      	mov	r0, sl
 8003aca:	7821      	ldrb	r1, [r4, #0]
 8003acc:	f000 fc72 	bl	80043b4 <memchr>
 8003ad0:	b140      	cbz	r0, 8003ae4 <_vfiprintf_r+0x198>
 8003ad2:	2340      	movs	r3, #64	; 0x40
 8003ad4:	eba0 000a 	sub.w	r0, r0, sl
 8003ad8:	fa03 f000 	lsl.w	r0, r3, r0
 8003adc:	9b04      	ldr	r3, [sp, #16]
 8003ade:	3401      	adds	r4, #1
 8003ae0:	4303      	orrs	r3, r0
 8003ae2:	9304      	str	r3, [sp, #16]
 8003ae4:	f814 1b01 	ldrb.w	r1, [r4], #1
 8003ae8:	2206      	movs	r2, #6
 8003aea:	482c      	ldr	r0, [pc, #176]	; (8003b9c <_vfiprintf_r+0x250>)
 8003aec:	f88d 1028 	strb.w	r1, [sp, #40]	; 0x28
 8003af0:	f000 fc60 	bl	80043b4 <memchr>
 8003af4:	2800      	cmp	r0, #0
 8003af6:	d03f      	beq.n	8003b78 <_vfiprintf_r+0x22c>
 8003af8:	4b29      	ldr	r3, [pc, #164]	; (8003ba0 <_vfiprintf_r+0x254>)
 8003afa:	bb1b      	cbnz	r3, 8003b44 <_vfiprintf_r+0x1f8>
 8003afc:	9b03      	ldr	r3, [sp, #12]
 8003afe:	3307      	adds	r3, #7
 8003b00:	f023 0307 	bic.w	r3, r3, #7
 8003b04:	3308      	adds	r3, #8
 8003b06:	9303      	str	r3, [sp, #12]
 8003b08:	9b09      	ldr	r3, [sp, #36]	; 0x24
 8003b0a:	443b      	add	r3, r7
 8003b0c:	9309      	str	r3, [sp, #36]	; 0x24
 8003b0e:	e767      	b.n	80039e0 <_vfiprintf_r+0x94>
 8003b10:	460c      	mov	r4, r1
 8003b12:	2001      	movs	r0, #1
 8003b14:	fb0c 3202 	mla	r2, ip, r2, r3
 8003b18:	e7a5      	b.n	8003a66 <_vfiprintf_r+0x11a>
 8003b1a:	2300      	movs	r3, #0
 8003b1c:	f04f 0c0a 	mov.w	ip, #10
 8003b20:	4619      	mov	r1, r3
 8003b22:	3401      	adds	r4, #1
 8003b24:	9305      	str	r3, [sp, #20]
 8003b26:	4620      	mov	r0, r4
 8003b28:	f810 2b01 	ldrb.w	r2, [r0], #1
 8003b2c:	3a30      	subs	r2, #48	; 0x30
 8003b2e:	2a09      	cmp	r2, #9
 8003b30:	d903      	bls.n	8003b3a <_vfiprintf_r+0x1ee>
 8003b32:	2b00      	cmp	r3, #0
 8003b34:	d0c5      	beq.n	8003ac2 <_vfiprintf_r+0x176>
 8003b36:	9105      	str	r1, [sp, #20]
 8003b38:	e7c3      	b.n	8003ac2 <_vfiprintf_r+0x176>
 8003b3a:	4604      	mov	r4, r0
 8003b3c:	2301      	movs	r3, #1
 8003b3e:	fb0c 2101 	mla	r1, ip, r1, r2
 8003b42:	e7f0      	b.n	8003b26 <_vfiprintf_r+0x1da>
 8003b44:	ab03      	add	r3, sp, #12
 8003b46:	9300      	str	r3, [sp, #0]
 8003b48:	462a      	mov	r2, r5
 8003b4a:	4630      	mov	r0, r6
 8003b4c:	4b15      	ldr	r3, [pc, #84]	; (8003ba4 <_vfiprintf_r+0x258>)
 8003b4e:	a904      	add	r1, sp, #16
 8003b50:	f3af 8000 	nop.w
 8003b54:	4607      	mov	r7, r0
 8003b56:	1c78      	adds	r0, r7, #1
 8003b58:	d1d6      	bne.n	8003b08 <_vfiprintf_r+0x1bc>
 8003b5a:	6e6b      	ldr	r3, [r5, #100]	; 0x64
 8003b5c:	07d9      	lsls	r1, r3, #31
 8003b5e:	d405      	bmi.n	8003b6c <_vfiprintf_r+0x220>
 8003b60:	89ab      	ldrh	r3, [r5, #12]
 8003b62:	059a      	lsls	r2, r3, #22
 8003b64:	d402      	bmi.n	8003b6c <_vfiprintf_r+0x220>
 8003b66:	6da8      	ldr	r0, [r5, #88]	; 0x58
 8003b68:	f7ff fd11 	bl	800358e <__retarget_lock_release_recursive>
 8003b6c:	89ab      	ldrh	r3, [r5, #12]
 8003b6e:	065b      	lsls	r3, r3, #25
 8003b70:	f53f af12 	bmi.w	8003998 <_vfiprintf_r+0x4c>
 8003b74:	9809      	ldr	r0, [sp, #36]	; 0x24
 8003b76:	e711      	b.n	800399c <_vfiprintf_r+0x50>
 8003b78:	ab03      	add	r3, sp, #12
 8003b7a:	9300      	str	r3, [sp, #0]
 8003b7c:	462a      	mov	r2, r5
 8003b7e:	4630      	mov	r0, r6
 8003b80:	4b08      	ldr	r3, [pc, #32]	; (8003ba4 <_vfiprintf_r+0x258>)
 8003b82:	a904      	add	r1, sp, #16
 8003b84:	f000 f882 	bl	8003c8c <_printf_i>
 8003b88:	e7e4      	b.n	8003b54 <_vfiprintf_r+0x208>
 8003b8a:	bf00      	nop
 8003b8c:	08004608 	.word	0x08004608
 8003b90:	08004628 	.word	0x08004628
 8003b94:	080045e8 	.word	0x080045e8
 8003b98:	08004648 	.word	0x08004648
 8003b9c:	08004652 	.word	0x08004652
 8003ba0:	00000000 	.word	0x00000000
 8003ba4:	08003927 	.word	0x08003927
 8003ba8:	0800464e 	.word	0x0800464e

08003bac <_printf_common>:
 8003bac:	e92d 47f0 	stmdb	sp!, {r4, r5, r6, r7, r8, r9, sl, lr}
 8003bb0:	4616      	mov	r6, r2
 8003bb2:	4699      	mov	r9, r3
 8003bb4:	688a      	ldr	r2, [r1, #8]
 8003bb6:	690b      	ldr	r3, [r1, #16]
 8003bb8:	4607      	mov	r7, r0
 8003bba:	4293      	cmp	r3, r2
 8003bbc:	bfb8      	it	lt
 8003bbe:	4613      	movlt	r3, r2
 8003bc0:	6033      	str	r3, [r6, #0]
 8003bc2:	f891 2043 	ldrb.w	r2, [r1, #67]	; 0x43
 8003bc6:	460c      	mov	r4, r1
 8003bc8:	f8dd 8020 	ldr.w	r8, [sp, #32]
 8003bcc:	b10a      	cbz	r2, 8003bd2 <_printf_common+0x26>
 8003bce:	3301      	adds	r3, #1
 8003bd0:	6033      	str	r3, [r6, #0]
 8003bd2:	6823      	ldr	r3, [r4, #0]
 8003bd4:	0699      	lsls	r1, r3, #26
 8003bd6:	bf42      	ittt	mi
 8003bd8:	6833      	ldrmi	r3, [r6, #0]
 8003bda:	3302      	addmi	r3, #2
 8003bdc:	6033      	strmi	r3, [r6, #0]
 8003bde:	6825      	ldr	r5, [r4, #0]
 8003be0:	f015 0506 	ands.w	r5, r5, #6
 8003be4:	d106      	bne.n	8003bf4 <_printf_common+0x48>
 8003be6:	f104 0a19 	add.w	sl, r4, #25
 8003bea:	68e3      	ldr	r3, [r4, #12]
 8003bec:	6832      	ldr	r2, [r6, #0]
 8003bee:	1a9b      	subs	r3, r3, r2
 8003bf0:	42ab      	cmp	r3, r5
 8003bf2:	dc28      	bgt.n	8003c46 <_printf_common+0x9a>
 8003bf4:	f894 2043 	ldrb.w	r2, [r4, #67]	; 0x43
 8003bf8:	1e13      	subs	r3, r2, #0
 8003bfa:	6822      	ldr	r2, [r4, #0]
 8003bfc:	bf18      	it	ne
 8003bfe:	2301      	movne	r3, #1
 8003c00:	0692      	lsls	r2, r2, #26
 8003c02:	d42d      	bmi.n	8003c60 <_printf_common+0xb4>
 8003c04:	4649      	mov	r1, r9
 8003c06:	4638      	mov	r0, r7
 8003c08:	f104 0243 	add.w	r2, r4, #67	; 0x43
 8003c0c:	47c0      	blx	r8
 8003c0e:	3001      	adds	r0, #1
 8003c10:	d020      	beq.n	8003c54 <_printf_common+0xa8>
 8003c12:	6823      	ldr	r3, [r4, #0]
 8003c14:	68e5      	ldr	r5, [r4, #12]
 8003c16:	f003 0306 	and.w	r3, r3, #6
 8003c1a:	2b04      	cmp	r3, #4
 8003c1c:	bf18      	it	ne
 8003c1e:	2500      	movne	r5, #0
 8003c20:	6832      	ldr	r2, [r6, #0]
 8003c22:	f04f 0600 	mov.w	r6, #0
 8003c26:	68a3      	ldr	r3, [r4, #8]
 8003c28:	bf08      	it	eq
 8003c2a:	1aad      	subeq	r5, r5, r2
 8003c2c:	6922      	ldr	r2, [r4, #16]
 8003c2e:	bf08      	it	eq
 8003c30:	ea25 75e5 	biceq.w	r5, r5, r5, asr #31
 8003c34:	4293      	cmp	r3, r2
 8003c36:	bfc4      	itt	gt
 8003c38:	1a9b      	subgt	r3, r3, r2
 8003c3a:	18ed      	addgt	r5, r5, r3
 8003c3c:	341a      	adds	r4, #26
 8003c3e:	42b5      	cmp	r5, r6
 8003c40:	d11a      	bne.n	8003c78 <_printf_common+0xcc>
 8003c42:	2000      	movs	r0, #0
 8003c44:	e008      	b.n	8003c58 <_printf_common+0xac>
 8003c46:	2301      	movs	r3, #1
 8003c48:	4652      	mov	r2, sl
 8003c4a:	4649      	mov	r1, r9
 8003c4c:	4638      	mov	r0, r7
 8003c4e:	47c0      	blx	r8
 8003c50:	3001      	adds	r0, #1
 8003c52:	d103      	bne.n	8003c5c <_printf_common+0xb0>
 8003c54:	f04f 30ff 	mov.w	r0, #4294967295
 8003c58:	e8bd 87f0 	ldmia.w	sp!, {r4, r5, r6, r7, r8, r9, sl, pc}
 8003c5c:	3501      	adds	r5, #1
 8003c5e:	e7c4      	b.n	8003bea <_printf_common+0x3e>
 8003c60:	2030      	movs	r0, #48	; 0x30
 8003c62:	18e1      	adds	r1, r4, r3
 8003c64:	f881 0043 	strb.w	r0, [r1, #67]	; 0x43
 8003c68:	1c5a      	adds	r2, r3, #1
 8003c6a:	f894 1045 	ldrb.w	r1, [r4, #69]	; 0x45
 8003c6e:	4422      	add	r2, r4
 8003c70:	3302      	adds	r3, #2
 8003c72:	f882 1043 	strb.w	r1, [r2, #67]	; 0x43
 8003c76:	e7c5      	b.n	8003c04 <_printf_common+0x58>
 8003c78:	2301      	movs	r3, #1
 8003c7a:	4622      	mov	r2, r4
 8003c7c:	4649      	mov	r1, r9
 8003c7e:	4638      	mov	r0, r7
 8003c80:	47c0      	blx	r8
 8003c82:	3001      	adds	r0, #1
 8003c84:	d0e6      	beq.n	8003c54 <_printf_common+0xa8>
 8003c86:	3601      	adds	r6, #1
 8003c88:	e7d9      	b.n	8003c3e <_printf_common+0x92>
	...

08003c8c <_printf_i>:
 8003c8c:	e92d 47ff 	stmdb	sp!, {r0, r1, r2, r3, r4, r5, r6, r7, r8, r9, sl, lr}
 8003c90:	460c      	mov	r4, r1
 8003c92:	7e27      	ldrb	r7, [r4, #24]
 8003c94:	4691      	mov	r9, r2
 8003c96:	2f78      	cmp	r7, #120	; 0x78
 8003c98:	4680      	mov	r8, r0
 8003c9a:	469a      	mov	sl, r3
 8003c9c:	990c      	ldr	r1, [sp, #48]	; 0x30
 8003c9e:	f104 0243 	add.w	r2, r4, #67	; 0x43
 8003ca2:	d807      	bhi.n	8003cb4 <_printf_i+0x28>
 8003ca4:	2f62      	cmp	r7, #98	; 0x62
 8003ca6:	d80a      	bhi.n	8003cbe <_printf_i+0x32>
 8003ca8:	2f00      	cmp	r7, #0
 8003caa:	f000 80d9 	beq.w	8003e60 <_printf_i+0x1d4>
 8003cae:	2f58      	cmp	r7, #88	; 0x58
 8003cb0:	f000 80a4 	beq.w	8003dfc <_printf_i+0x170>
 8003cb4:	f104 0642 	add.w	r6, r4, #66	; 0x42
 8003cb8:	f884 7042 	strb.w	r7, [r4, #66]	; 0x42
 8003cbc:	e03a      	b.n	8003d34 <_printf_i+0xa8>
 8003cbe:	f1a7 0363 	sub.w	r3, r7, #99	; 0x63
 8003cc2:	2b15      	cmp	r3, #21
 8003cc4:	d8f6      	bhi.n	8003cb4 <_printf_i+0x28>
 8003cc6:	a001      	add	r0, pc, #4	; (adr r0, 8003ccc <_printf_i+0x40>)
 8003cc8:	f850 f023 	ldr.w	pc, [r0, r3, lsl #2]
 8003ccc:	08003d25 	.word	0x08003d25
 8003cd0:	08003d39 	.word	0x08003d39
 8003cd4:	08003cb5 	.word	0x08003cb5
 8003cd8:	08003cb5 	.word	0x08003cb5
 8003cdc:	08003cb5 	.word	0x08003cb5
 8003ce0:	08003cb5 	.word	0x08003cb5
 8003ce4:	08003d39 	.word	0x08003d39
 8003ce8:	08003cb5 	.word	0x08003cb5
 8003cec:	08003cb5 	.word	0x08003cb5
 8003cf0:	08003cb5 	.word	0x08003cb5
 8003cf4:	08003cb5 	.word	0x08003cb5
 8003cf8:	08003e47 	.word	0x08003e47
 8003cfc:	08003d69 	.word	0x08003d69
 8003d00:	08003e29 	.word	0x08003e29
 8003d04:	08003cb5 	.word	0x08003cb5
 8003d08:	08003cb5 	.word	0x08003cb5
 8003d0c:	08003e69 	.word	0x08003e69
 8003d10:	08003cb5 	.word	0x08003cb5
 8003d14:	08003d69 	.word	0x08003d69
 8003d18:	08003cb5 	.word	0x08003cb5
 8003d1c:	08003cb5 	.word	0x08003cb5
 8003d20:	08003e31 	.word	0x08003e31
 8003d24:	680b      	ldr	r3, [r1, #0]
 8003d26:	f104 0642 	add.w	r6, r4, #66	; 0x42
 8003d2a:	1d1a      	adds	r2, r3, #4
 8003d2c:	681b      	ldr	r3, [r3, #0]
 8003d2e:	600a      	str	r2, [r1, #0]
 8003d30:	f884 3042 	strb.w	r3, [r4, #66]	; 0x42
 8003d34:	2301      	movs	r3, #1
 8003d36:	e0a4      	b.n	8003e82 <_printf_i+0x1f6>
 8003d38:	6825      	ldr	r5, [r4, #0]
 8003d3a:	6808      	ldr	r0, [r1, #0]
 8003d3c:	062e      	lsls	r6, r5, #24
 8003d3e:	f100 0304 	add.w	r3, r0, #4
 8003d42:	d50a      	bpl.n	8003d5a <_printf_i+0xce>
 8003d44:	6805      	ldr	r5, [r0, #0]
 8003d46:	600b      	str	r3, [r1, #0]
 8003d48:	2d00      	cmp	r5, #0
 8003d4a:	da03      	bge.n	8003d54 <_printf_i+0xc8>
 8003d4c:	232d      	movs	r3, #45	; 0x2d
 8003d4e:	426d      	negs	r5, r5
 8003d50:	f884 3043 	strb.w	r3, [r4, #67]	; 0x43
 8003d54:	230a      	movs	r3, #10
 8003d56:	485e      	ldr	r0, [pc, #376]	; (8003ed0 <_printf_i+0x244>)
 8003d58:	e019      	b.n	8003d8e <_printf_i+0x102>
 8003d5a:	f015 0f40 	tst.w	r5, #64	; 0x40
 8003d5e:	6805      	ldr	r5, [r0, #0]
 8003d60:	600b      	str	r3, [r1, #0]
 8003d62:	bf18      	it	ne
 8003d64:	b22d      	sxthne	r5, r5
 8003d66:	e7ef      	b.n	8003d48 <_printf_i+0xbc>
 8003d68:	680b      	ldr	r3, [r1, #0]
 8003d6a:	6825      	ldr	r5, [r4, #0]
 8003d6c:	1d18      	adds	r0, r3, #4
 8003d6e:	6008      	str	r0, [r1, #0]
 8003d70:	0628      	lsls	r0, r5, #24
 8003d72:	d501      	bpl.n	8003d78 <_printf_i+0xec>
 8003d74:	681d      	ldr	r5, [r3, #0]
 8003d76:	e002      	b.n	8003d7e <_printf_i+0xf2>
 8003d78:	0669      	lsls	r1, r5, #25
 8003d7a:	d5fb      	bpl.n	8003d74 <_printf_i+0xe8>
 8003d7c:	881d      	ldrh	r5, [r3, #0]
 8003d7e:	2f6f      	cmp	r7, #111	; 0x6f
 8003d80:	bf0c      	ite	eq
 8003d82:	2308      	moveq	r3, #8
 8003d84:	230a      	movne	r3, #10
 8003d86:	4852      	ldr	r0, [pc, #328]	; (8003ed0 <_printf_i+0x244>)
 8003d88:	2100      	movs	r1, #0
 8003d8a:	f884 1043 	strb.w	r1, [r4, #67]	; 0x43
 8003d8e:	6866      	ldr	r6, [r4, #4]
 8003d90:	2e00      	cmp	r6, #0
 8003d92:	bfa8      	it	ge
 8003d94:	6821      	ldrge	r1, [r4, #0]
 8003d96:	60a6      	str	r6, [r4, #8]
 8003d98:	bfa4      	itt	ge
 8003d9a:	f021 0104 	bicge.w	r1, r1, #4
 8003d9e:	6021      	strge	r1, [r4, #0]
 8003da0:	b90d      	cbnz	r5, 8003da6 <_printf_i+0x11a>
 8003da2:	2e00      	cmp	r6, #0
 8003da4:	d04d      	beq.n	8003e42 <_printf_i+0x1b6>
 8003da6:	4616      	mov	r6, r2
 8003da8:	fbb5 f1f3 	udiv	r1, r5, r3
 8003dac:	fb03 5711 	mls	r7, r3, r1, r5
 8003db0:	5dc7      	ldrb	r7, [r0, r7]
 8003db2:	f806 7d01 	strb.w	r7, [r6, #-1]!
 8003db6:	462f      	mov	r7, r5
 8003db8:	42bb      	cmp	r3, r7
 8003dba:	460d      	mov	r5, r1
 8003dbc:	d9f4      	bls.n	8003da8 <_printf_i+0x11c>
 8003dbe:	2b08      	cmp	r3, #8
 8003dc0:	d10b      	bne.n	8003dda <_printf_i+0x14e>
 8003dc2:	6823      	ldr	r3, [r4, #0]
 8003dc4:	07df      	lsls	r7, r3, #31
 8003dc6:	d508      	bpl.n	8003dda <_printf_i+0x14e>
 8003dc8:	6923      	ldr	r3, [r4, #16]
 8003dca:	6861      	ldr	r1, [r4, #4]
 8003dcc:	4299      	cmp	r1, r3
 8003dce:	bfde      	ittt	le
 8003dd0:	2330      	movle	r3, #48	; 0x30
 8003dd2:	f806 3c01 	strble.w	r3, [r6, #-1]
 8003dd6:	f106 36ff 	addle.w	r6, r6, #4294967295
 8003dda:	1b92      	subs	r2, r2, r6
 8003ddc:	6122      	str	r2, [r4, #16]
 8003dde:	464b      	mov	r3, r9
 8003de0:	4621      	mov	r1, r4
 8003de2:	4640      	mov	r0, r8
 8003de4:	f8cd a000 	str.w	sl, [sp]
 8003de8:	aa03      	add	r2, sp, #12
 8003dea:	f7ff fedf 	bl	8003bac <_printf_common>
 8003dee:	3001      	adds	r0, #1
 8003df0:	d14c      	bne.n	8003e8c <_printf_i+0x200>
 8003df2:	f04f 30ff 	mov.w	r0, #4294967295
 8003df6:	b004      	add	sp, #16
 8003df8:	e8bd 87f0 	ldmia.w	sp!, {r4, r5, r6, r7, r8, r9, sl, pc}
 8003dfc:	4834      	ldr	r0, [pc, #208]	; (8003ed0 <_printf_i+0x244>)
 8003dfe:	f884 7045 	strb.w	r7, [r4, #69]	; 0x45
 8003e02:	680e      	ldr	r6, [r1, #0]
 8003e04:	6823      	ldr	r3, [r4, #0]
 8003e06:	f856 5b04 	ldr.w	r5, [r6], #4
 8003e0a:	061f      	lsls	r7, r3, #24
 8003e0c:	600e      	str	r6, [r1, #0]
 8003e0e:	d514      	bpl.n	8003e3a <_printf_i+0x1ae>
 8003e10:	07d9      	lsls	r1, r3, #31
 8003e12:	bf44      	itt	mi
 8003e14:	f043 0320 	orrmi.w	r3, r3, #32
 8003e18:	6023      	strmi	r3, [r4, #0]
 8003e1a:	b91d      	cbnz	r5, 8003e24 <_printf_i+0x198>
 8003e1c:	6823      	ldr	r3, [r4, #0]
 8003e1e:	f023 0320 	bic.w	r3, r3, #32
 8003e22:	6023      	str	r3, [r4, #0]
 8003e24:	2310      	movs	r3, #16
 8003e26:	e7af      	b.n	8003d88 <_printf_i+0xfc>
 8003e28:	6823      	ldr	r3, [r4, #0]
 8003e2a:	f043 0320 	orr.w	r3, r3, #32
 8003e2e:	6023      	str	r3, [r4, #0]
 8003e30:	2378      	movs	r3, #120	; 0x78
 8003e32:	4828      	ldr	r0, [pc, #160]	; (8003ed4 <_printf_i+0x248>)
 8003e34:	f884 3045 	strb.w	r3, [r4, #69]	; 0x45
 8003e38:	e7e3      	b.n	8003e02 <_printf_i+0x176>
 8003e3a:	065e      	lsls	r6, r3, #25
 8003e3c:	bf48      	it	mi
 8003e3e:	b2ad      	uxthmi	r5, r5
 8003e40:	e7e6      	b.n	8003e10 <_printf_i+0x184>
 8003e42:	4616      	mov	r6, r2
 8003e44:	e7bb      	b.n	8003dbe <_printf_i+0x132>
 8003e46:	680b      	ldr	r3, [r1, #0]
 8003e48:	6826      	ldr	r6, [r4, #0]
 8003e4a:	1d1d      	adds	r5, r3, #4
 8003e4c:	6960      	ldr	r0, [r4, #20]
 8003e4e:	600d      	str	r5, [r1, #0]
 8003e50:	0635      	lsls	r5, r6, #24
 8003e52:	681b      	ldr	r3, [r3, #0]
 8003e54:	d501      	bpl.n	8003e5a <_printf_i+0x1ce>
 8003e56:	6018      	str	r0, [r3, #0]
 8003e58:	e002      	b.n	8003e60 <_printf_i+0x1d4>
 8003e5a:	0671      	lsls	r1, r6, #25
 8003e5c:	d5fb      	bpl.n	8003e56 <_printf_i+0x1ca>
 8003e5e:	8018      	strh	r0, [r3, #0]
 8003e60:	2300      	movs	r3, #0
 8003e62:	4616      	mov	r6, r2
 8003e64:	6123      	str	r3, [r4, #16]
 8003e66:	e7ba      	b.n	8003dde <_printf_i+0x152>
 8003e68:	680b      	ldr	r3, [r1, #0]
 8003e6a:	1d1a      	adds	r2, r3, #4
 8003e6c:	600a      	str	r2, [r1, #0]
 8003e6e:	681e      	ldr	r6, [r3, #0]
 8003e70:	2100      	movs	r1, #0
 8003e72:	4630      	mov	r0, r6
 8003e74:	6862      	ldr	r2, [r4, #4]
 8003e76:	f000 fa9d 	bl	80043b4 <memchr>
 8003e7a:	b108      	cbz	r0, 8003e80 <_printf_i+0x1f4>
 8003e7c:	1b80      	subs	r0, r0, r6
 8003e7e:	6060      	str	r0, [r4, #4]
 8003e80:	6863      	ldr	r3, [r4, #4]
 8003e82:	6123      	str	r3, [r4, #16]
 8003e84:	2300      	movs	r3, #0
 8003e86:	f884 3043 	strb.w	r3, [r4, #67]	; 0x43
 8003e8a:	e7a8      	b.n	8003dde <_printf_i+0x152>
 8003e8c:	4632      	mov	r2, r6
 8003e8e:	4649      	mov	r1, r9
 8003e90:	4640      	mov	r0, r8
 8003e92:	6923      	ldr	r3, [r4, #16]
 8003e94:	47d0      	blx	sl
 8003e96:	3001      	adds	r0, #1
 8003e98:	d0ab      	beq.n	8003df2 <_printf_i+0x166>
 8003e9a:	6823      	ldr	r3, [r4, #0]
 8003e9c:	079b      	lsls	r3, r3, #30
 8003e9e:	d413      	bmi.n	8003ec8 <_printf_i+0x23c>
 8003ea0:	68e0      	ldr	r0, [r4, #12]
 8003ea2:	9b03      	ldr	r3, [sp, #12]
 8003ea4:	4298      	cmp	r0, r3
 8003ea6:	bfb8      	it	lt
 8003ea8:	4618      	movlt	r0, r3
 8003eaa:	e7a4      	b.n	8003df6 <_printf_i+0x16a>
 8003eac:	2301      	movs	r3, #1
 8003eae:	4632      	mov	r2, r6
 8003eb0:	4649      	mov	r1, r9
 8003eb2:	4640      	mov	r0, r8
 8003eb4:	47d0      	blx	sl
 8003eb6:	3001      	adds	r0, #1
 8003eb8:	d09b      	beq.n	8003df2 <_printf_i+0x166>
 8003eba:	3501      	adds	r5, #1
 8003ebc:	68e3      	ldr	r3, [r4, #12]
 8003ebe:	9903      	ldr	r1, [sp, #12]
 8003ec0:	1a5b      	subs	r3, r3, r1
 8003ec2:	42ab      	cmp	r3, r5
 8003ec4:	dcf2      	bgt.n	8003eac <_printf_i+0x220>
 8003ec6:	e7eb      	b.n	8003ea0 <_printf_i+0x214>
 8003ec8:	2500      	movs	r5, #0
 8003eca:	f104 0619 	add.w	r6, r4, #25
 8003ece:	e7f5      	b.n	8003ebc <_printf_i+0x230>
 8003ed0:	08004659 	.word	0x08004659
 8003ed4:	0800466a 	.word	0x0800466a

08003ed8 <_sbrk_r>:
 8003ed8:	b538      	push	{r3, r4, r5, lr}
 8003eda:	2300      	movs	r3, #0
 8003edc:	4d05      	ldr	r5, [pc, #20]	; (8003ef4 <_sbrk_r+0x1c>)
 8003ede:	4604      	mov	r4, r0
 8003ee0:	4608      	mov	r0, r1
 8003ee2:	602b      	str	r3, [r5, #0]
 8003ee4:	f7fc fe20 	bl	8000b28 <_sbrk>
 8003ee8:	1c43      	adds	r3, r0, #1
 8003eea:	d102      	bne.n	8003ef2 <_sbrk_r+0x1a>
 8003eec:	682b      	ldr	r3, [r5, #0]
 8003eee:	b103      	cbz	r3, 8003ef2 <_sbrk_r+0x1a>
 8003ef0:	6023      	str	r3, [r4, #0]
 8003ef2:	bd38      	pop	{r3, r4, r5, pc}
 8003ef4:	200001e8 	.word	0x200001e8

08003ef8 <__sread>:
 8003ef8:	b510      	push	{r4, lr}
 8003efa:	460c      	mov	r4, r1
 8003efc:	f9b1 100e 	ldrsh.w	r1, [r1, #14]
 8003f00:	f000 fb0c 	bl	800451c <_read_r>
 8003f04:	2800      	cmp	r0, #0
 8003f06:	bfab      	itete	ge
 8003f08:	6d63      	ldrge	r3, [r4, #84]	; 0x54
 8003f0a:	89a3      	ldrhlt	r3, [r4, #12]
 8003f0c:	181b      	addge	r3, r3, r0
 8003f0e:	f423 5380 	biclt.w	r3, r3, #4096	; 0x1000
 8003f12:	bfac      	ite	ge
 8003f14:	6563      	strge	r3, [r4, #84]	; 0x54
 8003f16:	81a3      	strhlt	r3, [r4, #12]
 8003f18:	bd10      	pop	{r4, pc}

08003f1a <__swrite>:
 8003f1a:	e92d 41f0 	stmdb	sp!, {r4, r5, r6, r7, r8, lr}
 8003f1e:	461f      	mov	r7, r3
 8003f20:	898b      	ldrh	r3, [r1, #12]
 8003f22:	4605      	mov	r5, r0
 8003f24:	05db      	lsls	r3, r3, #23
 8003f26:	460c      	mov	r4, r1
 8003f28:	4616      	mov	r6, r2
 8003f2a:	d505      	bpl.n	8003f38 <__swrite+0x1e>
 8003f2c:	2302      	movs	r3, #2
 8003f2e:	2200      	movs	r2, #0
 8003f30:	f9b1 100e 	ldrsh.w	r1, [r1, #14]
 8003f34:	f000 f9c8 	bl	80042c8 <_lseek_r>
 8003f38:	89a3      	ldrh	r3, [r4, #12]
 8003f3a:	4632      	mov	r2, r6
 8003f3c:	f423 5380 	bic.w	r3, r3, #4096	; 0x1000
 8003f40:	81a3      	strh	r3, [r4, #12]
 8003f42:	4628      	mov	r0, r5
 8003f44:	463b      	mov	r3, r7
 8003f46:	f9b4 100e 	ldrsh.w	r1, [r4, #14]
 8003f4a:	e8bd 41f0 	ldmia.w	sp!, {r4, r5, r6, r7, r8, lr}
 8003f4e:	f000 b869 	b.w	8004024 <_write_r>

08003f52 <__sseek>:
 8003f52:	b510      	push	{r4, lr}
 8003f54:	460c      	mov	r4, r1
 8003f56:	f9b1 100e 	ldrsh.w	r1, [r1, #14]
 8003f5a:	f000 f9b5 	bl	80042c8 <_lseek_r>
 8003f5e:	1c43      	adds	r3, r0, #1
 8003f60:	89a3      	ldrh	r3, [r4, #12]
 8003f62:	bf15      	itete	ne
 8003f64:	6560      	strne	r0, [r4, #84]	; 0x54
 8003f66:	f423 5380 	biceq.w	r3, r3, #4096	; 0x1000
 8003f6a:	f443 5380 	orrne.w	r3, r3, #4096	; 0x1000
 8003f6e:	81a3      	strheq	r3, [r4, #12]
 8003f70:	bf18      	it	ne
 8003f72:	81a3      	strhne	r3, [r4, #12]
 8003f74:	bd10      	pop	{r4, pc}

08003f76 <__sclose>:
 8003f76:	f9b1 100e 	ldrsh.w	r1, [r1, #14]
 8003f7a:	f000 b8d3 	b.w	8004124 <_close_r>
	...

08003f80 <__swbuf_r>:
 8003f80:	b5f8      	push	{r3, r4, r5, r6, r7, lr}
 8003f82:	460e      	mov	r6, r1
 8003f84:	4614      	mov	r4, r2
 8003f86:	4605      	mov	r5, r0
 8003f88:	b118      	cbz	r0, 8003f92 <__swbuf_r+0x12>
 8003f8a:	6983      	ldr	r3, [r0, #24]
 8003f8c:	b90b      	cbnz	r3, 8003f92 <__swbuf_r+0x12>
 8003f8e:	f7ff fa5f 	bl	8003450 <__sinit>
 8003f92:	4b21      	ldr	r3, [pc, #132]	; (8004018 <__swbuf_r+0x98>)
 8003f94:	429c      	cmp	r4, r3
 8003f96:	d12b      	bne.n	8003ff0 <__swbuf_r+0x70>
 8003f98:	686c      	ldr	r4, [r5, #4]
 8003f9a:	69a3      	ldr	r3, [r4, #24]
 8003f9c:	60a3      	str	r3, [r4, #8]
 8003f9e:	89a3      	ldrh	r3, [r4, #12]
 8003fa0:	071a      	lsls	r2, r3, #28
 8003fa2:	d52f      	bpl.n	8004004 <__swbuf_r+0x84>
 8003fa4:	6923      	ldr	r3, [r4, #16]
 8003fa6:	b36b      	cbz	r3, 8004004 <__swbuf_r+0x84>
 8003fa8:	6923      	ldr	r3, [r4, #16]
 8003faa:	6820      	ldr	r0, [r4, #0]
 8003fac:	b2f6      	uxtb	r6, r6
 8003fae:	1ac0      	subs	r0, r0, r3
 8003fb0:	6963      	ldr	r3, [r4, #20]
 8003fb2:	4637      	mov	r7, r6
 8003fb4:	4283      	cmp	r3, r0
 8003fb6:	dc04      	bgt.n	8003fc2 <__swbuf_r+0x42>
 8003fb8:	4621      	mov	r1, r4
 8003fba:	4628      	mov	r0, r5
 8003fbc:	f000 f948 	bl	8004250 <_fflush_r>
 8003fc0:	bb30      	cbnz	r0, 8004010 <__swbuf_r+0x90>
 8003fc2:	68a3      	ldr	r3, [r4, #8]
 8003fc4:	3001      	adds	r0, #1
 8003fc6:	3b01      	subs	r3, #1
 8003fc8:	60a3      	str	r3, [r4, #8]
 8003fca:	6823      	ldr	r3, [r4, #0]
 8003fcc:	1c5a      	adds	r2, r3, #1
 8003fce:	6022      	str	r2, [r4, #0]
 8003fd0:	701e      	strb	r6, [r3, #0]
 8003fd2:	6963      	ldr	r3, [r4, #20]
 8003fd4:	4283      	cmp	r3, r0
 8003fd6:	d004      	beq.n	8003fe2 <__swbuf_r+0x62>
 8003fd8:	89a3      	ldrh	r3, [r4, #12]
 8003fda:	07db      	lsls	r3, r3, #31
 8003fdc:	d506      	bpl.n	8003fec <__swbuf_r+0x6c>
 8003fde:	2e0a      	cmp	r6, #10
 8003fe0:	d104      	bne.n	8003fec <__swbuf_r+0x6c>
 8003fe2:	4621      	mov	r1, r4
 8003fe4:	4628      	mov	r0, r5
 8003fe6:	f000 f933 	bl	8004250 <_fflush_r>
 8003fea:	b988      	cbnz	r0, 8004010 <__swbuf_r+0x90>
 8003fec:	4638      	mov	r0, r7
 8003fee:	bdf8      	pop	{r3, r4, r5, r6, r7, pc}
 8003ff0:	4b0a      	ldr	r3, [pc, #40]	; (800401c <__swbuf_r+0x9c>)
 8003ff2:	429c      	cmp	r4, r3
 8003ff4:	d101      	bne.n	8003ffa <__swbuf_r+0x7a>
 8003ff6:	68ac      	ldr	r4, [r5, #8]
 8003ff8:	e7cf      	b.n	8003f9a <__swbuf_r+0x1a>
 8003ffa:	4b09      	ldr	r3, [pc, #36]	; (8004020 <__swbuf_r+0xa0>)
 8003ffc:	429c      	cmp	r4, r3
 8003ffe:	bf08      	it	eq
 8004000:	68ec      	ldreq	r4, [r5, #12]
 8004002:	e7ca      	b.n	8003f9a <__swbuf_r+0x1a>
 8004004:	4621      	mov	r1, r4
 8004006:	4628      	mov	r0, r5
 8004008:	f000 f81e 	bl	8004048 <__swsetup_r>
 800400c:	2800      	cmp	r0, #0
 800400e:	d0cb      	beq.n	8003fa8 <__swbuf_r+0x28>
 8004010:	f04f 37ff 	mov.w	r7, #4294967295
 8004014:	e7ea      	b.n	8003fec <__swbuf_r+0x6c>
 8004016:	bf00      	nop
 8004018:	08004608 	.word	0x08004608
 800401c:	08004628 	.word	0x08004628
 8004020:	080045e8 	.word	0x080045e8

08004024 <_write_r>:
 8004024:	b538      	push	{r3, r4, r5, lr}
 8004026:	4604      	mov	r4, r0
 8004028:	4608      	mov	r0, r1
 800402a:	4611      	mov	r1, r2
 800402c:	2200      	movs	r2, #0
 800402e:	4d05      	ldr	r5, [pc, #20]	; (8004044 <_write_r+0x20>)
 8004030:	602a      	str	r2, [r5, #0]
 8004032:	461a      	mov	r2, r3
 8004034:	f7fc fd2b 	bl	8000a8e <_write>
 8004038:	1c43      	adds	r3, r0, #1
 800403a:	d102      	bne.n	8004042 <_write_r+0x1e>
 800403c:	682b      	ldr	r3, [r5, #0]
 800403e:	b103      	cbz	r3, 8004042 <_write_r+0x1e>
 8004040:	6023      	str	r3, [r4, #0]
 8004042:	bd38      	pop	{r3, r4, r5, pc}
 8004044:	200001e8 	.word	0x200001e8

08004048 <__swsetup_r>:
 8004048:	4b32      	ldr	r3, [pc, #200]	; (8004114 <__swsetup_r+0xcc>)
 800404a:	b570      	push	{r4, r5, r6, lr}
 800404c:	681d      	ldr	r5, [r3, #0]
 800404e:	4606      	mov	r6, r0
 8004050:	460c      	mov	r4, r1
 8004052:	b125      	cbz	r5, 800405e <__swsetup_r+0x16>
 8004054:	69ab      	ldr	r3, [r5, #24]
 8004056:	b913      	cbnz	r3, 800405e <__swsetup_r+0x16>
 8004058:	4628      	mov	r0, r5
 800405a:	f7ff f9f9 	bl	8003450 <__sinit>
 800405e:	4b2e      	ldr	r3, [pc, #184]	; (8004118 <__swsetup_r+0xd0>)
 8004060:	429c      	cmp	r4, r3
 8004062:	d10f      	bne.n	8004084 <__swsetup_r+0x3c>
 8004064:	686c      	ldr	r4, [r5, #4]
 8004066:	89a3      	ldrh	r3, [r4, #12]
 8004068:	f9b4 200c 	ldrsh.w	r2, [r4, #12]
 800406c:	0719      	lsls	r1, r3, #28
 800406e:	d42c      	bmi.n	80040ca <__swsetup_r+0x82>
 8004070:	06dd      	lsls	r5, r3, #27
 8004072:	d411      	bmi.n	8004098 <__swsetup_r+0x50>
 8004074:	2309      	movs	r3, #9
 8004076:	6033      	str	r3, [r6, #0]
 8004078:	f042 0340 	orr.w	r3, r2, #64	; 0x40
 800407c:	f04f 30ff 	mov.w	r0, #4294967295
 8004080:	81a3      	strh	r3, [r4, #12]
 8004082:	e03e      	b.n	8004102 <__swsetup_r+0xba>
 8004084:	4b25      	ldr	r3, [pc, #148]	; (800411c <__swsetup_r+0xd4>)
 8004086:	429c      	cmp	r4, r3
 8004088:	d101      	bne.n	800408e <__swsetup_r+0x46>
 800408a:	68ac      	ldr	r4, [r5, #8]
 800408c:	e7eb      	b.n	8004066 <__swsetup_r+0x1e>
 800408e:	4b24      	ldr	r3, [pc, #144]	; (8004120 <__swsetup_r+0xd8>)
 8004090:	429c      	cmp	r4, r3
 8004092:	bf08      	it	eq
 8004094:	68ec      	ldreq	r4, [r5, #12]
 8004096:	e7e6      	b.n	8004066 <__swsetup_r+0x1e>
 8004098:	0758      	lsls	r0, r3, #29
 800409a:	d512      	bpl.n	80040c2 <__swsetup_r+0x7a>
 800409c:	6b61      	ldr	r1, [r4, #52]	; 0x34
 800409e:	b141      	cbz	r1, 80040b2 <__swsetup_r+0x6a>
 80040a0:	f104 0344 	add.w	r3, r4, #68	; 0x44
 80040a4:	4299      	cmp	r1, r3
 80040a6:	d002      	beq.n	80040ae <__swsetup_r+0x66>
 80040a8:	4630      	mov	r0, r6
 80040aa:	f000 f9c5 	bl	8004438 <_free_r>
 80040ae:	2300      	movs	r3, #0
 80040b0:	6363      	str	r3, [r4, #52]	; 0x34
 80040b2:	89a3      	ldrh	r3, [r4, #12]
 80040b4:	f023 0324 	bic.w	r3, r3, #36	; 0x24
 80040b8:	81a3      	strh	r3, [r4, #12]
 80040ba:	2300      	movs	r3, #0
 80040bc:	6063      	str	r3, [r4, #4]
 80040be:	6923      	ldr	r3, [r4, #16]
 80040c0:	6023      	str	r3, [r4, #0]
 80040c2:	89a3      	ldrh	r3, [r4, #12]
 80040c4:	f043 0308 	orr.w	r3, r3, #8
 80040c8:	81a3      	strh	r3, [r4, #12]
 80040ca:	6923      	ldr	r3, [r4, #16]
 80040cc:	b94b      	cbnz	r3, 80040e2 <__swsetup_r+0x9a>
 80040ce:	89a3      	ldrh	r3, [r4, #12]
 80040d0:	f403 7320 	and.w	r3, r3, #640	; 0x280
 80040d4:	f5b3 7f00 	cmp.w	r3, #512	; 0x200
 80040d8:	d003      	beq.n	80040e2 <__swsetup_r+0x9a>
 80040da:	4621      	mov	r1, r4
 80040dc:	4630      	mov	r0, r6
 80040de:	f000 f929 	bl	8004334 <__smakebuf_r>
 80040e2:	89a0      	ldrh	r0, [r4, #12]
 80040e4:	f9b4 200c 	ldrsh.w	r2, [r4, #12]
 80040e8:	f010 0301 	ands.w	r3, r0, #1
 80040ec:	d00a      	beq.n	8004104 <__swsetup_r+0xbc>
 80040ee:	2300      	movs	r3, #0
 80040f0:	60a3      	str	r3, [r4, #8]
 80040f2:	6963      	ldr	r3, [r4, #20]
 80040f4:	425b      	negs	r3, r3
 80040f6:	61a3      	str	r3, [r4, #24]
 80040f8:	6923      	ldr	r3, [r4, #16]
 80040fa:	b943      	cbnz	r3, 800410e <__swsetup_r+0xc6>
 80040fc:	f010 0080 	ands.w	r0, r0, #128	; 0x80
 8004100:	d1ba      	bne.n	8004078 <__swsetup_r+0x30>
 8004102:	bd70      	pop	{r4, r5, r6, pc}
 8004104:	0781      	lsls	r1, r0, #30
 8004106:	bf58      	it	pl
 8004108:	6963      	ldrpl	r3, [r4, #20]
 800410a:	60a3      	str	r3, [r4, #8]
 800410c:	e7f4      	b.n	80040f8 <__swsetup_r+0xb0>
 800410e:	2000      	movs	r0, #0
 8004110:	e7f7      	b.n	8004102 <__swsetup_r+0xba>
 8004112:	bf00      	nop
 8004114:	2000000c 	.word	0x2000000c
 8004118:	08004608 	.word	0x08004608
 800411c:	08004628 	.word	0x08004628
 8004120:	080045e8 	.word	0x080045e8

08004124 <_close_r>:
 8004124:	b538      	push	{r3, r4, r5, lr}
 8004126:	2300      	movs	r3, #0
 8004128:	4d05      	ldr	r5, [pc, #20]	; (8004140 <_close_r+0x1c>)
 800412a:	4604      	mov	r4, r0
 800412c:	4608      	mov	r0, r1
 800412e:	602b      	str	r3, [r5, #0]
 8004130:	f7fc fcc9 	bl	8000ac6 <_close>
 8004134:	1c43      	adds	r3, r0, #1
 8004136:	d102      	bne.n	800413e <_close_r+0x1a>
 8004138:	682b      	ldr	r3, [r5, #0]
 800413a:	b103      	cbz	r3, 800413e <_close_r+0x1a>
 800413c:	6023      	str	r3, [r4, #0]
 800413e:	bd38      	pop	{r3, r4, r5, pc}
 8004140:	200001e8 	.word	0x200001e8

08004144 <__sflush_r>:
 8004144:	898a      	ldrh	r2, [r1, #12]
 8004146:	e92d 41f0 	stmdb	sp!, {r4, r5, r6, r7, r8, lr}
 800414a:	4605      	mov	r5, r0
 800414c:	0710      	lsls	r0, r2, #28
 800414e:	460c      	mov	r4, r1
 8004150:	d458      	bmi.n	8004204 <__sflush_r+0xc0>
 8004152:	684b      	ldr	r3, [r1, #4]
 8004154:	2b00      	cmp	r3, #0
 8004156:	dc05      	bgt.n	8004164 <__sflush_r+0x20>
 8004158:	6c0b      	ldr	r3, [r1, #64]	; 0x40
 800415a:	2b00      	cmp	r3, #0
 800415c:	dc02      	bgt.n	8004164 <__sflush_r+0x20>
 800415e:	2000      	movs	r0, #0
 8004160:	e8bd 81f0 	ldmia.w	sp!, {r4, r5, r6, r7, r8, pc}
 8004164:	6ae6      	ldr	r6, [r4, #44]	; 0x2c
 8004166:	2e00      	cmp	r6, #0
 8004168:	d0f9      	beq.n	800415e <__sflush_r+0x1a>
 800416a:	2300      	movs	r3, #0
 800416c:	f412 5280 	ands.w	r2, r2, #4096	; 0x1000
 8004170:	682f      	ldr	r7, [r5, #0]
 8004172:	602b      	str	r3, [r5, #0]
 8004174:	d032      	beq.n	80041dc <__sflush_r+0x98>
 8004176:	6d60      	ldr	r0, [r4, #84]	; 0x54
 8004178:	89a3      	ldrh	r3, [r4, #12]
 800417a:	075a      	lsls	r2, r3, #29
 800417c:	d505      	bpl.n	800418a <__sflush_r+0x46>
 800417e:	6863      	ldr	r3, [r4, #4]
 8004180:	1ac0      	subs	r0, r0, r3
 8004182:	6b63      	ldr	r3, [r4, #52]	; 0x34
 8004184:	b10b      	cbz	r3, 800418a <__sflush_r+0x46>
 8004186:	6c23      	ldr	r3, [r4, #64]	; 0x40
 8004188:	1ac0      	subs	r0, r0, r3
 800418a:	2300      	movs	r3, #0
 800418c:	4602      	mov	r2, r0
 800418e:	6ae6      	ldr	r6, [r4, #44]	; 0x2c
 8004190:	4628      	mov	r0, r5
 8004192:	6a21      	ldr	r1, [r4, #32]
 8004194:	47b0      	blx	r6
 8004196:	1c43      	adds	r3, r0, #1
 8004198:	89a3      	ldrh	r3, [r4, #12]
 800419a:	d106      	bne.n	80041aa <__sflush_r+0x66>
 800419c:	6829      	ldr	r1, [r5, #0]
 800419e:	291d      	cmp	r1, #29
 80041a0:	d82c      	bhi.n	80041fc <__sflush_r+0xb8>
 80041a2:	4a2a      	ldr	r2, [pc, #168]	; (800424c <__sflush_r+0x108>)
 80041a4:	40ca      	lsrs	r2, r1
 80041a6:	07d6      	lsls	r6, r2, #31
 80041a8:	d528      	bpl.n	80041fc <__sflush_r+0xb8>
 80041aa:	2200      	movs	r2, #0
 80041ac:	6062      	str	r2, [r4, #4]
 80041ae:	6922      	ldr	r2, [r4, #16]
 80041b0:	04d9      	lsls	r1, r3, #19
 80041b2:	6022      	str	r2, [r4, #0]
 80041b4:	d504      	bpl.n	80041c0 <__sflush_r+0x7c>
 80041b6:	1c42      	adds	r2, r0, #1
 80041b8:	d101      	bne.n	80041be <__sflush_r+0x7a>
 80041ba:	682b      	ldr	r3, [r5, #0]
 80041bc:	b903      	cbnz	r3, 80041c0 <__sflush_r+0x7c>
 80041be:	6560      	str	r0, [r4, #84]	; 0x54
 80041c0:	6b61      	ldr	r1, [r4, #52]	; 0x34
 80041c2:	602f      	str	r7, [r5, #0]
 80041c4:	2900      	cmp	r1, #0
 80041c6:	d0ca      	beq.n	800415e <__sflush_r+0x1a>
 80041c8:	f104 0344 	add.w	r3, r4, #68	; 0x44
 80041cc:	4299      	cmp	r1, r3
 80041ce:	d002      	beq.n	80041d6 <__sflush_r+0x92>
 80041d0:	4628      	mov	r0, r5
 80041d2:	f000 f931 	bl	8004438 <_free_r>
 80041d6:	2000      	movs	r0, #0
 80041d8:	6360      	str	r0, [r4, #52]	; 0x34
 80041da:	e7c1      	b.n	8004160 <__sflush_r+0x1c>
 80041dc:	6a21      	ldr	r1, [r4, #32]
 80041de:	2301      	movs	r3, #1
 80041e0:	4628      	mov	r0, r5
 80041e2:	47b0      	blx	r6
 80041e4:	1c41      	adds	r1, r0, #1
 80041e6:	d1c7      	bne.n	8004178 <__sflush_r+0x34>
 80041e8:	682b      	ldr	r3, [r5, #0]
 80041ea:	2b00      	cmp	r3, #0
 80041ec:	d0c4      	beq.n	8004178 <__sflush_r+0x34>
 80041ee:	2b1d      	cmp	r3, #29
 80041f0:	d001      	beq.n	80041f6 <__sflush_r+0xb2>
 80041f2:	2b16      	cmp	r3, #22
 80041f4:	d101      	bne.n	80041fa <__sflush_r+0xb6>
 80041f6:	602f      	str	r7, [r5, #0]
 80041f8:	e7b1      	b.n	800415e <__sflush_r+0x1a>
 80041fa:	89a3      	ldrh	r3, [r4, #12]
 80041fc:	f043 0340 	orr.w	r3, r3, #64	; 0x40
 8004200:	81a3      	strh	r3, [r4, #12]
 8004202:	e7ad      	b.n	8004160 <__sflush_r+0x1c>
 8004204:	690f      	ldr	r7, [r1, #16]
 8004206:	2f00      	cmp	r7, #0
 8004208:	d0a9      	beq.n	800415e <__sflush_r+0x1a>
 800420a:	0793      	lsls	r3, r2, #30
 800420c:	bf18      	it	ne
 800420e:	2300      	movne	r3, #0
 8004210:	680e      	ldr	r6, [r1, #0]
 8004212:	bf08      	it	eq
 8004214:	694b      	ldreq	r3, [r1, #20]
 8004216:	eba6 0807 	sub.w	r8, r6, r7
 800421a:	600f      	str	r7, [r1, #0]
 800421c:	608b      	str	r3, [r1, #8]
 800421e:	f1b8 0f00 	cmp.w	r8, #0
 8004222:	dd9c      	ble.n	800415e <__sflush_r+0x1a>
 8004224:	4643      	mov	r3, r8
 8004226:	463a      	mov	r2, r7
 8004228:	4628      	mov	r0, r5
 800422a:	6a21      	ldr	r1, [r4, #32]
 800422c:	6aa6      	ldr	r6, [r4, #40]	; 0x28
 800422e:	47b0      	blx	r6
 8004230:	2800      	cmp	r0, #0
 8004232:	dc06      	bgt.n	8004242 <__sflush_r+0xfe>
 8004234:	89a3      	ldrh	r3, [r4, #12]
 8004236:	f04f 30ff 	mov.w	r0, #4294967295
 800423a:	f043 0340 	orr.w	r3, r3, #64	; 0x40
 800423e:	81a3      	strh	r3, [r4, #12]
 8004240:	e78e      	b.n	8004160 <__sflush_r+0x1c>
 8004242:	4407      	add	r7, r0
 8004244:	eba8 0800 	sub.w	r8, r8, r0
 8004248:	e7e9      	b.n	800421e <__sflush_r+0xda>
 800424a:	bf00      	nop
 800424c:	20400001 	.word	0x20400001

08004250 <_fflush_r>:
 8004250:	b538      	push	{r3, r4, r5, lr}
 8004252:	690b      	ldr	r3, [r1, #16]
 8004254:	4605      	mov	r5, r0
 8004256:	460c      	mov	r4, r1
 8004258:	b913      	cbnz	r3, 8004260 <_fflush_r+0x10>
 800425a:	2500      	movs	r5, #0
 800425c:	4628      	mov	r0, r5
 800425e:	bd38      	pop	{r3, r4, r5, pc}
 8004260:	b118      	cbz	r0, 800426a <_fflush_r+0x1a>
 8004262:	6983      	ldr	r3, [r0, #24]
 8004264:	b90b      	cbnz	r3, 800426a <_fflush_r+0x1a>
 8004266:	f7ff f8f3 	bl	8003450 <__sinit>
 800426a:	4b14      	ldr	r3, [pc, #80]	; (80042bc <_fflush_r+0x6c>)
 800426c:	429c      	cmp	r4, r3
 800426e:	d11b      	bne.n	80042a8 <_fflush_r+0x58>
 8004270:	686c      	ldr	r4, [r5, #4]
 8004272:	f9b4 300c 	ldrsh.w	r3, [r4, #12]
 8004276:	2b00      	cmp	r3, #0
 8004278:	d0ef      	beq.n	800425a <_fflush_r+0xa>
 800427a:	6e62      	ldr	r2, [r4, #100]	; 0x64
 800427c:	07d0      	lsls	r0, r2, #31
 800427e:	d404      	bmi.n	800428a <_fflush_r+0x3a>
 8004280:	0599      	lsls	r1, r3, #22
 8004282:	d402      	bmi.n	800428a <_fflush_r+0x3a>
 8004284:	6da0      	ldr	r0, [r4, #88]	; 0x58
 8004286:	f7ff f981 	bl	800358c <__retarget_lock_acquire_recursive>
 800428a:	4628      	mov	r0, r5
 800428c:	4621      	mov	r1, r4
 800428e:	f7ff ff59 	bl	8004144 <__sflush_r>
 8004292:	6e63      	ldr	r3, [r4, #100]	; 0x64
 8004294:	4605      	mov	r5, r0
 8004296:	07da      	lsls	r2, r3, #31
 8004298:	d4e0      	bmi.n	800425c <_fflush_r+0xc>
 800429a:	89a3      	ldrh	r3, [r4, #12]
 800429c:	059b      	lsls	r3, r3, #22
 800429e:	d4dd      	bmi.n	800425c <_fflush_r+0xc>
 80042a0:	6da0      	ldr	r0, [r4, #88]	; 0x58
 80042a2:	f7ff f974 	bl	800358e <__retarget_lock_release_recursive>
 80042a6:	e7d9      	b.n	800425c <_fflush_r+0xc>
 80042a8:	4b05      	ldr	r3, [pc, #20]	; (80042c0 <_fflush_r+0x70>)
 80042aa:	429c      	cmp	r4, r3
 80042ac:	d101      	bne.n	80042b2 <_fflush_r+0x62>
 80042ae:	68ac      	ldr	r4, [r5, #8]
 80042b0:	e7df      	b.n	8004272 <_fflush_r+0x22>
 80042b2:	4b04      	ldr	r3, [pc, #16]	; (80042c4 <_fflush_r+0x74>)
 80042b4:	429c      	cmp	r4, r3
 80042b6:	bf08      	it	eq
 80042b8:	68ec      	ldreq	r4, [r5, #12]
 80042ba:	e7da      	b.n	8004272 <_fflush_r+0x22>
 80042bc:	08004608 	.word	0x08004608
 80042c0:	08004628 	.word	0x08004628
 80042c4:	080045e8 	.word	0x080045e8

080042c8 <_lseek_r>:
 80042c8:	b538      	push	{r3, r4, r5, lr}
 80042ca:	4604      	mov	r4, r0
 80042cc:	4608      	mov	r0, r1
 80042ce:	4611      	mov	r1, r2
 80042d0:	2200      	movs	r2, #0
 80042d2:	4d05      	ldr	r5, [pc, #20]	; (80042e8 <_lseek_r+0x20>)
 80042d4:	602a      	str	r2, [r5, #0]
 80042d6:	461a      	mov	r2, r3
 80042d8:	f7fc fc19 	bl	8000b0e <_lseek>
 80042dc:	1c43      	adds	r3, r0, #1
 80042de:	d102      	bne.n	80042e6 <_lseek_r+0x1e>
 80042e0:	682b      	ldr	r3, [r5, #0]
 80042e2:	b103      	cbz	r3, 80042e6 <_lseek_r+0x1e>
 80042e4:	6023      	str	r3, [r4, #0]
 80042e6:	bd38      	pop	{r3, r4, r5, pc}
 80042e8:	200001e8 	.word	0x200001e8

080042ec <__swhatbuf_r>:
 80042ec:	b570      	push	{r4, r5, r6, lr}
 80042ee:	460e      	mov	r6, r1
 80042f0:	f9b1 100e 	ldrsh.w	r1, [r1, #14]
 80042f4:	4614      	mov	r4, r2
 80042f6:	2900      	cmp	r1, #0
 80042f8:	461d      	mov	r5, r3
 80042fa:	b096      	sub	sp, #88	; 0x58
 80042fc:	da07      	bge.n	800430e <__swhatbuf_r+0x22>
 80042fe:	2300      	movs	r3, #0
 8004300:	602b      	str	r3, [r5, #0]
 8004302:	89b3      	ldrh	r3, [r6, #12]
 8004304:	061a      	lsls	r2, r3, #24
 8004306:	d410      	bmi.n	800432a <__swhatbuf_r+0x3e>
 8004308:	f44f 6380 	mov.w	r3, #1024	; 0x400
 800430c:	e00e      	b.n	800432c <__swhatbuf_r+0x40>
 800430e:	466a      	mov	r2, sp
 8004310:	f000 f916 	bl	8004540 <_fstat_r>
 8004314:	2800      	cmp	r0, #0
 8004316:	dbf2      	blt.n	80042fe <__swhatbuf_r+0x12>
 8004318:	9a01      	ldr	r2, [sp, #4]
 800431a:	f402 4270 	and.w	r2, r2, #61440	; 0xf000
 800431e:	f5a2 5300 	sub.w	r3, r2, #8192	; 0x2000
 8004322:	425a      	negs	r2, r3
 8004324:	415a      	adcs	r2, r3
 8004326:	602a      	str	r2, [r5, #0]
 8004328:	e7ee      	b.n	8004308 <__swhatbuf_r+0x1c>
 800432a:	2340      	movs	r3, #64	; 0x40
 800432c:	2000      	movs	r0, #0
 800432e:	6023      	str	r3, [r4, #0]
 8004330:	b016      	add	sp, #88	; 0x58
 8004332:	bd70      	pop	{r4, r5, r6, pc}

08004334 <__smakebuf_r>:
 8004334:	898b      	ldrh	r3, [r1, #12]
 8004336:	b573      	push	{r0, r1, r4, r5, r6, lr}
 8004338:	079d      	lsls	r5, r3, #30
 800433a:	4606      	mov	r6, r0
 800433c:	460c      	mov	r4, r1
 800433e:	d507      	bpl.n	8004350 <__smakebuf_r+0x1c>
 8004340:	f104 0347 	add.w	r3, r4, #71	; 0x47
 8004344:	6023      	str	r3, [r4, #0]
 8004346:	6123      	str	r3, [r4, #16]
 8004348:	2301      	movs	r3, #1
 800434a:	6163      	str	r3, [r4, #20]
 800434c:	b002      	add	sp, #8
 800434e:	bd70      	pop	{r4, r5, r6, pc}
 8004350:	466a      	mov	r2, sp
 8004352:	ab01      	add	r3, sp, #4
 8004354:	f7ff ffca 	bl	80042ec <__swhatbuf_r>
 8004358:	9900      	ldr	r1, [sp, #0]
 800435a:	4605      	mov	r5, r0
 800435c:	4630      	mov	r0, r6
 800435e:	f7ff f917 	bl	8003590 <_malloc_r>
 8004362:	b948      	cbnz	r0, 8004378 <__smakebuf_r+0x44>
 8004364:	f9b4 300c 	ldrsh.w	r3, [r4, #12]
 8004368:	059a      	lsls	r2, r3, #22
 800436a:	d4ef      	bmi.n	800434c <__smakebuf_r+0x18>
 800436c:	f023 0303 	bic.w	r3, r3, #3
 8004370:	f043 0302 	orr.w	r3, r3, #2
 8004374:	81a3      	strh	r3, [r4, #12]
 8004376:	e7e3      	b.n	8004340 <__smakebuf_r+0xc>
 8004378:	4b0d      	ldr	r3, [pc, #52]	; (80043b0 <__smakebuf_r+0x7c>)
 800437a:	62b3      	str	r3, [r6, #40]	; 0x28
 800437c:	89a3      	ldrh	r3, [r4, #12]
 800437e:	6020      	str	r0, [r4, #0]
 8004380:	f043 0380 	orr.w	r3, r3, #128	; 0x80
 8004384:	81a3      	strh	r3, [r4, #12]
 8004386:	9b00      	ldr	r3, [sp, #0]
 8004388:	6120      	str	r0, [r4, #16]
 800438a:	6163      	str	r3, [r4, #20]
 800438c:	9b01      	ldr	r3, [sp, #4]
 800438e:	b15b      	cbz	r3, 80043a8 <__smakebuf_r+0x74>
 8004390:	4630      	mov	r0, r6
 8004392:	f9b4 100e 	ldrsh.w	r1, [r4, #14]
 8004396:	f000 f8e5 	bl	8004564 <_isatty_r>
 800439a:	b128      	cbz	r0, 80043a8 <__smakebuf_r+0x74>
 800439c:	89a3      	ldrh	r3, [r4, #12]
 800439e:	f023 0303 	bic.w	r3, r3, #3
 80043a2:	f043 0301 	orr.w	r3, r3, #1
 80043a6:	81a3      	strh	r3, [r4, #12]
 80043a8:	89a0      	ldrh	r0, [r4, #12]
 80043aa:	4305      	orrs	r5, r0
 80043ac:	81a5      	strh	r5, [r4, #12]
 80043ae:	e7cd      	b.n	800434c <__smakebuf_r+0x18>
 80043b0:	080033e9 	.word	0x080033e9

080043b4 <memchr>:
 80043b4:	4603      	mov	r3, r0
 80043b6:	b510      	push	{r4, lr}
 80043b8:	b2c9      	uxtb	r1, r1
 80043ba:	4402      	add	r2, r0
 80043bc:	4293      	cmp	r3, r2
 80043be:	4618      	mov	r0, r3
 80043c0:	d101      	bne.n	80043c6 <memchr+0x12>
 80043c2:	2000      	movs	r0, #0
 80043c4:	e003      	b.n	80043ce <memchr+0x1a>
 80043c6:	7804      	ldrb	r4, [r0, #0]
 80043c8:	3301      	adds	r3, #1
 80043ca:	428c      	cmp	r4, r1
 80043cc:	d1f6      	bne.n	80043bc <memchr+0x8>
 80043ce:	bd10      	pop	{r4, pc}

080043d0 <memcpy>:
 80043d0:	440a      	add	r2, r1
 80043d2:	4291      	cmp	r1, r2
 80043d4:	f100 33ff 	add.w	r3, r0, #4294967295
 80043d8:	d100      	bne.n	80043dc <memcpy+0xc>
 80043da:	4770      	bx	lr
 80043dc:	b510      	push	{r4, lr}
 80043de:	f811 4b01 	ldrb.w	r4, [r1], #1
 80043e2:	4291      	cmp	r1, r2
 80043e4:	f803 4f01 	strb.w	r4, [r3, #1]!
 80043e8:	d1f9      	bne.n	80043de <memcpy+0xe>
 80043ea:	bd10      	pop	{r4, pc}

080043ec <memmove>:
 80043ec:	4288      	cmp	r0, r1
 80043ee:	b510      	push	{r4, lr}
 80043f0:	eb01 0402 	add.w	r4, r1, r2
 80043f4:	d902      	bls.n	80043fc <memmove+0x10>
 80043f6:	4284      	cmp	r4, r0
 80043f8:	4623      	mov	r3, r4
 80043fa:	d807      	bhi.n	800440c <memmove+0x20>
 80043fc:	1e43      	subs	r3, r0, #1
 80043fe:	42a1      	cmp	r1, r4
 8004400:	d008      	beq.n	8004414 <memmove+0x28>
 8004402:	f811 2b01 	ldrb.w	r2, [r1], #1
 8004406:	f803 2f01 	strb.w	r2, [r3, #1]!
 800440a:	e7f8      	b.n	80043fe <memmove+0x12>
 800440c:	4601      	mov	r1, r0
 800440e:	4402      	add	r2, r0
 8004410:	428a      	cmp	r2, r1
 8004412:	d100      	bne.n	8004416 <memmove+0x2a>
 8004414:	bd10      	pop	{r4, pc}
 8004416:	f813 4d01 	ldrb.w	r4, [r3, #-1]!
 800441a:	f802 4d01 	strb.w	r4, [r2, #-1]!
 800441e:	e7f7      	b.n	8004410 <memmove+0x24>

08004420 <__malloc_lock>:
 8004420:	4801      	ldr	r0, [pc, #4]	; (8004428 <__malloc_lock+0x8>)
 8004422:	f7ff b8b3 	b.w	800358c <__retarget_lock_acquire_recursive>
 8004426:	bf00      	nop
 8004428:	200001e0 	.word	0x200001e0

0800442c <__malloc_unlock>:
 800442c:	4801      	ldr	r0, [pc, #4]	; (8004434 <__malloc_unlock+0x8>)
 800442e:	f7ff b8ae 	b.w	800358e <__retarget_lock_release_recursive>
 8004432:	bf00      	nop
 8004434:	200001e0 	.word	0x200001e0

08004438 <_free_r>:
 8004438:	b538      	push	{r3, r4, r5, lr}
 800443a:	4605      	mov	r5, r0
 800443c:	2900      	cmp	r1, #0
 800443e:	d043      	beq.n	80044c8 <_free_r+0x90>
 8004440:	f851 3c04 	ldr.w	r3, [r1, #-4]
 8004444:	1f0c      	subs	r4, r1, #4
 8004446:	2b00      	cmp	r3, #0
 8004448:	bfb8      	it	lt
 800444a:	18e4      	addlt	r4, r4, r3
 800444c:	f7ff ffe8 	bl	8004420 <__malloc_lock>
 8004450:	4a1e      	ldr	r2, [pc, #120]	; (80044cc <_free_r+0x94>)
 8004452:	6813      	ldr	r3, [r2, #0]
 8004454:	4610      	mov	r0, r2
 8004456:	b933      	cbnz	r3, 8004466 <_free_r+0x2e>
 8004458:	6063      	str	r3, [r4, #4]
 800445a:	6014      	str	r4, [r2, #0]
 800445c:	4628      	mov	r0, r5
 800445e:	e8bd 4038 	ldmia.w	sp!, {r3, r4, r5, lr}
 8004462:	f7ff bfe3 	b.w	800442c <__malloc_unlock>
 8004466:	42a3      	cmp	r3, r4
 8004468:	d90a      	bls.n	8004480 <_free_r+0x48>
 800446a:	6821      	ldr	r1, [r4, #0]
 800446c:	1862      	adds	r2, r4, r1
 800446e:	4293      	cmp	r3, r2
 8004470:	bf01      	itttt	eq
 8004472:	681a      	ldreq	r2, [r3, #0]
 8004474:	685b      	ldreq	r3, [r3, #4]
 8004476:	1852      	addeq	r2, r2, r1
 8004478:	6022      	streq	r2, [r4, #0]
 800447a:	6063      	str	r3, [r4, #4]
 800447c:	6004      	str	r4, [r0, #0]
 800447e:	e7ed      	b.n	800445c <_free_r+0x24>
 8004480:	461a      	mov	r2, r3
 8004482:	685b      	ldr	r3, [r3, #4]
 8004484:	b10b      	cbz	r3, 800448a <_free_r+0x52>
 8004486:	42a3      	cmp	r3, r4
 8004488:	d9fa      	bls.n	8004480 <_free_r+0x48>
 800448a:	6811      	ldr	r1, [r2, #0]
 800448c:	1850      	adds	r0, r2, r1
 800448e:	42a0      	cmp	r0, r4
 8004490:	d10b      	bne.n	80044aa <_free_r+0x72>
 8004492:	6820      	ldr	r0, [r4, #0]
 8004494:	4401      	add	r1, r0
 8004496:	1850      	adds	r0, r2, r1
 8004498:	4283      	cmp	r3, r0
 800449a:	6011      	str	r1, [r2, #0]
 800449c:	d1de      	bne.n	800445c <_free_r+0x24>
 800449e:	6818      	ldr	r0, [r3, #0]
 80044a0:	685b      	ldr	r3, [r3, #4]
 80044a2:	4401      	add	r1, r0
 80044a4:	6011      	str	r1, [r2, #0]
 80044a6:	6053      	str	r3, [r2, #4]
 80044a8:	e7d8      	b.n	800445c <_free_r+0x24>
 80044aa:	d902      	bls.n	80044b2 <_free_r+0x7a>
 80044ac:	230c      	movs	r3, #12
 80044ae:	602b      	str	r3, [r5, #0]
 80044b0:	e7d4      	b.n	800445c <_free_r+0x24>
 80044b2:	6820      	ldr	r0, [r4, #0]
 80044b4:	1821      	adds	r1, r4, r0
 80044b6:	428b      	cmp	r3, r1
 80044b8:	bf01      	itttt	eq
 80044ba:	6819      	ldreq	r1, [r3, #0]
 80044bc:	685b      	ldreq	r3, [r3, #4]
 80044be:	1809      	addeq	r1, r1, r0
 80044c0:	6021      	streq	r1, [r4, #0]
 80044c2:	6063      	str	r3, [r4, #4]
 80044c4:	6054      	str	r4, [r2, #4]
 80044c6:	e7c9      	b.n	800445c <_free_r+0x24>
 80044c8:	bd38      	pop	{r3, r4, r5, pc}
 80044ca:	bf00      	nop
 80044cc:	20000090 	.word	0x20000090

080044d0 <_realloc_r>:
 80044d0:	b5f8      	push	{r3, r4, r5, r6, r7, lr}
 80044d2:	4607      	mov	r7, r0
 80044d4:	4614      	mov	r4, r2
 80044d6:	460e      	mov	r6, r1
 80044d8:	b921      	cbnz	r1, 80044e4 <_realloc_r+0x14>
 80044da:	4611      	mov	r1, r2
 80044dc:	e8bd 40f8 	ldmia.w	sp!, {r3, r4, r5, r6, r7, lr}
 80044e0:	f7ff b856 	b.w	8003590 <_malloc_r>
 80044e4:	b922      	cbnz	r2, 80044f0 <_realloc_r+0x20>
 80044e6:	f7ff ffa7 	bl	8004438 <_free_r>
 80044ea:	4625      	mov	r5, r4
 80044ec:	4628      	mov	r0, r5
 80044ee:	bdf8      	pop	{r3, r4, r5, r6, r7, pc}
 80044f0:	f000 f848 	bl	8004584 <_malloc_usable_size_r>
 80044f4:	42a0      	cmp	r0, r4
 80044f6:	d20f      	bcs.n	8004518 <_realloc_r+0x48>
 80044f8:	4621      	mov	r1, r4
 80044fa:	4638      	mov	r0, r7
 80044fc:	f7ff f848 	bl	8003590 <_malloc_r>
 8004500:	4605      	mov	r5, r0
 8004502:	2800      	cmp	r0, #0
 8004504:	d0f2      	beq.n	80044ec <_realloc_r+0x1c>
 8004506:	4631      	mov	r1, r6
 8004508:	4622      	mov	r2, r4
 800450a:	f7ff ff61 	bl	80043d0 <memcpy>
 800450e:	4631      	mov	r1, r6
 8004510:	4638      	mov	r0, r7
 8004512:	f7ff ff91 	bl	8004438 <_free_r>
 8004516:	e7e9      	b.n	80044ec <_realloc_r+0x1c>
 8004518:	4635      	mov	r5, r6
 800451a:	e7e7      	b.n	80044ec <_realloc_r+0x1c>

0800451c <_read_r>:
 800451c:	b538      	push	{r3, r4, r5, lr}
 800451e:	4604      	mov	r4, r0
 8004520:	4608      	mov	r0, r1
 8004522:	4611      	mov	r1, r2
 8004524:	2200      	movs	r2, #0
 8004526:	4d05      	ldr	r5, [pc, #20]	; (800453c <_read_r+0x20>)
 8004528:	602a      	str	r2, [r5, #0]
 800452a:	461a      	mov	r2, r3
 800452c:	f7fc fa92 	bl	8000a54 <_read>
 8004530:	1c43      	adds	r3, r0, #1
 8004532:	d102      	bne.n	800453a <_read_r+0x1e>
 8004534:	682b      	ldr	r3, [r5, #0]
 8004536:	b103      	cbz	r3, 800453a <_read_r+0x1e>
 8004538:	6023      	str	r3, [r4, #0]
 800453a:	bd38      	pop	{r3, r4, r5, pc}
 800453c:	200001e8 	.word	0x200001e8

08004540 <_fstat_r>:
 8004540:	b538      	push	{r3, r4, r5, lr}
 8004542:	2300      	movs	r3, #0
 8004544:	4d06      	ldr	r5, [pc, #24]	; (8004560 <_fstat_r+0x20>)
 8004546:	4604      	mov	r4, r0
 8004548:	4608      	mov	r0, r1
 800454a:	4611      	mov	r1, r2
 800454c:	602b      	str	r3, [r5, #0]
 800454e:	f7fc fac5 	bl	8000adc <_fstat>
 8004552:	1c43      	adds	r3, r0, #1
 8004554:	d102      	bne.n	800455c <_fstat_r+0x1c>
 8004556:	682b      	ldr	r3, [r5, #0]
 8004558:	b103      	cbz	r3, 800455c <_fstat_r+0x1c>
 800455a:	6023      	str	r3, [r4, #0]
 800455c:	bd38      	pop	{r3, r4, r5, pc}
 800455e:	bf00      	nop
 8004560:	200001e8 	.word	0x200001e8

08004564 <_isatty_r>:
 8004564:	b538      	push	{r3, r4, r5, lr}
 8004566:	2300      	movs	r3, #0
 8004568:	4d05      	ldr	r5, [pc, #20]	; (8004580 <_isatty_r+0x1c>)
 800456a:	4604      	mov	r4, r0
 800456c:	4608      	mov	r0, r1
 800456e:	602b      	str	r3, [r5, #0]
 8004570:	f7fc fac3 	bl	8000afa <_isatty>
 8004574:	1c43      	adds	r3, r0, #1
 8004576:	d102      	bne.n	800457e <_isatty_r+0x1a>
 8004578:	682b      	ldr	r3, [r5, #0]
 800457a:	b103      	cbz	r3, 800457e <_isatty_r+0x1a>
 800457c:	6023      	str	r3, [r4, #0]
 800457e:	bd38      	pop	{r3, r4, r5, pc}
 8004580:	200001e8 	.word	0x200001e8

08004584 <_malloc_usable_size_r>:
 8004584:	f851 3c04 	ldr.w	r3, [r1, #-4]
 8004588:	1f18      	subs	r0, r3, #4
 800458a:	2b00      	cmp	r3, #0
 800458c:	bfbc      	itt	lt
 800458e:	580b      	ldrlt	r3, [r1, r0]
 8004590:	18c0      	addlt	r0, r0, r3
 8004592:	4770      	bx	lr

08004594 <_init>:
 8004594:	b5f8      	push	{r3, r4, r5, r6, r7, lr}
 8004596:	bf00      	nop
 8004598:	bcf8      	pop	{r3, r4, r5, r6, r7}
 800459a:	bc08      	pop	{r3}
 800459c:	469e      	mov	lr, r3
 800459e:	4770      	bx	lr

080045a0 <_fini>:
 80045a0:	b5f8      	push	{r3, r4, r5, r6, r7, lr}
 80045a2:	bf00      	nop
 80045a4:	bcf8      	pop	{r3, r4, r5, r6, r7}
 80045a6:	bc08      	pop	{r3}
 80045a8:	469e      	mov	lr, r3
 80045aa:	4770      	bx	lr
